   1              		.file	"gd32vw55x_rtc.c"
   2              		.option nopic
   3              		.attribute arch, "rv32i2p0_m2p0_a2p0_c2p0"
   4              		.attribute unaligned_access, 0
   5              		.attribute stack_align, 16
   6              		.text
   7              	.Ltext0:
   8              		.cfi_sections	.debug_frame
   9              		.section	.text.rtc_deinit,"ax",@progbits
  10              		.align	1
  11              		.globl	rtc_deinit
  13              	rtc_deinit:
  14              	.LFB347:
  15              		.file 1 "../Firmware/GD32VW55x_standard_peripheral/Source/gd32vw55x_rtc.c"
   1:../Firmware/GD32VW55x_standard_peripheral/Source/gd32vw55x_rtc.c **** /*!
   2:../Firmware/GD32VW55x_standard_peripheral/Source/gd32vw55x_rtc.c ****     \file    gd32vw55x_rtc.c
   3:../Firmware/GD32VW55x_standard_peripheral/Source/gd32vw55x_rtc.c ****     \brief   RTC driver
   4:../Firmware/GD32VW55x_standard_peripheral/Source/gd32vw55x_rtc.c **** 
   5:../Firmware/GD32VW55x_standard_peripheral/Source/gd32vw55x_rtc.c ****     \version 2025-01-16, V1.4.0, firmware for GD32VW55x
   6:../Firmware/GD32VW55x_standard_peripheral/Source/gd32vw55x_rtc.c **** */
   7:../Firmware/GD32VW55x_standard_peripheral/Source/gd32vw55x_rtc.c **** 
   8:../Firmware/GD32VW55x_standard_peripheral/Source/gd32vw55x_rtc.c **** /*
   9:../Firmware/GD32VW55x_standard_peripheral/Source/gd32vw55x_rtc.c ****     Copyright (c) 2025, GigaDevice Semiconductor Inc.
  10:../Firmware/GD32VW55x_standard_peripheral/Source/gd32vw55x_rtc.c **** 
  11:../Firmware/GD32VW55x_standard_peripheral/Source/gd32vw55x_rtc.c ****     Redistribution and use in source and binary forms, with or without modification,
  12:../Firmware/GD32VW55x_standard_peripheral/Source/gd32vw55x_rtc.c **** are permitted provided that the following conditions are met:
  13:../Firmware/GD32VW55x_standard_peripheral/Source/gd32vw55x_rtc.c **** 
  14:../Firmware/GD32VW55x_standard_peripheral/Source/gd32vw55x_rtc.c ****     1. Redistributions of source code must retain the above copyright notice, this
  15:../Firmware/GD32VW55x_standard_peripheral/Source/gd32vw55x_rtc.c ****        list of conditions and the following disclaimer.
  16:../Firmware/GD32VW55x_standard_peripheral/Source/gd32vw55x_rtc.c ****     2. Redistributions in binary form must reproduce the above copyright notice,
  17:../Firmware/GD32VW55x_standard_peripheral/Source/gd32vw55x_rtc.c ****        this list of conditions and the following disclaimer in the documentation
  18:../Firmware/GD32VW55x_standard_peripheral/Source/gd32vw55x_rtc.c ****        and/or other materials provided with the distribution.
  19:../Firmware/GD32VW55x_standard_peripheral/Source/gd32vw55x_rtc.c ****     3. Neither the name of the copyright holder nor the names of its contributors
  20:../Firmware/GD32VW55x_standard_peripheral/Source/gd32vw55x_rtc.c ****        may be used to endorse or promote products derived from this software without
  21:../Firmware/GD32VW55x_standard_peripheral/Source/gd32vw55x_rtc.c ****        specific prior written permission.
  22:../Firmware/GD32VW55x_standard_peripheral/Source/gd32vw55x_rtc.c **** 
  23:../Firmware/GD32VW55x_standard_peripheral/Source/gd32vw55x_rtc.c ****     THIS SOFTWARE IS PROVIDED BY THE COPYRIGHT HOLDERS AND CONTRIBUTORS "AS IS"
  24:../Firmware/GD32VW55x_standard_peripheral/Source/gd32vw55x_rtc.c **** AND ANY EXPRESS OR IMPLIED WARRANTIES, INCLUDING, BUT NOT LIMITED TO, THE IMPLIED
  25:../Firmware/GD32VW55x_standard_peripheral/Source/gd32vw55x_rtc.c **** WARRANTIES OF MERCHANTABILITY AND FITNESS FOR A PARTICULAR PURPOSE ARE DISCLAIMED.
  26:../Firmware/GD32VW55x_standard_peripheral/Source/gd32vw55x_rtc.c **** IN NO EVENT SHALL THE COPYRIGHT HOLDER OR CONTRIBUTORS BE LIABLE FOR ANY DIRECT,
  27:../Firmware/GD32VW55x_standard_peripheral/Source/gd32vw55x_rtc.c **** INDIRECT, INCIDENTAL, SPECIAL, EXEMPLARY, OR CONSEQUENTIAL DAMAGES (INCLUDING, BUT
  28:../Firmware/GD32VW55x_standard_peripheral/Source/gd32vw55x_rtc.c **** NOT LIMITED TO, PROCUREMENT OF SUBSTITUTE GOODS OR SERVICES; LOSS OF USE, DATA, OR
  29:../Firmware/GD32VW55x_standard_peripheral/Source/gd32vw55x_rtc.c **** PROFITS; OR BUSINESS INTERRUPTION) HOWEVER CAUSED AND ON ANY THEORY OF LIABILITY,
  30:../Firmware/GD32VW55x_standard_peripheral/Source/gd32vw55x_rtc.c **** WHETHER IN CONTRACT, STRICT LIABILITY, OR TORT (INCLUDING NEGLIGENCE OR OTHERWISE)
  31:../Firmware/GD32VW55x_standard_peripheral/Source/gd32vw55x_rtc.c **** ARISING IN ANY WAY OUT OF THE USE OF THIS SOFTWARE, EVEN IF ADVISED OF THE POSSIBILITY
  32:../Firmware/GD32VW55x_standard_peripheral/Source/gd32vw55x_rtc.c **** OF SUCH DAMAGE.
  33:../Firmware/GD32VW55x_standard_peripheral/Source/gd32vw55x_rtc.c **** */
  34:../Firmware/GD32VW55x_standard_peripheral/Source/gd32vw55x_rtc.c **** 
  35:../Firmware/GD32VW55x_standard_peripheral/Source/gd32vw55x_rtc.c **** #include "gd32vw55x_rtc.h"
  36:../Firmware/GD32VW55x_standard_peripheral/Source/gd32vw55x_rtc.c **** 
  37:../Firmware/GD32VW55x_standard_peripheral/Source/gd32vw55x_rtc.c **** /* RTC timeout value */
  38:../Firmware/GD32VW55x_standard_peripheral/Source/gd32vw55x_rtc.c **** #define RTC_WTWF_TIMEOUT                   ((uint32_t)0x00004000U)                    /*!< wakeup t
  39:../Firmware/GD32VW55x_standard_peripheral/Source/gd32vw55x_rtc.c **** #define RTC_INITM_TIMEOUT                  ((uint32_t)0x00008000U)                    /*!< initiali
  40:../Firmware/GD32VW55x_standard_peripheral/Source/gd32vw55x_rtc.c **** #define RTC_RSYNF_TIMEOUT                  ((uint32_t)0x00008000U)                    /*!< register
  41:../Firmware/GD32VW55x_standard_peripheral/Source/gd32vw55x_rtc.c **** #define RTC_HRFC_TIMEOUT                   ((uint32_t)0x20000000U)                    /*!< recalibr
  42:../Firmware/GD32VW55x_standard_peripheral/Source/gd32vw55x_rtc.c **** #define RTC_SHIFTCTL_TIMEOUT               ((uint32_t)0x00001000U)                    /*!< shift fu
  43:../Firmware/GD32VW55x_standard_peripheral/Source/gd32vw55x_rtc.c **** #define RTC_ALRMXWF_TIMEOUT                ((uint32_t)0x00008000U)                    /*!< alarm co
  44:../Firmware/GD32VW55x_standard_peripheral/Source/gd32vw55x_rtc.c **** 
  45:../Firmware/GD32VW55x_standard_peripheral/Source/gd32vw55x_rtc.c **** /*!
  46:../Firmware/GD32VW55x_standard_peripheral/Source/gd32vw55x_rtc.c ****     \brief      reset most of the RTC registers
  47:../Firmware/GD32VW55x_standard_peripheral/Source/gd32vw55x_rtc.c ****     \param[in]  none
  48:../Firmware/GD32VW55x_standard_peripheral/Source/gd32vw55x_rtc.c ****     \param[out] none
  49:../Firmware/GD32VW55x_standard_peripheral/Source/gd32vw55x_rtc.c ****     \retval     ErrStatus: ERROR or SUCCESS
  50:../Firmware/GD32VW55x_standard_peripheral/Source/gd32vw55x_rtc.c **** */
  51:../Firmware/GD32VW55x_standard_peripheral/Source/gd32vw55x_rtc.c **** ErrStatus rtc_deinit(void)
  52:../Firmware/GD32VW55x_standard_peripheral/Source/gd32vw55x_rtc.c **** {
  16              		.loc 1 52 1
  17              		.cfi_startproc
  18 0000 0111     		addi	sp,sp,-32
  19              		.cfi_def_cfa_offset 32
  20 0002 06CE     		sw	ra,28(sp)
  21 0004 22CC     		sw	s0,24(sp)
  22              		.cfi_offset 1, -4
  23              		.cfi_offset 8, -8
  24 0006 0010     		addi	s0,sp,32
  25              		.cfi_def_cfa 8, 0
  53:../Firmware/GD32VW55x_standard_peripheral/Source/gd32vw55x_rtc.c ****     /* After Backup domain reset, some of the RTC registers are write-protected: RTC_TIME, RTC_DATE
  54:../Firmware/GD32VW55x_standard_peripheral/Source/gd32vw55x_rtc.c ****      RTC_HRFC, RTC_COSC, RTC_SHIFTCTL, the bit INITM in RTC_ICS and the bits CS, S1H, A1H, REFEN in
  55:../Firmware/GD32VW55x_standard_peripheral/Source/gd32vw55x_rtc.c ****     ErrStatus error_status = ERROR;
  26              		.loc 1 55 15
  27 0008 232604FE 		sw	zero,-20(s0)
  56:../Firmware/GD32VW55x_standard_peripheral/Source/gd32vw55x_rtc.c ****     volatile uint32_t time_index = RTC_WTWF_TIMEOUT;
  28              		.loc 1 56 23
  29 000c 9167     		li	a5,16384
  30 000e 2322F4FE 		sw	a5,-28(s0)
  57:../Firmware/GD32VW55x_standard_peripheral/Source/gd32vw55x_rtc.c ****     uint32_t flag_status = RESET;
  31              		.loc 1 57 14
  32 0012 232404FE 		sw	zero,-24(s0)
  58:../Firmware/GD32VW55x_standard_peripheral/Source/gd32vw55x_rtc.c ****     /* RTC_TAMP register is not under write protection */
  59:../Firmware/GD32VW55x_standard_peripheral/Source/gd32vw55x_rtc.c ****     RTC_TAMP = RTC_REGISTER_RESET;
  33              		.loc 1 59 5
  34 0016 B7370040 		li	a5,1073754112
  35 001a 93870784 		addi	a5,a5,-1984
  36              		.loc 1 59 14
  37 001e 23A00700 		sw	zero,0(a5)
  60:../Firmware/GD32VW55x_standard_peripheral/Source/gd32vw55x_rtc.c **** 
  61:../Firmware/GD32VW55x_standard_peripheral/Source/gd32vw55x_rtc.c ****     /* rtc alarmx related registers are not under the protection of RTC_WPK, different from former 
  62:../Firmware/GD32VW55x_standard_peripheral/Source/gd32vw55x_rtc.c ****     RTC_CTL &= ((uint32_t)~(RTC_CTL_ALRM0EN | RTC_CTL_ALRM1EN));
  38              		.loc 1 62 13
  39 0022 B7370040 		li	a5,1073754112
  40 0026 93878780 		addi	a5,a5,-2040
  41 002a 9843     		lw	a4,0(a5)
  42 002c B7370040 		li	a5,1073754112
  43 0030 93878780 		addi	a5,a5,-2040
  44 0034 1377F7CF 		andi	a4,a4,-769
  45 0038 98C3     		sw	a4,0(a5)
  63:../Firmware/GD32VW55x_standard_peripheral/Source/gd32vw55x_rtc.c ****     /* to write RTC_ALRMxTD and RTC_ALRMxSS register, 1  ALRMxEN bit in RTC_CTL register should be 
  64:../Firmware/GD32VW55x_standard_peripheral/Source/gd32vw55x_rtc.c ****       2 or in INIT mode */
  65:../Firmware/GD32VW55x_standard_peripheral/Source/gd32vw55x_rtc.c ****     RTC_ALRM0TD = RTC_REGISTER_RESET;
  46              		.loc 1 65 5
  47 003a B7370040 		li	a5,1073754112
  48 003e 9387C781 		addi	a5,a5,-2020
  49              		.loc 1 65 17
  50 0042 23A00700 		sw	zero,0(a5)
  66:../Firmware/GD32VW55x_standard_peripheral/Source/gd32vw55x_rtc.c ****     RTC_ALRM1TD = RTC_REGISTER_RESET;
  51              		.loc 1 66 5
  52 0046 B7370040 		li	a5,1073754112
  53 004a 93870782 		addi	a5,a5,-2016
  54              		.loc 1 66 17
  55 004e 23A00700 		sw	zero,0(a5)
  67:../Firmware/GD32VW55x_standard_peripheral/Source/gd32vw55x_rtc.c ****     RTC_ALRM0SS = RTC_REGISTER_RESET;
  56              		.loc 1 67 5
  57 0052 B7370040 		li	a5,1073754112
  58 0056 93874784 		addi	a5,a5,-1980
  59              		.loc 1 67 17
  60 005a 23A00700 		sw	zero,0(a5)
  68:../Firmware/GD32VW55x_standard_peripheral/Source/gd32vw55x_rtc.c ****     RTC_ALRM1SS = RTC_REGISTER_RESET;
  61              		.loc 1 68 5
  62 005e B7370040 		li	a5,1073754112
  63 0062 93878784 		addi	a5,a5,-1976
  64              		.loc 1 68 17
  65 0066 23A00700 		sw	zero,0(a5)
  69:../Firmware/GD32VW55x_standard_peripheral/Source/gd32vw55x_rtc.c **** 
  70:../Firmware/GD32VW55x_standard_peripheral/Source/gd32vw55x_rtc.c ****     /* 1 only when RTC_CTL_WTEN=0 and RTC_ICS_WTWF=1 can write RTC_CTL[2:0]
  71:../Firmware/GD32VW55x_standard_peripheral/Source/gd32vw55x_rtc.c ****        2 or configure the wakeup timer in INIT mode*/
  72:../Firmware/GD32VW55x_standard_peripheral/Source/gd32vw55x_rtc.c ****     RTC_CTL &= ((uint32_t)~RTC_CTL_WTEN);
  66              		.loc 1 72 13
  67 006a B7370040 		li	a5,1073754112
  68 006e 93878780 		addi	a5,a5,-2040
  69 0072 9843     		lw	a4,0(a5)
  70 0074 B7370040 		li	a5,1073754112
  71 0078 93878780 		addi	a5,a5,-2040
  72 007c 1377F7BF 		andi	a4,a4,-1025
  73 0080 98C3     		sw	a4,0(a5)
  74              	.L3:
  73:../Firmware/GD32VW55x_standard_peripheral/Source/gd32vw55x_rtc.c ****     /* wait until the WTWF flag to be set */
  74:../Firmware/GD32VW55x_standard_peripheral/Source/gd32vw55x_rtc.c ****     do {
  75:../Firmware/GD32VW55x_standard_peripheral/Source/gd32vw55x_rtc.c ****         flag_status = RTC_STAT & RTC_STAT_WTWF;
  75              		.loc 1 75 23 discriminator 2
  76 0082 B7370040 		li	a5,1073754112
  77 0086 9387C780 		addi	a5,a5,-2036
  78 008a 9C43     		lw	a5,0(a5)
  79              		.loc 1 75 21 discriminator 2
  80 008c 918B     		andi	a5,a5,4
  81 008e 2324F4FE 		sw	a5,-24(s0)
  76:../Firmware/GD32VW55x_standard_peripheral/Source/gd32vw55x_rtc.c ****     } while((--time_index > 0U) && ((uint32_t)RESET == flag_status));
  82              		.loc 1 76 14 discriminator 2
  83 0092 832744FE 		lw	a5,-28(s0)
  84 0096 FD17     		addi	a5,a5,-1
  85              		.loc 1 76 5 discriminator 2
  86 0098 2322F4FE 		sw	a5,-28(s0)
  87 009c 81C7     		beq	a5,zero,.L2
  88              		.loc 1 76 33 discriminator 1
  89 009e 832784FE 		lw	a5,-24(s0)
  90 00a2 E5D3     		beq	a5,zero,.L3
  91              	.L2:
  77:../Firmware/GD32VW55x_standard_peripheral/Source/gd32vw55x_rtc.c **** 
  78:../Firmware/GD32VW55x_standard_peripheral/Source/gd32vw55x_rtc.c ****     if((uint32_t)RESET == flag_status) {
  92              		.loc 1 78 7
  93 00a4 832784FE 		lw	a5,-24(s0)
  94 00a8 81E7     		bne	a5,zero,.L4
  79:../Firmware/GD32VW55x_standard_peripheral/Source/gd32vw55x_rtc.c ****         error_status = ERROR;
  95              		.loc 1 79 22
  96 00aa 232604FE 		sw	zero,-20(s0)
  97 00ae C9A8     		j	.L5
  98              	.L4:
  80:../Firmware/GD32VW55x_standard_peripheral/Source/gd32vw55x_rtc.c ****     } else {
  81:../Firmware/GD32VW55x_standard_peripheral/Source/gd32vw55x_rtc.c ****         RTC_CTL &= ((uint32_t)~RTC_CTL_WTCS);
  99              		.loc 1 81 17
 100 00b0 B7370040 		li	a5,1073754112
 101 00b4 93878780 		addi	a5,a5,-2040
 102 00b8 9843     		lw	a4,0(a5)
 103 00ba B7370040 		li	a5,1073754112
 104 00be 93878780 		addi	a5,a5,-2040
 105 00c2 619B     		andi	a4,a4,-8
 106 00c4 98C3     		sw	a4,0(a5)
  82:../Firmware/GD32VW55x_standard_peripheral/Source/gd32vw55x_rtc.c ****         RTC_WUT = RTC_WUT_RESET;
 107              		.loc 1 82 9
 108 00c6 B7370040 		li	a5,1073754112
 109 00ca 93874781 		addi	a5,a5,-2028
 110              		.loc 1 82 17
 111 00ce 4167     		li	a4,65536
 112 00d0 7D17     		addi	a4,a4,-1
 113 00d2 98C3     		sw	a4,0(a5)
  83:../Firmware/GD32VW55x_standard_peripheral/Source/gd32vw55x_rtc.c **** 
  84:../Firmware/GD32VW55x_standard_peripheral/Source/gd32vw55x_rtc.c ****         /* disable the write protection */
  85:../Firmware/GD32VW55x_standard_peripheral/Source/gd32vw55x_rtc.c ****         RTC_WPK = RTC_UNLOCK_KEY1;
 114              		.loc 1 85 9
 115 00d4 B7370040 		li	a5,1073754112
 116 00d8 93874782 		addi	a5,a5,-2012
 117              		.loc 1 85 17
 118 00dc 1307A00C 		li	a4,202
 119 00e0 98C3     		sw	a4,0(a5)
  86:../Firmware/GD32VW55x_standard_peripheral/Source/gd32vw55x_rtc.c ****         RTC_WPK = RTC_UNLOCK_KEY2;
 120              		.loc 1 86 9
 121 00e2 B7370040 		li	a5,1073754112
 122 00e6 93874782 		addi	a5,a5,-2012
 123              		.loc 1 86 17
 124 00ea 13073005 		li	a4,83
 125 00ee 98C3     		sw	a4,0(a5)
  87:../Firmware/GD32VW55x_standard_peripheral/Source/gd32vw55x_rtc.c **** 
  88:../Firmware/GD32VW55x_standard_peripheral/Source/gd32vw55x_rtc.c ****         /* enter init mode */
  89:../Firmware/GD32VW55x_standard_peripheral/Source/gd32vw55x_rtc.c ****         error_status = rtc_init_mode_enter();
 126              		.loc 1 89 24
 127 00f0 97000000 		call	rtc_init_mode_enter
 127      E7800000 
 128 00f8 2326A4FE 		sw	a0,-20(s0)
  90:../Firmware/GD32VW55x_standard_peripheral/Source/gd32vw55x_rtc.c ****         /* RTC_TIME, RTC_DATE, RTC_PSC registers, plus INITM in RTC_ICS, plus CS control bits in RT
  91:../Firmware/GD32VW55x_standard_peripheral/Source/gd32vw55x_rtc.c ****         RTC_CTL = RTC_REGISTER_RESET;
 129              		.loc 1 91 9
 130 00fc B7370040 		li	a5,1073754112
 131 0100 93878780 		addi	a5,a5,-2040
 132              		.loc 1 91 17
 133 0104 23A00700 		sw	zero,0(a5)
  92:../Firmware/GD32VW55x_standard_peripheral/Source/gd32vw55x_rtc.c **** 
  93:../Firmware/GD32VW55x_standard_peripheral/Source/gd32vw55x_rtc.c ****         /* before reset RTC_TIME and RTC_DATE, BPSHAD bit in RTC_CTL should be reset as the conditi
  94:../Firmware/GD32VW55x_standard_peripheral/Source/gd32vw55x_rtc.c ****            in order to read calendar from shadow register, not the real registers being reset */
  95:../Firmware/GD32VW55x_standard_peripheral/Source/gd32vw55x_rtc.c ****         RTC_TIME = RTC_REGISTER_RESET;
 134              		.loc 1 95 9
 135 0108 B7370040 		li	a5,1073754112
 136 010c 93870780 		addi	a5,a5,-2048
 137              		.loc 1 95 18
 138 0110 23A00700 		sw	zero,0(a5)
  96:../Firmware/GD32VW55x_standard_peripheral/Source/gd32vw55x_rtc.c ****         RTC_DATE = RTC_DATE_RESET;
 139              		.loc 1 96 9
 140 0114 B7370040 		li	a5,1073754112
 141 0118 93874780 		addi	a5,a5,-2044
 142              		.loc 1 96 18
 143 011c 0967     		li	a4,8192
 144 011e 13071710 		addi	a4,a4,257
 145 0122 98C3     		sw	a4,0(a5)
  97:../Firmware/GD32VW55x_standard_peripheral/Source/gd32vw55x_rtc.c ****         RTC_PSC = RTC_PSC_RESET;
 146              		.loc 1 97 9
 147 0124 B7370040 		li	a5,1073754112
 148 0128 93870781 		addi	a5,a5,-2032
 149              		.loc 1 97 17
 150 012c 37077F00 		li	a4,8323072
 151 0130 1307F70F 		addi	a4,a4,255
 152 0134 98C3     		sw	a4,0(a5)
  98:../Firmware/GD32VW55x_standard_peripheral/Source/gd32vw55x_rtc.c ****         /* write protected and can only be written in initialization state */
  99:../Firmware/GD32VW55x_standard_peripheral/Source/gd32vw55x_rtc.c ****         RTC_COSC = RTC_REGISTER_RESET;
 153              		.loc 1 99 9
 154 0136 B7370040 		li	a5,1073754112
 155 013a 93878781 		addi	a5,a5,-2024
 156              		.loc 1 99 18
 157 013e 23A00700 		sw	zero,0(a5)
 100:../Firmware/GD32VW55x_standard_peripheral/Source/gd32vw55x_rtc.c ****         /* reset RTC_ICS register, also exit init mode.
 101:../Firmware/GD32VW55x_standard_peripheral/Source/gd32vw55x_rtc.c ****            at the same time, RTC_ICS_SOPF bit is reset, as the condition to reset RTC_SHIFTCTL regi
 102:../Firmware/GD32VW55x_standard_peripheral/Source/gd32vw55x_rtc.c ****         RTC_STAT = RTC_STAT_RESET;
 158              		.loc 1 102 9
 159 0142 B7370040 		li	a5,1073754112
 160 0146 9387C780 		addi	a5,a5,-2036
 161              		.loc 1 102 18
 162 014a 23A00700 		sw	zero,0(a5)
 103:../Firmware/GD32VW55x_standard_peripheral/Source/gd32vw55x_rtc.c ****         /* reset RTC_SHIFTCTL and RTC_HRFC register, and the bits S1H, A1H, REFEN in RTC_CTL, these
 104:../Firmware/GD32VW55x_standard_peripheral/Source/gd32vw55x_rtc.c ****         RTC_SHIFTCTL = RTC_REGISTER_RESET;
 163              		.loc 1 104 9
 164 014e B7370040 		li	a5,1073754112
 165 0152 9387C782 		addi	a5,a5,-2004
 166              		.loc 1 104 22
 167 0156 23A00700 		sw	zero,0(a5)
 105:../Firmware/GD32VW55x_standard_peripheral/Source/gd32vw55x_rtc.c ****         RTC_HRFC = RTC_REGISTER_RESET;
 168              		.loc 1 105 9
 169 015a B7370040 		li	a5,1073754112
 170 015e 9387C783 		addi	a5,a5,-1988
 171              		.loc 1 105 18
 172 0162 23A00700 		sw	zero,0(a5)
 106:../Firmware/GD32VW55x_standard_peripheral/Source/gd32vw55x_rtc.c **** 
 107:../Firmware/GD32VW55x_standard_peripheral/Source/gd32vw55x_rtc.c ****         error_status = rtc_register_sync_wait();
 173              		.loc 1 107 24
 174 0166 97000000 		call	rtc_register_sync_wait
 174      E7800000 
 175 016e 2326A4FE 		sw	a0,-20(s0)
 108:../Firmware/GD32VW55x_standard_peripheral/Source/gd32vw55x_rtc.c **** 
 109:../Firmware/GD32VW55x_standard_peripheral/Source/gd32vw55x_rtc.c ****         /* enable the write protection */
 110:../Firmware/GD32VW55x_standard_peripheral/Source/gd32vw55x_rtc.c ****         RTC_WPK = RTC_LOCK_KEY;
 176              		.loc 1 110 9
 177 0172 B7370040 		li	a5,1073754112
 178 0176 93874782 		addi	a5,a5,-2012
 179              		.loc 1 110 17
 180 017a 1307F00F 		li	a4,255
 181 017e 98C3     		sw	a4,0(a5)
 182              	.L5:
 111:../Firmware/GD32VW55x_standard_peripheral/Source/gd32vw55x_rtc.c **** 
 112:../Firmware/GD32VW55x_standard_peripheral/Source/gd32vw55x_rtc.c ****     }
 113:../Firmware/GD32VW55x_standard_peripheral/Source/gd32vw55x_rtc.c ****     return error_status;
 183              		.loc 1 113 12
 184 0180 8327C4FE 		lw	a5,-20(s0)
 114:../Firmware/GD32VW55x_standard_peripheral/Source/gd32vw55x_rtc.c **** }
 185              		.loc 1 114 1
 186 0184 3E85     		mv	a0,a5
 187 0186 F240     		lw	ra,28(sp)
 188              		.cfi_restore 1
 189 0188 6244     		lw	s0,24(sp)
 190              		.cfi_restore 8
 191              		.cfi_def_cfa 2, 32
 192 018a 0561     		addi	sp,sp,32
 193              		.cfi_def_cfa_offset 0
 194 018c 8280     		jr	ra
 195              		.cfi_endproc
 196              	.LFE347:
 198              		.section	.text.rtc_init,"ax",@progbits
 199              		.align	1
 200              		.globl	rtc_init
 202              	rtc_init:
 203              	.LFB348:
 115:../Firmware/GD32VW55x_standard_peripheral/Source/gd32vw55x_rtc.c **** 
 116:../Firmware/GD32VW55x_standard_peripheral/Source/gd32vw55x_rtc.c **** /*!
 117:../Firmware/GD32VW55x_standard_peripheral/Source/gd32vw55x_rtc.c ****     \brief      initialize RTC registers
 118:../Firmware/GD32VW55x_standard_peripheral/Source/gd32vw55x_rtc.c ****     \param[in]  rtc_initpara_struct: pointer to a rtc_parameter_struct structure which contains
 119:../Firmware/GD32VW55x_standard_peripheral/Source/gd32vw55x_rtc.c ****                 parameters for initialization of the rtc peripheral
 120:../Firmware/GD32VW55x_standard_peripheral/Source/gd32vw55x_rtc.c ****                 members of the structure and the member values are shown as below:
 121:../Firmware/GD32VW55x_standard_peripheral/Source/gd32vw55x_rtc.c ****                   year: 0x0 - 0x99(BCD format)
 122:../Firmware/GD32VW55x_standard_peripheral/Source/gd32vw55x_rtc.c ****                   month: RTC_JAN, RTC_FEB, RTC_MAR, RTC_APR, RTC_MAY, RTC_JUN,
 123:../Firmware/GD32VW55x_standard_peripheral/Source/gd32vw55x_rtc.c ****                              RTC_JUL, RTC_AUG, RTC_SEP, RTC_OCT, RTC_NOV, RTC_DEC
 124:../Firmware/GD32VW55x_standard_peripheral/Source/gd32vw55x_rtc.c ****                   date: 0x1 - 0x31(BCD format)
 125:../Firmware/GD32VW55x_standard_peripheral/Source/gd32vw55x_rtc.c ****                   day_of_week: RTC_MONDAY, RTC_TUESDAY, RTC_WEDNESDAY, RTC_THURSDAY
 126:../Firmware/GD32VW55x_standard_peripheral/Source/gd32vw55x_rtc.c ****                                    RTC_FRIDAY, RTC_SATURDAY, RTC_SUNDAY
 127:../Firmware/GD32VW55x_standard_peripheral/Source/gd32vw55x_rtc.c ****                   hour: 0x0 - 0x12(BCD format) or 0x0 - 0x23(BCD format) depending on the rtc displ
 128:../Firmware/GD32VW55x_standard_peripheral/Source/gd32vw55x_rtc.c ****                   minute: 0x0 - 0x59(BCD format)
 129:../Firmware/GD32VW55x_standard_peripheral/Source/gd32vw55x_rtc.c ****                   second: 0x0 - 0x59(BCD format)
 130:../Firmware/GD32VW55x_standard_peripheral/Source/gd32vw55x_rtc.c ****                   factor_asyn: 0x0 - 0x7F
 131:../Firmware/GD32VW55x_standard_peripheral/Source/gd32vw55x_rtc.c ****                   factor_syn: 0x0 - 0x7FFF
 132:../Firmware/GD32VW55x_standard_peripheral/Source/gd32vw55x_rtc.c ****                   am_pm: RTC_AM, RTC_PM
 133:../Firmware/GD32VW55x_standard_peripheral/Source/gd32vw55x_rtc.c ****                   display_format: RTC_24HOUR, RTC_12HOUR
 134:../Firmware/GD32VW55x_standard_peripheral/Source/gd32vw55x_rtc.c ****     \param[out] none
 135:../Firmware/GD32VW55x_standard_peripheral/Source/gd32vw55x_rtc.c ****     \retval     ErrStatus: ERROR or SUCCESS
 136:../Firmware/GD32VW55x_standard_peripheral/Source/gd32vw55x_rtc.c **** */
 137:../Firmware/GD32VW55x_standard_peripheral/Source/gd32vw55x_rtc.c **** ErrStatus rtc_init(rtc_parameter_struct *rtc_initpara_struct)
 138:../Firmware/GD32VW55x_standard_peripheral/Source/gd32vw55x_rtc.c **** {
 204              		.loc 1 138 1
 205              		.cfi_startproc
 206 0000 7971     		addi	sp,sp,-48
 207              		.cfi_def_cfa_offset 48
 208 0002 06D6     		sw	ra,44(sp)
 209 0004 22D4     		sw	s0,40(sp)
 210              		.cfi_offset 1, -4
 211              		.cfi_offset 8, -8
 212 0006 0018     		addi	s0,sp,48
 213              		.cfi_def_cfa 8, 0
 214 0008 232EA4FC 		sw	a0,-36(s0)
 139:../Firmware/GD32VW55x_standard_peripheral/Source/gd32vw55x_rtc.c ****     ErrStatus error_status = ERROR;
 215              		.loc 1 139 15
 216 000c 232604FE 		sw	zero,-20(s0)
 140:../Firmware/GD32VW55x_standard_peripheral/Source/gd32vw55x_rtc.c ****     uint32_t reg_time = 0U, reg_date = 0U;
 217              		.loc 1 140 14
 218 0010 232404FE 		sw	zero,-24(s0)
 219              		.loc 1 140 29
 220 0014 232204FE 		sw	zero,-28(s0)
 141:../Firmware/GD32VW55x_standard_peripheral/Source/gd32vw55x_rtc.c **** 
 142:../Firmware/GD32VW55x_standard_peripheral/Source/gd32vw55x_rtc.c ****     reg_date = (DATE_YR(rtc_initpara_struct->year) | \
 221              		.loc 1 142 17
 222 0018 8327C4FD 		lw	a5,-36(s0)
 223 001c 83C70700 		lbu	a5,0(a5)
 224 0020 13970701 		slli	a4,a5,16
 225 0024 B707FF00 		li	a5,16711680
 226 0028 7D8F     		and	a4,a4,a5
 143:../Firmware/GD32VW55x_standard_peripheral/Source/gd32vw55x_rtc.c ****                 DATE_DOW(rtc_initpara_struct->day_of_week) | \
 227              		.loc 1 143 17
 228 002a 8327C4FD 		lw	a5,-36(s0)
 229 002e 83C73700 		lbu	a5,3(a5)
 230 0032 9396D700 		slli	a3,a5,13
 231 0036 C167     		li	a5,65536
 232 0038 FD17     		addi	a5,a5,-1
 233 003a F58F     		and	a5,a3,a5
 142:../Firmware/GD32VW55x_standard_peripheral/Source/gd32vw55x_rtc.c ****                 DATE_DOW(rtc_initpara_struct->day_of_week) | \
 234              		.loc 1 142 52
 235 003c 5D8F     		or	a4,a4,a5
 144:../Firmware/GD32VW55x_standard_peripheral/Source/gd32vw55x_rtc.c ****                 DATE_MON(rtc_initpara_struct->month) | \
 236              		.loc 1 144 17
 237 003e 8327C4FD 		lw	a5,-36(s0)
 238 0042 83C71700 		lbu	a5,1(a5)
 239 0046 93968700 		slli	a3,a5,8
 240 004a 8967     		li	a5,8192
 241 004c 938707F0 		addi	a5,a5,-256
 242 0050 F58F     		and	a5,a3,a5
 143:../Firmware/GD32VW55x_standard_peripheral/Source/gd32vw55x_rtc.c ****                 DATE_DOW(rtc_initpara_struct->day_of_week) | \
 243              		.loc 1 143 60
 244 0052 5D8F     		or	a4,a4,a5
 145:../Firmware/GD32VW55x_standard_peripheral/Source/gd32vw55x_rtc.c ****                 DATE_DAY(rtc_initpara_struct->date));
 245              		.loc 1 145 17
 246 0054 8327C4FD 		lw	a5,-36(s0)
 247 0058 83C72700 		lbu	a5,2(a5)
 248 005c 93F7F703 		andi	a5,a5,63
 142:../Firmware/GD32VW55x_standard_peripheral/Source/gd32vw55x_rtc.c ****                 DATE_DOW(rtc_initpara_struct->day_of_week) | \
 249              		.loc 1 142 14
 250 0060 D98F     		or	a5,a4,a5
 251 0062 2322F4FE 		sw	a5,-28(s0)
 146:../Firmware/GD32VW55x_standard_peripheral/Source/gd32vw55x_rtc.c **** 
 147:../Firmware/GD32VW55x_standard_peripheral/Source/gd32vw55x_rtc.c ****     reg_time = (rtc_initpara_struct->am_pm | \
 252              		.loc 1 147 36
 253 0066 8327C4FD 		lw	a5,-36(s0)
 254 006a D847     		lw	a4,12(a5)
 148:../Firmware/GD32VW55x_standard_peripheral/Source/gd32vw55x_rtc.c ****                 TIME_HR(rtc_initpara_struct->hour)  | \
 255              		.loc 1 148 17
 256 006c 8327C4FD 		lw	a5,-36(s0)
 257 0070 83C74700 		lbu	a5,4(a5)
 258 0074 93960701 		slli	a3,a5,16
 259 0078 B7073F00 		li	a5,4128768
 260 007c F58F     		and	a5,a3,a5
 147:../Firmware/GD32VW55x_standard_peripheral/Source/gd32vw55x_rtc.c ****                 TIME_HR(rtc_initpara_struct->hour)  | \
 261              		.loc 1 147 44
 262 007e 5D8F     		or	a4,a4,a5
 149:../Firmware/GD32VW55x_standard_peripheral/Source/gd32vw55x_rtc.c ****                 TIME_MN(rtc_initpara_struct->minute) | \
 263              		.loc 1 149 17
 264 0080 8327C4FD 		lw	a5,-36(s0)
 265 0084 83C75700 		lbu	a5,5(a5)
 266 0088 93968700 		slli	a3,a5,8
 267 008c A167     		li	a5,32768
 268 008e 938707F0 		addi	a5,a5,-256
 269 0092 F58F     		and	a5,a3,a5
 148:../Firmware/GD32VW55x_standard_peripheral/Source/gd32vw55x_rtc.c ****                 TIME_HR(rtc_initpara_struct->hour)  | \
 270              		.loc 1 148 53
 271 0094 5D8F     		or	a4,a4,a5
 150:../Firmware/GD32VW55x_standard_peripheral/Source/gd32vw55x_rtc.c ****                 TIME_SC(rtc_initpara_struct->second));
 272              		.loc 1 150 17
 273 0096 8327C4FD 		lw	a5,-36(s0)
 274 009a 83C76700 		lbu	a5,6(a5)
 275 009e 93F7F707 		andi	a5,a5,127
 147:../Firmware/GD32VW55x_standard_peripheral/Source/gd32vw55x_rtc.c ****                 TIME_HR(rtc_initpara_struct->hour)  | \
 276              		.loc 1 147 14
 277 00a2 D98F     		or	a5,a4,a5
 278 00a4 2324F4FE 		sw	a5,-24(s0)
 151:../Firmware/GD32VW55x_standard_peripheral/Source/gd32vw55x_rtc.c **** 
 152:../Firmware/GD32VW55x_standard_peripheral/Source/gd32vw55x_rtc.c ****     /* 1st: disable the write protection */
 153:../Firmware/GD32VW55x_standard_peripheral/Source/gd32vw55x_rtc.c ****     RTC_WPK = RTC_UNLOCK_KEY1;
 279              		.loc 1 153 5
 280 00a8 B7370040 		li	a5,1073754112
 281 00ac 93874782 		addi	a5,a5,-2012
 282              		.loc 1 153 13
 283 00b0 1307A00C 		li	a4,202
 284 00b4 98C3     		sw	a4,0(a5)
 154:../Firmware/GD32VW55x_standard_peripheral/Source/gd32vw55x_rtc.c ****     RTC_WPK = RTC_UNLOCK_KEY2;
 285              		.loc 1 154 5
 286 00b6 B7370040 		li	a5,1073754112
 287 00ba 93874782 		addi	a5,a5,-2012
 288              		.loc 1 154 13
 289 00be 13073005 		li	a4,83
 290 00c2 98C3     		sw	a4,0(a5)
 155:../Firmware/GD32VW55x_standard_peripheral/Source/gd32vw55x_rtc.c **** 
 156:../Firmware/GD32VW55x_standard_peripheral/Source/gd32vw55x_rtc.c ****     /* 2nd: enter init mode */
 157:../Firmware/GD32VW55x_standard_peripheral/Source/gd32vw55x_rtc.c ****     error_status = rtc_init_mode_enter();
 291              		.loc 1 157 20
 292 00c4 97000000 		call	rtc_init_mode_enter
 292      E7800000 
 293 00cc 2326A4FE 		sw	a0,-20(s0)
 158:../Firmware/GD32VW55x_standard_peripheral/Source/gd32vw55x_rtc.c **** 
 159:../Firmware/GD32VW55x_standard_peripheral/Source/gd32vw55x_rtc.c ****     if(ERROR != error_status) {
 294              		.loc 1 159 7
 295 00d0 8327C4FE 		lw	a5,-20(s0)
 296 00d4 D9CB     		beq	a5,zero,.L8
 160:../Firmware/GD32VW55x_standard_peripheral/Source/gd32vw55x_rtc.c ****         RTC_PSC = (uint32_t)(PSC_FACTOR_A(rtc_initpara_struct->factor_asyn) | \
 297              		.loc 1 160 30
 298 00d6 8327C4FD 		lw	a5,-36(s0)
 299 00da 83D78700 		lhu	a5,8(a5)
 300 00de 13970701 		slli	a4,a5,16
 301 00e2 B7077F00 		li	a5,8323072
 302 00e6 B376F700 		and	a3,a4,a5
 161:../Firmware/GD32VW55x_standard_peripheral/Source/gd32vw55x_rtc.c ****                              PSC_FACTOR_S(rtc_initpara_struct->factor_syn));
 303              		.loc 1 161 30
 304 00ea 8327C4FD 		lw	a5,-36(s0)
 305 00ee 83D7A700 		lhu	a5,10(a5)
 306 00f2 3E87     		mv	a4,a5
 307 00f4 A167     		li	a5,32768
 308 00f6 FD17     		addi	a5,a5,-1
 309 00f8 7D8F     		and	a4,a4,a5
 160:../Firmware/GD32VW55x_standard_peripheral/Source/gd32vw55x_rtc.c ****         RTC_PSC = (uint32_t)(PSC_FACTOR_A(rtc_initpara_struct->factor_asyn) | \
 310              		.loc 1 160 9
 311 00fa B7370040 		li	a5,1073754112
 312 00fe 93870781 		addi	a5,a5,-2032
 160:../Firmware/GD32VW55x_standard_peripheral/Source/gd32vw55x_rtc.c ****         RTC_PSC = (uint32_t)(PSC_FACTOR_A(rtc_initpara_struct->factor_asyn) | \
 313              		.loc 1 160 19
 314 0102 558F     		or	a4,a3,a4
 160:../Firmware/GD32VW55x_standard_peripheral/Source/gd32vw55x_rtc.c ****         RTC_PSC = (uint32_t)(PSC_FACTOR_A(rtc_initpara_struct->factor_asyn) | \
 315              		.loc 1 160 17
 316 0104 98C3     		sw	a4,0(a5)
 162:../Firmware/GD32VW55x_standard_peripheral/Source/gd32vw55x_rtc.c **** 
 163:../Firmware/GD32VW55x_standard_peripheral/Source/gd32vw55x_rtc.c ****         RTC_TIME = (uint32_t)reg_time;
 317              		.loc 1 163 9
 318 0106 B7370040 		li	a5,1073754112
 319 010a 93870780 		addi	a5,a5,-2048
 320              		.loc 1 163 18
 321 010e 032784FE 		lw	a4,-24(s0)
 322 0112 98C3     		sw	a4,0(a5)
 164:../Firmware/GD32VW55x_standard_peripheral/Source/gd32vw55x_rtc.c ****         RTC_DATE = (uint32_t)reg_date;
 323              		.loc 1 164 9
 324 0114 B7370040 		li	a5,1073754112
 325 0118 93874780 		addi	a5,a5,-2044
 326              		.loc 1 164 18
 327 011c 032744FE 		lw	a4,-28(s0)
 328 0120 98C3     		sw	a4,0(a5)
 165:../Firmware/GD32VW55x_standard_peripheral/Source/gd32vw55x_rtc.c **** 
 166:../Firmware/GD32VW55x_standard_peripheral/Source/gd32vw55x_rtc.c ****         RTC_CTL &= (uint32_t)(~RTC_CTL_CS);
 329              		.loc 1 166 17
 330 0122 B7370040 		li	a5,1073754112
 331 0126 93878780 		addi	a5,a5,-2040
 332 012a 9843     		lw	a4,0(a5)
 333 012c B7370040 		li	a5,1073754112
 334 0130 93878780 		addi	a5,a5,-2040
 335 0134 1377F7FB 		andi	a4,a4,-65
 336 0138 98C3     		sw	a4,0(a5)
 167:../Firmware/GD32VW55x_standard_peripheral/Source/gd32vw55x_rtc.c ****         RTC_CTL |=  rtc_initpara_struct->display_format;
 337              		.loc 1 167 17
 338 013a B7370040 		li	a5,1073754112
 339 013e 93878780 		addi	a5,a5,-2040
 340 0142 9443     		lw	a3,0(a5)
 341              		.loc 1 167 40
 342 0144 8327C4FD 		lw	a5,-36(s0)
 343 0148 984B     		lw	a4,16(a5)
 344              		.loc 1 167 17
 345 014a B7370040 		li	a5,1073754112
 346 014e 93878780 		addi	a5,a5,-2040
 347 0152 558F     		or	a4,a3,a4
 348 0154 98C3     		sw	a4,0(a5)
 168:../Firmware/GD32VW55x_standard_peripheral/Source/gd32vw55x_rtc.c **** 
 169:../Firmware/GD32VW55x_standard_peripheral/Source/gd32vw55x_rtc.c ****         /* 3rd: exit init mode */
 170:../Firmware/GD32VW55x_standard_peripheral/Source/gd32vw55x_rtc.c ****         rtc_init_mode_exit();
 349              		.loc 1 170 9
 350 0156 97000000 		call	rtc_init_mode_exit
 350      E7800000 
 171:../Firmware/GD32VW55x_standard_peripheral/Source/gd32vw55x_rtc.c **** 
 172:../Firmware/GD32VW55x_standard_peripheral/Source/gd32vw55x_rtc.c ****         /* 4th: wait the RSYNF flag to set */
 173:../Firmware/GD32VW55x_standard_peripheral/Source/gd32vw55x_rtc.c ****         error_status = rtc_register_sync_wait();
 351              		.loc 1 173 24
 352 015e 97000000 		call	rtc_register_sync_wait
 352      E7800000 
 353 0166 2326A4FE 		sw	a0,-20(s0)
 354              	.L8:
 174:../Firmware/GD32VW55x_standard_peripheral/Source/gd32vw55x_rtc.c ****     }
 175:../Firmware/GD32VW55x_standard_peripheral/Source/gd32vw55x_rtc.c **** 
 176:../Firmware/GD32VW55x_standard_peripheral/Source/gd32vw55x_rtc.c ****     /* 5th:  enable the write protection */
 177:../Firmware/GD32VW55x_standard_peripheral/Source/gd32vw55x_rtc.c ****     RTC_WPK = RTC_LOCK_KEY;
 355              		.loc 1 177 5
 356 016a B7370040 		li	a5,1073754112
 357 016e 93874782 		addi	a5,a5,-2012
 358              		.loc 1 177 13
 359 0172 1307F00F 		li	a4,255
 360 0176 98C3     		sw	a4,0(a5)
 178:../Firmware/GD32VW55x_standard_peripheral/Source/gd32vw55x_rtc.c **** 
 179:../Firmware/GD32VW55x_standard_peripheral/Source/gd32vw55x_rtc.c ****     return error_status;
 361              		.loc 1 179 12
 362 0178 8327C4FE 		lw	a5,-20(s0)
 180:../Firmware/GD32VW55x_standard_peripheral/Source/gd32vw55x_rtc.c **** }
 363              		.loc 1 180 1
 364 017c 3E85     		mv	a0,a5
 365 017e B250     		lw	ra,44(sp)
 366              		.cfi_restore 1
 367 0180 2254     		lw	s0,40(sp)
 368              		.cfi_restore 8
 369              		.cfi_def_cfa 2, 48
 370 0182 4561     		addi	sp,sp,48
 371              		.cfi_def_cfa_offset 0
 372 0184 8280     		jr	ra
 373              		.cfi_endproc
 374              	.LFE348:
 376              		.section	.text.rtc_init_mode_enter,"ax",@progbits
 377              		.align	1
 378              		.globl	rtc_init_mode_enter
 380              	rtc_init_mode_enter:
 381              	.LFB349:
 181:../Firmware/GD32VW55x_standard_peripheral/Source/gd32vw55x_rtc.c **** 
 182:../Firmware/GD32VW55x_standard_peripheral/Source/gd32vw55x_rtc.c **** /*!
 183:../Firmware/GD32VW55x_standard_peripheral/Source/gd32vw55x_rtc.c ****     \brief      enter RTC init mode
 184:../Firmware/GD32VW55x_standard_peripheral/Source/gd32vw55x_rtc.c ****     \param[in]  none
 185:../Firmware/GD32VW55x_standard_peripheral/Source/gd32vw55x_rtc.c ****     \param[out] none
 186:../Firmware/GD32VW55x_standard_peripheral/Source/gd32vw55x_rtc.c ****     \retval     ErrStatus: ERROR or SUCCESS
 187:../Firmware/GD32VW55x_standard_peripheral/Source/gd32vw55x_rtc.c **** */
 188:../Firmware/GD32VW55x_standard_peripheral/Source/gd32vw55x_rtc.c **** ErrStatus rtc_init_mode_enter(void)
 189:../Firmware/GD32VW55x_standard_peripheral/Source/gd32vw55x_rtc.c **** {
 382              		.loc 1 189 1
 383              		.cfi_startproc
 384 0000 0111     		addi	sp,sp,-32
 385              		.cfi_def_cfa_offset 32
 386 0002 22CE     		sw	s0,28(sp)
 387              		.cfi_offset 8, -4
 388 0004 0010     		addi	s0,sp,32
 389              		.cfi_def_cfa 8, 0
 190:../Firmware/GD32VW55x_standard_peripheral/Source/gd32vw55x_rtc.c ****     volatile uint32_t time_index = RTC_INITM_TIMEOUT;
 390              		.loc 1 190 23
 391 0006 A167     		li	a5,32768
 392 0008 2322F4FE 		sw	a5,-28(s0)
 191:../Firmware/GD32VW55x_standard_peripheral/Source/gd32vw55x_rtc.c ****     uint32_t flag_status = RESET;
 393              		.loc 1 191 14
 394 000c 232404FE 		sw	zero,-24(s0)
 192:../Firmware/GD32VW55x_standard_peripheral/Source/gd32vw55x_rtc.c ****     ErrStatus error_status = ERROR;
 395              		.loc 1 192 15
 396 0010 232604FE 		sw	zero,-20(s0)
 193:../Firmware/GD32VW55x_standard_peripheral/Source/gd32vw55x_rtc.c **** 
 194:../Firmware/GD32VW55x_standard_peripheral/Source/gd32vw55x_rtc.c ****     /* check whether it has been in init mode */
 195:../Firmware/GD32VW55x_standard_peripheral/Source/gd32vw55x_rtc.c ****     if((uint32_t)RESET == (RTC_STAT & RTC_STAT_INITF)) {
 397              		.loc 1 195 28
 398 0014 B7370040 		li	a5,1073754112
 399 0018 9387C780 		addi	a5,a5,-2036
 400 001c 9C43     		lw	a5,0(a5)
 401              		.loc 1 195 37
 402 001e 93F70704 		andi	a5,a5,64
 403              		.loc 1 195 7
 404 0022 B1E7     		bne	a5,zero,.L11
 196:../Firmware/GD32VW55x_standard_peripheral/Source/gd32vw55x_rtc.c ****         RTC_STAT |= RTC_STAT_INITM;
 405              		.loc 1 196 18
 406 0024 B7370040 		li	a5,1073754112
 407 0028 9387C780 		addi	a5,a5,-2036
 408 002c 9843     		lw	a4,0(a5)
 409 002e B7370040 		li	a5,1073754112
 410 0032 9387C780 		addi	a5,a5,-2036
 411 0036 13670708 		ori	a4,a4,128
 412 003a 98C3     		sw	a4,0(a5)
 413              	.L13:
 197:../Firmware/GD32VW55x_standard_peripheral/Source/gd32vw55x_rtc.c **** 
 198:../Firmware/GD32VW55x_standard_peripheral/Source/gd32vw55x_rtc.c ****         /* wait until the INITF flag to be set */
 199:../Firmware/GD32VW55x_standard_peripheral/Source/gd32vw55x_rtc.c ****         do {
 200:../Firmware/GD32VW55x_standard_peripheral/Source/gd32vw55x_rtc.c ****             flag_status = RTC_STAT & RTC_STAT_INITF;
 414              		.loc 1 200 27 discriminator 2
 415 003c B7370040 		li	a5,1073754112
 416 0040 9387C780 		addi	a5,a5,-2036
 417 0044 9C43     		lw	a5,0(a5)
 418              		.loc 1 200 25 discriminator 2
 419 0046 93F70704 		andi	a5,a5,64
 420 004a 2324F4FE 		sw	a5,-24(s0)
 201:../Firmware/GD32VW55x_standard_peripheral/Source/gd32vw55x_rtc.c ****         } while((--time_index > 0U) && ((uint32_t)RESET == flag_status));
 421              		.loc 1 201 18 discriminator 2
 422 004e 832744FE 		lw	a5,-28(s0)
 423 0052 FD17     		addi	a5,a5,-1
 424              		.loc 1 201 9 discriminator 2
 425 0054 2322F4FE 		sw	a5,-28(s0)
 426 0058 81C7     		beq	a5,zero,.L12
 427              		.loc 1 201 37 discriminator 1
 428 005a 832784FE 		lw	a5,-24(s0)
 429 005e F9DF     		beq	a5,zero,.L13
 430              	.L12:
 202:../Firmware/GD32VW55x_standard_peripheral/Source/gd32vw55x_rtc.c **** 
 203:../Firmware/GD32VW55x_standard_peripheral/Source/gd32vw55x_rtc.c ****         if((uint32_t)RESET != flag_status) {
 431              		.loc 1 203 11
 432 0060 832784FE 		lw	a5,-24(s0)
 433 0064 81CB     		beq	a5,zero,.L14
 204:../Firmware/GD32VW55x_standard_peripheral/Source/gd32vw55x_rtc.c ****             error_status = SUCCESS;
 434              		.loc 1 204 26
 435 0066 8547     		li	a5,1
 436 0068 2326F4FE 		sw	a5,-20(s0)
 437 006c 21A0     		j	.L14
 438              	.L11:
 205:../Firmware/GD32VW55x_standard_peripheral/Source/gd32vw55x_rtc.c ****         }
 206:../Firmware/GD32VW55x_standard_peripheral/Source/gd32vw55x_rtc.c ****     } else {
 207:../Firmware/GD32VW55x_standard_peripheral/Source/gd32vw55x_rtc.c ****         error_status = SUCCESS;
 439              		.loc 1 207 22
 440 006e 8547     		li	a5,1
 441 0070 2326F4FE 		sw	a5,-20(s0)
 442              	.L14:
 208:../Firmware/GD32VW55x_standard_peripheral/Source/gd32vw55x_rtc.c ****     }
 209:../Firmware/GD32VW55x_standard_peripheral/Source/gd32vw55x_rtc.c ****     return error_status;
 443              		.loc 1 209 12
 444 0074 8327C4FE 		lw	a5,-20(s0)
 210:../Firmware/GD32VW55x_standard_peripheral/Source/gd32vw55x_rtc.c **** }
 445              		.loc 1 210 1
 446 0078 3E85     		mv	a0,a5
 447 007a 7244     		lw	s0,28(sp)
 448              		.cfi_restore 8
 449              		.cfi_def_cfa 2, 32
 450 007c 0561     		addi	sp,sp,32
 451              		.cfi_def_cfa_offset 0
 452 007e 8280     		jr	ra
 453              		.cfi_endproc
 454              	.LFE349:
 456              		.section	.text.rtc_init_mode_exit,"ax",@progbits
 457              		.align	1
 458              		.globl	rtc_init_mode_exit
 460              	rtc_init_mode_exit:
 461              	.LFB350:
 211:../Firmware/GD32VW55x_standard_peripheral/Source/gd32vw55x_rtc.c **** 
 212:../Firmware/GD32VW55x_standard_peripheral/Source/gd32vw55x_rtc.c **** /*!
 213:../Firmware/GD32VW55x_standard_peripheral/Source/gd32vw55x_rtc.c ****     \brief      exit RTC init mode
 214:../Firmware/GD32VW55x_standard_peripheral/Source/gd32vw55x_rtc.c ****     \param[in]  none
 215:../Firmware/GD32VW55x_standard_peripheral/Source/gd32vw55x_rtc.c ****     \param[out] none
 216:../Firmware/GD32VW55x_standard_peripheral/Source/gd32vw55x_rtc.c ****     \retval     none
 217:../Firmware/GD32VW55x_standard_peripheral/Source/gd32vw55x_rtc.c **** */
 218:../Firmware/GD32VW55x_standard_peripheral/Source/gd32vw55x_rtc.c **** void rtc_init_mode_exit(void)
 219:../Firmware/GD32VW55x_standard_peripheral/Source/gd32vw55x_rtc.c **** {
 462              		.loc 1 219 1
 463              		.cfi_startproc
 464 0000 4111     		addi	sp,sp,-16
 465              		.cfi_def_cfa_offset 16
 466 0002 22C6     		sw	s0,12(sp)
 467              		.cfi_offset 8, -4
 468 0004 0008     		addi	s0,sp,16
 469              		.cfi_def_cfa 8, 0
 220:../Firmware/GD32VW55x_standard_peripheral/Source/gd32vw55x_rtc.c ****     RTC_STAT &= (uint32_t)(~RTC_STAT_INITM);
 470              		.loc 1 220 14
 471 0006 B7370040 		li	a5,1073754112
 472 000a 9387C780 		addi	a5,a5,-2036
 473 000e 9843     		lw	a4,0(a5)
 474 0010 B7370040 		li	a5,1073754112
 475 0014 9387C780 		addi	a5,a5,-2036
 476 0018 1377F7F7 		andi	a4,a4,-129
 477 001c 98C3     		sw	a4,0(a5)
 221:../Firmware/GD32VW55x_standard_peripheral/Source/gd32vw55x_rtc.c **** }
 478              		.loc 1 221 1
 479 001e 0100     		nop
 480 0020 3244     		lw	s0,12(sp)
 481              		.cfi_restore 8
 482              		.cfi_def_cfa 2, 16
 483 0022 4101     		addi	sp,sp,16
 484              		.cfi_def_cfa_offset 0
 485 0024 8280     		jr	ra
 486              		.cfi_endproc
 487              	.LFE350:
 489              		.section	.text.rtc_register_sync_wait,"ax",@progbits
 490              		.align	1
 491              		.globl	rtc_register_sync_wait
 493              	rtc_register_sync_wait:
 494              	.LFB351:
 222:../Firmware/GD32VW55x_standard_peripheral/Source/gd32vw55x_rtc.c **** 
 223:../Firmware/GD32VW55x_standard_peripheral/Source/gd32vw55x_rtc.c **** /*!
 224:../Firmware/GD32VW55x_standard_peripheral/Source/gd32vw55x_rtc.c ****     \brief      wait until RTC_TIME and RTC_DATE registers are synchronized with APB clock, and the
 225:../Firmware/GD32VW55x_standard_peripheral/Source/gd32vw55x_rtc.c ****                 registers are updated
 226:../Firmware/GD32VW55x_standard_peripheral/Source/gd32vw55x_rtc.c ****     \param[in]  none
 227:../Firmware/GD32VW55x_standard_peripheral/Source/gd32vw55x_rtc.c ****     \param[out] none
 228:../Firmware/GD32VW55x_standard_peripheral/Source/gd32vw55x_rtc.c ****     \retval     ErrStatus: ERROR or SUCCESS
 229:../Firmware/GD32VW55x_standard_peripheral/Source/gd32vw55x_rtc.c **** */
 230:../Firmware/GD32VW55x_standard_peripheral/Source/gd32vw55x_rtc.c **** ErrStatus rtc_register_sync_wait(void)
 231:../Firmware/GD32VW55x_standard_peripheral/Source/gd32vw55x_rtc.c **** {
 495              		.loc 1 231 1
 496              		.cfi_startproc
 497 0000 0111     		addi	sp,sp,-32
 498              		.cfi_def_cfa_offset 32
 499 0002 22CE     		sw	s0,28(sp)
 500              		.cfi_offset 8, -4
 501 0004 0010     		addi	s0,sp,32
 502              		.cfi_def_cfa 8, 0
 232:../Firmware/GD32VW55x_standard_peripheral/Source/gd32vw55x_rtc.c ****     volatile uint32_t time_index = RTC_RSYNF_TIMEOUT;
 503              		.loc 1 232 23
 504 0006 A167     		li	a5,32768
 505 0008 2322F4FE 		sw	a5,-28(s0)
 233:../Firmware/GD32VW55x_standard_peripheral/Source/gd32vw55x_rtc.c ****     uint32_t flag_status = RESET;
 506              		.loc 1 233 14
 507 000c 232404FE 		sw	zero,-24(s0)
 234:../Firmware/GD32VW55x_standard_peripheral/Source/gd32vw55x_rtc.c ****     ErrStatus error_status = ERROR;
 508              		.loc 1 234 15
 509 0010 232604FE 		sw	zero,-20(s0)
 235:../Firmware/GD32VW55x_standard_peripheral/Source/gd32vw55x_rtc.c **** 
 236:../Firmware/GD32VW55x_standard_peripheral/Source/gd32vw55x_rtc.c ****     if((uint32_t)RESET == (RTC_CTL & RTC_CTL_BPSHAD)) {
 510              		.loc 1 236 28
 511 0014 B7370040 		li	a5,1073754112
 512 0018 93878780 		addi	a5,a5,-2040
 513 001c 9C43     		lw	a5,0(a5)
 514              		.loc 1 236 36
 515 001e 93F70702 		andi	a5,a5,32
 516              		.loc 1 236 7
 517 0022 BDEB     		bne	a5,zero,.L18
 237:../Firmware/GD32VW55x_standard_peripheral/Source/gd32vw55x_rtc.c ****         /* disable the write protection */
 238:../Firmware/GD32VW55x_standard_peripheral/Source/gd32vw55x_rtc.c ****         RTC_WPK = RTC_UNLOCK_KEY1;
 518              		.loc 1 238 9
 519 0024 B7370040 		li	a5,1073754112
 520 0028 93874782 		addi	a5,a5,-2012
 521              		.loc 1 238 17
 522 002c 1307A00C 		li	a4,202
 523 0030 98C3     		sw	a4,0(a5)
 239:../Firmware/GD32VW55x_standard_peripheral/Source/gd32vw55x_rtc.c ****         RTC_WPK = RTC_UNLOCK_KEY2;
 524              		.loc 1 239 9
 525 0032 B7370040 		li	a5,1073754112
 526 0036 93874782 		addi	a5,a5,-2012
 527              		.loc 1 239 17
 528 003a 13073005 		li	a4,83
 529 003e 98C3     		sw	a4,0(a5)
 240:../Firmware/GD32VW55x_standard_peripheral/Source/gd32vw55x_rtc.c **** 
 241:../Firmware/GD32VW55x_standard_peripheral/Source/gd32vw55x_rtc.c ****         /* firstly clear RSYNF flag */
 242:../Firmware/GD32VW55x_standard_peripheral/Source/gd32vw55x_rtc.c ****         RTC_STAT &= (uint32_t)(~RTC_STAT_RSYNF);
 530              		.loc 1 242 18
 531 0040 B7370040 		li	a5,1073754112
 532 0044 9387C780 		addi	a5,a5,-2036
 533 0048 9843     		lw	a4,0(a5)
 534 004a B7370040 		li	a5,1073754112
 535 004e 9387C780 		addi	a5,a5,-2036
 536 0052 1377F7FD 		andi	a4,a4,-33
 537 0056 98C3     		sw	a4,0(a5)
 538              	.L20:
 243:../Firmware/GD32VW55x_standard_peripheral/Source/gd32vw55x_rtc.c **** 
 244:../Firmware/GD32VW55x_standard_peripheral/Source/gd32vw55x_rtc.c ****         /* wait until RSYNF flag to be set */
 245:../Firmware/GD32VW55x_standard_peripheral/Source/gd32vw55x_rtc.c ****         do {
 246:../Firmware/GD32VW55x_standard_peripheral/Source/gd32vw55x_rtc.c ****             flag_status = RTC_STAT & RTC_STAT_RSYNF;
 539              		.loc 1 246 27 discriminator 2
 540 0058 B7370040 		li	a5,1073754112
 541 005c 9387C780 		addi	a5,a5,-2036
 542 0060 9C43     		lw	a5,0(a5)
 543              		.loc 1 246 25 discriminator 2
 544 0062 93F70702 		andi	a5,a5,32
 545 0066 2324F4FE 		sw	a5,-24(s0)
 247:../Firmware/GD32VW55x_standard_peripheral/Source/gd32vw55x_rtc.c ****         } while((--time_index > 0U) && ((uint32_t)RESET == flag_status));
 546              		.loc 1 247 18 discriminator 2
 547 006a 832744FE 		lw	a5,-28(s0)
 548 006e FD17     		addi	a5,a5,-1
 549              		.loc 1 247 9 discriminator 2
 550 0070 2322F4FE 		sw	a5,-28(s0)
 551 0074 81C7     		beq	a5,zero,.L19
 552              		.loc 1 247 37 discriminator 1
 553 0076 832784FE 		lw	a5,-24(s0)
 554 007a F9DF     		beq	a5,zero,.L20
 555              	.L19:
 248:../Firmware/GD32VW55x_standard_peripheral/Source/gd32vw55x_rtc.c **** 
 249:../Firmware/GD32VW55x_standard_peripheral/Source/gd32vw55x_rtc.c ****         if((uint32_t)RESET != flag_status) {
 556              		.loc 1 249 11
 557 007c 832784FE 		lw	a5,-24(s0)
 558 0080 81C7     		beq	a5,zero,.L21
 250:../Firmware/GD32VW55x_standard_peripheral/Source/gd32vw55x_rtc.c ****             error_status = SUCCESS;
 559              		.loc 1 250 26
 560 0082 8547     		li	a5,1
 561 0084 2326F4FE 		sw	a5,-20(s0)
 562              	.L21:
 251:../Firmware/GD32VW55x_standard_peripheral/Source/gd32vw55x_rtc.c ****         }
 252:../Firmware/GD32VW55x_standard_peripheral/Source/gd32vw55x_rtc.c **** 
 253:../Firmware/GD32VW55x_standard_peripheral/Source/gd32vw55x_rtc.c ****         /* enable the write protection */
 254:../Firmware/GD32VW55x_standard_peripheral/Source/gd32vw55x_rtc.c ****         RTC_WPK = RTC_LOCK_KEY;
 563              		.loc 1 254 9
 564 0088 B7370040 		li	a5,1073754112
 565 008c 93874782 		addi	a5,a5,-2012
 566              		.loc 1 254 17
 567 0090 1307F00F 		li	a4,255
 568 0094 98C3     		sw	a4,0(a5)
 569 0096 21A0     		j	.L22
 570              	.L18:
 255:../Firmware/GD32VW55x_standard_peripheral/Source/gd32vw55x_rtc.c ****     } else {
 256:../Firmware/GD32VW55x_standard_peripheral/Source/gd32vw55x_rtc.c ****         error_status = SUCCESS;
 571              		.loc 1 256 22
 572 0098 8547     		li	a5,1
 573 009a 2326F4FE 		sw	a5,-20(s0)
 574              	.L22:
 257:../Firmware/GD32VW55x_standard_peripheral/Source/gd32vw55x_rtc.c ****     }
 258:../Firmware/GD32VW55x_standard_peripheral/Source/gd32vw55x_rtc.c **** 
 259:../Firmware/GD32VW55x_standard_peripheral/Source/gd32vw55x_rtc.c ****     return error_status;
 575              		.loc 1 259 12
 576 009e 8327C4FE 		lw	a5,-20(s0)
 260:../Firmware/GD32VW55x_standard_peripheral/Source/gd32vw55x_rtc.c **** }
 577              		.loc 1 260 1
 578 00a2 3E85     		mv	a0,a5
 579 00a4 7244     		lw	s0,28(sp)
 580              		.cfi_restore 8
 581              		.cfi_def_cfa 2, 32
 582 00a6 0561     		addi	sp,sp,32
 583              		.cfi_def_cfa_offset 0
 584 00a8 8280     		jr	ra
 585              		.cfi_endproc
 586              	.LFE351:
 588              		.section	.text.rtc_current_time_get,"ax",@progbits
 589              		.align	1
 590              		.globl	rtc_current_time_get
 592              	rtc_current_time_get:
 593              	.LFB352:
 261:../Firmware/GD32VW55x_standard_peripheral/Source/gd32vw55x_rtc.c **** 
 262:../Firmware/GD32VW55x_standard_peripheral/Source/gd32vw55x_rtc.c **** /*!
 263:../Firmware/GD32VW55x_standard_peripheral/Source/gd32vw55x_rtc.c ****     \brief      get current time and date
 264:../Firmware/GD32VW55x_standard_peripheral/Source/gd32vw55x_rtc.c ****     \param[in]  none
 265:../Firmware/GD32VW55x_standard_peripheral/Source/gd32vw55x_rtc.c ****     \param[out] rtc_initpara_struct: pointer to a rtc_parameter_struct structure which contains
 266:../Firmware/GD32VW55x_standard_peripheral/Source/gd32vw55x_rtc.c ****                 parameters for initialization of the rtc peripheral
 267:../Firmware/GD32VW55x_standard_peripheral/Source/gd32vw55x_rtc.c ****                 members of the structure and the member values are shown as below:
 268:../Firmware/GD32VW55x_standard_peripheral/Source/gd32vw55x_rtc.c ****                   year: 0x0 - 0x99(BCD format)
 269:../Firmware/GD32VW55x_standard_peripheral/Source/gd32vw55x_rtc.c ****                   month: RTC_JAN, RTC_FEB, RTC_MAR, RTC_APR, RTC_MAY, RTC_JUN,
 270:../Firmware/GD32VW55x_standard_peripheral/Source/gd32vw55x_rtc.c ****                              RTC_JUL, RTC_AUG, RTC_SEP, RTC_OCT, RTC_NOV, RTC_DEC
 271:../Firmware/GD32VW55x_standard_peripheral/Source/gd32vw55x_rtc.c ****                   date: 0x1 - 0x31(BCD format)
 272:../Firmware/GD32VW55x_standard_peripheral/Source/gd32vw55x_rtc.c ****                   day_of_week: RTC_MONDAY, RTC_TUESDAY, RTC_WEDNESDAY, RTC_THURSDAY
 273:../Firmware/GD32VW55x_standard_peripheral/Source/gd32vw55x_rtc.c ****                                    RTC_FRIDAY, RTC_SATURDAY, RTC_SUNDAY
 274:../Firmware/GD32VW55x_standard_peripheral/Source/gd32vw55x_rtc.c ****                   hour: 0x0 - 0x12(BCD format) or 0x0 - 0x23(BCD format) depending on the rtc displ
 275:../Firmware/GD32VW55x_standard_peripheral/Source/gd32vw55x_rtc.c ****                   minute: 0x0 - 0x59(BCD format)
 276:../Firmware/GD32VW55x_standard_peripheral/Source/gd32vw55x_rtc.c ****                   second: 0x0 - 0x59(BCD format)
 277:../Firmware/GD32VW55x_standard_peripheral/Source/gd32vw55x_rtc.c ****                   factor_asyn: 0x0 - 0x7F
 278:../Firmware/GD32VW55x_standard_peripheral/Source/gd32vw55x_rtc.c ****                   factor_syn: 0x0 - 0x7FFF
 279:../Firmware/GD32VW55x_standard_peripheral/Source/gd32vw55x_rtc.c ****                   am_pm: RTC_AM, RTC_PM
 280:../Firmware/GD32VW55x_standard_peripheral/Source/gd32vw55x_rtc.c ****                   display_format: RTC_24HOUR, RTC_12HOUR
 281:../Firmware/GD32VW55x_standard_peripheral/Source/gd32vw55x_rtc.c ****     \retval     none
 282:../Firmware/GD32VW55x_standard_peripheral/Source/gd32vw55x_rtc.c **** */
 283:../Firmware/GD32VW55x_standard_peripheral/Source/gd32vw55x_rtc.c **** void rtc_current_time_get(rtc_parameter_struct *rtc_initpara_struct)
 284:../Firmware/GD32VW55x_standard_peripheral/Source/gd32vw55x_rtc.c **** {
 594              		.loc 1 284 1
 595              		.cfi_startproc
 596 0000 7971     		addi	sp,sp,-48
 597              		.cfi_def_cfa_offset 48
 598 0002 22D6     		sw	s0,44(sp)
 599              		.cfi_offset 8, -4
 600 0004 0018     		addi	s0,sp,48
 601              		.cfi_def_cfa 8, 0
 602 0006 232EA4FC 		sw	a0,-36(s0)
 285:../Firmware/GD32VW55x_standard_peripheral/Source/gd32vw55x_rtc.c ****     uint32_t temp_tr = 0U, temp_dr = 0U, temp_pscr = 0U, temp_ctlr = 0U;
 603              		.loc 1 285 14
 604 000a 232604FE 		sw	zero,-20(s0)
 605              		.loc 1 285 28
 606 000e 232404FE 		sw	zero,-24(s0)
 607              		.loc 1 285 42
 608 0012 232204FE 		sw	zero,-28(s0)
 609              		.loc 1 285 58
 610 0016 232004FE 		sw	zero,-32(s0)
 286:../Firmware/GD32VW55x_standard_peripheral/Source/gd32vw55x_rtc.c **** 
 287:../Firmware/GD32VW55x_standard_peripheral/Source/gd32vw55x_rtc.c ****     temp_tr = (uint32_t)RTC_TIME;
 611              		.loc 1 287 15
 612 001a B7370040 		li	a5,1073754112
 613 001e 93870780 		addi	a5,a5,-2048
 614              		.loc 1 287 13
 615 0022 9C43     		lw	a5,0(a5)
 616 0024 2326F4FE 		sw	a5,-20(s0)
 288:../Firmware/GD32VW55x_standard_peripheral/Source/gd32vw55x_rtc.c ****     temp_dr = (uint32_t)RTC_DATE;
 617              		.loc 1 288 15
 618 0028 B7370040 		li	a5,1073754112
 619 002c 93874780 		addi	a5,a5,-2044
 620              		.loc 1 288 13
 621 0030 9C43     		lw	a5,0(a5)
 622 0032 2324F4FE 		sw	a5,-24(s0)
 289:../Firmware/GD32VW55x_standard_peripheral/Source/gd32vw55x_rtc.c ****     temp_pscr = (uint32_t)RTC_PSC;
 623              		.loc 1 289 17
 624 0036 B7370040 		li	a5,1073754112
 625 003a 93870781 		addi	a5,a5,-2032
 626              		.loc 1 289 15
 627 003e 9C43     		lw	a5,0(a5)
 628 0040 2322F4FE 		sw	a5,-28(s0)
 290:../Firmware/GD32VW55x_standard_peripheral/Source/gd32vw55x_rtc.c ****     temp_ctlr = (uint32_t)RTC_CTL;
 629              		.loc 1 290 17
 630 0044 B7370040 		li	a5,1073754112
 631 0048 93878780 		addi	a5,a5,-2040
 632              		.loc 1 290 15
 633 004c 9C43     		lw	a5,0(a5)
 634 004e 2320F4FE 		sw	a5,-32(s0)
 291:../Firmware/GD32VW55x_standard_peripheral/Source/gd32vw55x_rtc.c **** 
 292:../Firmware/GD32VW55x_standard_peripheral/Source/gd32vw55x_rtc.c ****     /* get current time and construct rtc_parameter_struct structure */
 293:../Firmware/GD32VW55x_standard_peripheral/Source/gd32vw55x_rtc.c ****     rtc_initpara_struct->year = (uint8_t)GET_DATE_YR(temp_dr);
 635              		.loc 1 293 42
 636 0052 832784FE 		lw	a5,-24(s0)
 637 0056 C183     		srli	a5,a5,16
 638              		.loc 1 293 33
 639 0058 13F7F70F 		andi	a4,a5,0xff
 640              		.loc 1 293 31
 641 005c 8327C4FD 		lw	a5,-36(s0)
 642 0060 2380E700 		sb	a4,0(a5)
 294:../Firmware/GD32VW55x_standard_peripheral/Source/gd32vw55x_rtc.c ****     rtc_initpara_struct->month = (uint8_t)GET_DATE_MON(temp_dr);
 643              		.loc 1 294 43
 644 0064 832784FE 		lw	a5,-24(s0)
 645 0068 A183     		srli	a5,a5,8
 646              		.loc 1 294 34
 647 006a 93F7F70F 		andi	a5,a5,0xff
 648 006e FD8B     		andi	a5,a5,31
 649 0070 13F7F70F 		andi	a4,a5,0xff
 650              		.loc 1 294 32
 651 0074 8327C4FD 		lw	a5,-36(s0)
 652 0078 A380E700 		sb	a4,1(a5)
 295:../Firmware/GD32VW55x_standard_peripheral/Source/gd32vw55x_rtc.c ****     rtc_initpara_struct->date = (uint8_t)GET_DATE_DAY(temp_dr);
 653              		.loc 1 295 33
 654 007c 832784FE 		lw	a5,-24(s0)
 655 0080 93F7F70F 		andi	a5,a5,0xff
 656 0084 93F7F703 		andi	a5,a5,63
 657 0088 13F7F70F 		andi	a4,a5,0xff
 658              		.loc 1 295 31
 659 008c 8327C4FD 		lw	a5,-36(s0)
 660 0090 2381E700 		sb	a4,2(a5)
 296:../Firmware/GD32VW55x_standard_peripheral/Source/gd32vw55x_rtc.c ****     rtc_initpara_struct->day_of_week = (uint8_t)GET_DATE_DOW(temp_dr);
 661              		.loc 1 296 49
 662 0094 832784FE 		lw	a5,-24(s0)
 663 0098 B583     		srli	a5,a5,13
 664              		.loc 1 296 40
 665 009a 93F7F70F 		andi	a5,a5,0xff
 666 009e 9D8B     		andi	a5,a5,7
 667 00a0 13F7F70F 		andi	a4,a5,0xff
 668              		.loc 1 296 38
 669 00a4 8327C4FD 		lw	a5,-36(s0)
 670 00a8 A381E700 		sb	a4,3(a5)
 297:../Firmware/GD32VW55x_standard_peripheral/Source/gd32vw55x_rtc.c ****     rtc_initpara_struct->hour = (uint8_t)GET_TIME_HR(temp_tr);
 671              		.loc 1 297 42
 672 00ac 8327C4FE 		lw	a5,-20(s0)
 673 00b0 C183     		srli	a5,a5,16
 674              		.loc 1 297 33
 675 00b2 93F7F70F 		andi	a5,a5,0xff
 676 00b6 93F7F703 		andi	a5,a5,63
 677 00ba 13F7F70F 		andi	a4,a5,0xff
 678              		.loc 1 297 31
 679 00be 8327C4FD 		lw	a5,-36(s0)
 680 00c2 2382E700 		sb	a4,4(a5)
 298:../Firmware/GD32VW55x_standard_peripheral/Source/gd32vw55x_rtc.c ****     rtc_initpara_struct->minute = (uint8_t)GET_TIME_MN(temp_tr);
 681              		.loc 1 298 44
 682 00c6 8327C4FE 		lw	a5,-20(s0)
 683 00ca A183     		srli	a5,a5,8
 684              		.loc 1 298 35
 685 00cc 93F7F70F 		andi	a5,a5,0xff
 686 00d0 93F7F707 		andi	a5,a5,127
 687 00d4 13F7F70F 		andi	a4,a5,0xff
 688              		.loc 1 298 33
 689 00d8 8327C4FD 		lw	a5,-36(s0)
 690 00dc A382E700 		sb	a4,5(a5)
 299:../Firmware/GD32VW55x_standard_peripheral/Source/gd32vw55x_rtc.c ****     rtc_initpara_struct->second = (uint8_t)GET_TIME_SC(temp_tr);
 691              		.loc 1 299 35
 692 00e0 8327C4FE 		lw	a5,-20(s0)
 693 00e4 93F7F70F 		andi	a5,a5,0xff
 694 00e8 93F7F707 		andi	a5,a5,127
 695 00ec 13F7F70F 		andi	a4,a5,0xff
 696              		.loc 1 299 33
 697 00f0 8327C4FD 		lw	a5,-36(s0)
 698 00f4 2383E700 		sb	a4,6(a5)
 300:../Firmware/GD32VW55x_standard_peripheral/Source/gd32vw55x_rtc.c ****     rtc_initpara_struct->factor_asyn = (uint16_t)GET_PSC_FACTOR_A(temp_pscr);
 699              		.loc 1 300 50
 700 00f8 832744FE 		lw	a5,-28(s0)
 701 00fc C183     		srli	a5,a5,16
 702              		.loc 1 300 40
 703 00fe C207     		slli	a5,a5,16
 704 0100 C183     		srli	a5,a5,16
 705 0102 93F7F707 		andi	a5,a5,127
 706 0106 13970701 		slli	a4,a5,16
 707 010a 4183     		srli	a4,a4,16
 708              		.loc 1 300 38
 709 010c 8327C4FD 		lw	a5,-36(s0)
 710 0110 2394E700 		sh	a4,8(a5)
 301:../Firmware/GD32VW55x_standard_peripheral/Source/gd32vw55x_rtc.c ****     rtc_initpara_struct->factor_syn = (uint16_t)GET_PSC_FACTOR_S(temp_pscr);
 711              		.loc 1 301 39
 712 0114 832744FE 		lw	a5,-28(s0)
 713 0118 13970701 		slli	a4,a5,16
 714 011c 4183     		srli	a4,a4,16
 715 011e A167     		li	a5,32768
 716 0120 FD17     		addi	a5,a5,-1
 717 0122 F98F     		and	a5,a4,a5
 718 0124 13970701 		slli	a4,a5,16
 719 0128 4183     		srli	a4,a4,16
 720              		.loc 1 301 37
 721 012a 8327C4FD 		lw	a5,-36(s0)
 722 012e 2395E700 		sh	a4,10(a5)
 302:../Firmware/GD32VW55x_standard_peripheral/Source/gd32vw55x_rtc.c ****     rtc_initpara_struct->am_pm = (uint32_t)(temp_tr & RTC_TIME_PM);
 723              		.loc 1 302 34
 724 0132 0327C4FE 		lw	a4,-20(s0)
 725 0136 B7074000 		li	a5,4194304
 726 013a 7D8F     		and	a4,a4,a5
 727              		.loc 1 302 32
 728 013c 8327C4FD 		lw	a5,-36(s0)
 729 0140 D8C7     		sw	a4,12(a5)
 303:../Firmware/GD32VW55x_standard_peripheral/Source/gd32vw55x_rtc.c ****     rtc_initpara_struct->display_format = (uint32_t)(temp_ctlr & RTC_CTL_CS);
 730              		.loc 1 303 43
 731 0142 832704FE 		lw	a5,-32(s0)
 732 0146 13F70704 		andi	a4,a5,64
 733              		.loc 1 303 41
 734 014a 8327C4FD 		lw	a5,-36(s0)
 735 014e 98CB     		sw	a4,16(a5)
 304:../Firmware/GD32VW55x_standard_peripheral/Source/gd32vw55x_rtc.c **** }
 736              		.loc 1 304 1
 737 0150 0100     		nop
 738 0152 3254     		lw	s0,44(sp)
 739              		.cfi_restore 8
 740              		.cfi_def_cfa 2, 48
 741 0154 4561     		addi	sp,sp,48
 742              		.cfi_def_cfa_offset 0
 743 0156 8280     		jr	ra
 744              		.cfi_endproc
 745              	.LFE352:
 747              		.section	.text.rtc_subsecond_get,"ax",@progbits
 748              		.align	1
 749              		.globl	rtc_subsecond_get
 751              	rtc_subsecond_get:
 752              	.LFB353:
 305:../Firmware/GD32VW55x_standard_peripheral/Source/gd32vw55x_rtc.c **** 
 306:../Firmware/GD32VW55x_standard_peripheral/Source/gd32vw55x_rtc.c **** /*!
 307:../Firmware/GD32VW55x_standard_peripheral/Source/gd32vw55x_rtc.c ****     \brief      get current subsecond value
 308:../Firmware/GD32VW55x_standard_peripheral/Source/gd32vw55x_rtc.c ****     \param[in]  none
 309:../Firmware/GD32VW55x_standard_peripheral/Source/gd32vw55x_rtc.c ****     \param[out] none
 310:../Firmware/GD32VW55x_standard_peripheral/Source/gd32vw55x_rtc.c ****     \retval     current subsecond value
 311:../Firmware/GD32VW55x_standard_peripheral/Source/gd32vw55x_rtc.c **** */
 312:../Firmware/GD32VW55x_standard_peripheral/Source/gd32vw55x_rtc.c **** uint32_t rtc_subsecond_get(void)
 313:../Firmware/GD32VW55x_standard_peripheral/Source/gd32vw55x_rtc.c **** {
 753              		.loc 1 313 1
 754              		.cfi_startproc
 755 0000 0111     		addi	sp,sp,-32
 756              		.cfi_def_cfa_offset 32
 757 0002 22CE     		sw	s0,28(sp)
 758              		.cfi_offset 8, -4
 759 0004 0010     		addi	s0,sp,32
 760              		.cfi_def_cfa 8, 0
 314:../Firmware/GD32VW55x_standard_peripheral/Source/gd32vw55x_rtc.c ****     uint32_t reg = 0U;
 761              		.loc 1 314 14
 762 0006 232604FE 		sw	zero,-20(s0)
 315:../Firmware/GD32VW55x_standard_peripheral/Source/gd32vw55x_rtc.c ****     /* if BPSHAD bit is reset, reading RTC_SS will lock RTC_TIME and RTC_DATE automatically */
 316:../Firmware/GD32VW55x_standard_peripheral/Source/gd32vw55x_rtc.c ****     reg = (uint32_t)RTC_SS;
 763              		.loc 1 316 11
 764 000a B7370040 		li	a5,1073754112
 765 000e 93878782 		addi	a5,a5,-2008
 766              		.loc 1 316 9
 767 0012 9C43     		lw	a5,0(a5)
 768 0014 2326F4FE 		sw	a5,-20(s0)
 317:../Firmware/GD32VW55x_standard_peripheral/Source/gd32vw55x_rtc.c ****     /* read RTC_DATE to unlock the 3 shadow registers */
 318:../Firmware/GD32VW55x_standard_peripheral/Source/gd32vw55x_rtc.c ****     (void)(RTC_DATE);
 769              		.loc 1 318 5
 770 0018 B7370040 		li	a5,1073754112
 771 001c 93874780 		addi	a5,a5,-2044
 772 0020 9C43     		lw	a5,0(a5)
 319:../Firmware/GD32VW55x_standard_peripheral/Source/gd32vw55x_rtc.c **** 
 320:../Firmware/GD32VW55x_standard_peripheral/Source/gd32vw55x_rtc.c ****     return reg;
 773              		.loc 1 320 12
 774 0022 8327C4FE 		lw	a5,-20(s0)
 321:../Firmware/GD32VW55x_standard_peripheral/Source/gd32vw55x_rtc.c **** }
 775              		.loc 1 321 1
 776 0026 3E85     		mv	a0,a5
 777 0028 7244     		lw	s0,28(sp)
 778              		.cfi_restore 8
 779              		.cfi_def_cfa 2, 32
 780 002a 0561     		addi	sp,sp,32
 781              		.cfi_def_cfa_offset 0
 782 002c 8280     		jr	ra
 783              		.cfi_endproc
 784              	.LFE353:
 786              		.section	.text.rtc_alarm_config,"ax",@progbits
 787              		.align	1
 788              		.globl	rtc_alarm_config
 790              	rtc_alarm_config:
 791              	.LFB354:
 322:../Firmware/GD32VW55x_standard_peripheral/Source/gd32vw55x_rtc.c **** 
 323:../Firmware/GD32VW55x_standard_peripheral/Source/gd32vw55x_rtc.c **** /*!
 324:../Firmware/GD32VW55x_standard_peripheral/Source/gd32vw55x_rtc.c ****     \brief      configure RTC alarm
 325:../Firmware/GD32VW55x_standard_peripheral/Source/gd32vw55x_rtc.c ****     \param[in]  rtc_alarm: RTC_ALARM0 or RTC_ALARM1
 326:../Firmware/GD32VW55x_standard_peripheral/Source/gd32vw55x_rtc.c ****     \param[in]  rtc_alarm_time: pointer to a rtc_alarm_struct structure which contains
 327:../Firmware/GD32VW55x_standard_peripheral/Source/gd32vw55x_rtc.c ****                 parameters for RTC alarm configuration
 328:../Firmware/GD32VW55x_standard_peripheral/Source/gd32vw55x_rtc.c ****                 members of the structure and the member values are shown as below:
 329:../Firmware/GD32VW55x_standard_peripheral/Source/gd32vw55x_rtc.c ****                   alarm_mask: RTC_ALARM_NONE_MASK, RTC_ALARM_DATE_MASK, RTC_ALARM_HOUR_MASK
 330:../Firmware/GD32VW55x_standard_peripheral/Source/gd32vw55x_rtc.c ****                                   RTC_ALARM_MINUTE_MASK, RTC_ALARM_SECOND_MASK, RTC_ALARM_ALL_MASK
 331:../Firmware/GD32VW55x_standard_peripheral/Source/gd32vw55x_rtc.c ****                   weekday_or_date: RTC_ALARM_DATE_SELECTED, RTC_ALARM_WEEKDAY_SELECTED
 332:../Firmware/GD32VW55x_standard_peripheral/Source/gd32vw55x_rtc.c ****                   alarm_day: 1) 0x1 - 0x31(BCD format) if RTC_ALARM_DATE_SELECTED is set
 333:../Firmware/GD32VW55x_standard_peripheral/Source/gd32vw55x_rtc.c ****                                  2) RTC_MONDAY, RTC_TUESDAY, RTC_WEDNESDAY, RTC_THURSDAY, RTC_FRIDA
 334:../Firmware/GD32VW55x_standard_peripheral/Source/gd32vw55x_rtc.c ****                                     RTC_SATURDAY, RTC_SUNDAY if RTC_ALARM_WEEKDAY_SELECTED is set
 335:../Firmware/GD32VW55x_standard_peripheral/Source/gd32vw55x_rtc.c ****                   alarm_hour: 0x0 - 0x12(BCD format) or 0x0 - 0x23(BCD format) depending on the rtc
 336:../Firmware/GD32VW55x_standard_peripheral/Source/gd32vw55x_rtc.c ****                   alarm_minute: 0x0 - 0x59(BCD format)
 337:../Firmware/GD32VW55x_standard_peripheral/Source/gd32vw55x_rtc.c ****                   alarm_second: 0x0 - 0x59(BCD format)
 338:../Firmware/GD32VW55x_standard_peripheral/Source/gd32vw55x_rtc.c ****                   am_pm: RTC_AM, RTC_PM
 339:../Firmware/GD32VW55x_standard_peripheral/Source/gd32vw55x_rtc.c ****     \param[out] none
 340:../Firmware/GD32VW55x_standard_peripheral/Source/gd32vw55x_rtc.c ****     \retval     none
 341:../Firmware/GD32VW55x_standard_peripheral/Source/gd32vw55x_rtc.c **** */
 342:../Firmware/GD32VW55x_standard_peripheral/Source/gd32vw55x_rtc.c **** void rtc_alarm_config(uint8_t rtc_alarm, rtc_alarm_struct *rtc_alarm_time)
 343:../Firmware/GD32VW55x_standard_peripheral/Source/gd32vw55x_rtc.c **** {
 792              		.loc 1 343 1
 793              		.cfi_startproc
 794 0000 7971     		addi	sp,sp,-48
 795              		.cfi_def_cfa_offset 48
 796 0002 22D6     		sw	s0,44(sp)
 797              		.cfi_offset 8, -4
 798 0004 0018     		addi	s0,sp,48
 799              		.cfi_def_cfa 8, 0
 800 0006 AA87     		mv	a5,a0
 801 0008 232CB4FC 		sw	a1,-40(s0)
 802 000c A30FF4FC 		sb	a5,-33(s0)
 344:../Firmware/GD32VW55x_standard_peripheral/Source/gd32vw55x_rtc.c ****     uint32_t reg_alrmtd = 0U;
 803              		.loc 1 344 14
 804 0010 232604FE 		sw	zero,-20(s0)
 345:../Firmware/GD32VW55x_standard_peripheral/Source/gd32vw55x_rtc.c **** 
 346:../Firmware/GD32VW55x_standard_peripheral/Source/gd32vw55x_rtc.c ****     /* disable the write protection */
 347:../Firmware/GD32VW55x_standard_peripheral/Source/gd32vw55x_rtc.c ****     RTC_WPK = RTC_UNLOCK_KEY1;
 805              		.loc 1 347 5
 806 0014 B7370040 		li	a5,1073754112
 807 0018 93874782 		addi	a5,a5,-2012
 808              		.loc 1 347 13
 809 001c 1307A00C 		li	a4,202
 810 0020 98C3     		sw	a4,0(a5)
 348:../Firmware/GD32VW55x_standard_peripheral/Source/gd32vw55x_rtc.c ****     RTC_WPK = RTC_UNLOCK_KEY2;
 811              		.loc 1 348 5
 812 0022 B7370040 		li	a5,1073754112
 813 0026 93874782 		addi	a5,a5,-2012
 814              		.loc 1 348 13
 815 002a 13073005 		li	a4,83
 816 002e 98C3     		sw	a4,0(a5)
 349:../Firmware/GD32VW55x_standard_peripheral/Source/gd32vw55x_rtc.c **** 
 350:../Firmware/GD32VW55x_standard_peripheral/Source/gd32vw55x_rtc.c ****     reg_alrmtd = (rtc_alarm_time->alarm_mask | \
 817              		.loc 1 350 33
 818 0030 832784FD 		lw	a5,-40(s0)
 819 0034 9843     		lw	a4,0(a5)
 351:../Firmware/GD32VW55x_standard_peripheral/Source/gd32vw55x_rtc.c ****                   rtc_alarm_time->weekday_or_date | \
 820              		.loc 1 351 33
 821 0036 832784FD 		lw	a5,-40(s0)
 822 003a DC43     		lw	a5,4(a5)
 350:../Firmware/GD32VW55x_standard_peripheral/Source/gd32vw55x_rtc.c ****                   rtc_alarm_time->weekday_or_date | \
 823              		.loc 1 350 46
 824 003c 5D8F     		or	a4,a4,a5
 352:../Firmware/GD32VW55x_standard_peripheral/Source/gd32vw55x_rtc.c ****                   rtc_alarm_time->am_pm | \
 825              		.loc 1 352 33
 826 003e 832784FD 		lw	a5,-40(s0)
 827 0042 DC47     		lw	a5,12(a5)
 351:../Firmware/GD32VW55x_standard_peripheral/Source/gd32vw55x_rtc.c ****                   rtc_alarm_time->weekday_or_date | \
 828              		.loc 1 351 51
 829 0044 5D8F     		or	a4,a4,a5
 353:../Firmware/GD32VW55x_standard_peripheral/Source/gd32vw55x_rtc.c ****                   ALRMTD_DAY(rtc_alarm_time->alarm_day) | \
 830              		.loc 1 353 19
 831 0046 832784FD 		lw	a5,-40(s0)
 832 004a 83C78700 		lbu	a5,8(a5)
 833 004e 93968701 		slli	a3,a5,24
 834 0052 B707003F 		li	a5,1056964608
 835 0056 F58F     		and	a5,a3,a5
 352:../Firmware/GD32VW55x_standard_peripheral/Source/gd32vw55x_rtc.c ****                   rtc_alarm_time->am_pm | \
 836              		.loc 1 352 41
 837 0058 5D8F     		or	a4,a4,a5
 354:../Firmware/GD32VW55x_standard_peripheral/Source/gd32vw55x_rtc.c ****                   ALRMTD_HR(rtc_alarm_time->alarm_hour) | \
 838              		.loc 1 354 19
 839 005a 832784FD 		lw	a5,-40(s0)
 840 005e 83C79700 		lbu	a5,9(a5)
 841 0062 93960701 		slli	a3,a5,16
 842 0066 B7073F00 		li	a5,4128768
 843 006a F58F     		and	a5,a3,a5
 353:../Firmware/GD32VW55x_standard_peripheral/Source/gd32vw55x_rtc.c ****                   ALRMTD_DAY(rtc_alarm_time->alarm_day) | \
 844              		.loc 1 353 57
 845 006c 5D8F     		or	a4,a4,a5
 355:../Firmware/GD32VW55x_standard_peripheral/Source/gd32vw55x_rtc.c ****                   ALRMTD_MN(rtc_alarm_time->alarm_minute) | \
 846              		.loc 1 355 19
 847 006e 832784FD 		lw	a5,-40(s0)
 848 0072 83C7A700 		lbu	a5,10(a5)
 849 0076 93968700 		slli	a3,a5,8
 850 007a A167     		li	a5,32768
 851 007c 938707F0 		addi	a5,a5,-256
 852 0080 F58F     		and	a5,a3,a5
 354:../Firmware/GD32VW55x_standard_peripheral/Source/gd32vw55x_rtc.c ****                   ALRMTD_HR(rtc_alarm_time->alarm_hour) | \
 853              		.loc 1 354 57
 854 0082 5D8F     		or	a4,a4,a5
 356:../Firmware/GD32VW55x_standard_peripheral/Source/gd32vw55x_rtc.c ****                   ALRMTD_SC(rtc_alarm_time->alarm_second));
 855              		.loc 1 356 19
 856 0084 832784FD 		lw	a5,-40(s0)
 857 0088 83C7B700 		lbu	a5,11(a5)
 858 008c 93F7F707 		andi	a5,a5,127
 350:../Firmware/GD32VW55x_standard_peripheral/Source/gd32vw55x_rtc.c ****                   rtc_alarm_time->weekday_or_date | \
 859              		.loc 1 350 16
 860 0090 D98F     		or	a5,a4,a5
 861 0092 2326F4FE 		sw	a5,-20(s0)
 357:../Firmware/GD32VW55x_standard_peripheral/Source/gd32vw55x_rtc.c **** 
 358:../Firmware/GD32VW55x_standard_peripheral/Source/gd32vw55x_rtc.c ****     if(RTC_ALARM0 == rtc_alarm) {
 862              		.loc 1 358 7
 863 0096 0347F4FD 		lbu	a4,-33(s0)
 864 009a 8547     		li	a5,1
 865 009c 631AF700 		bne	a4,a5,.L28
 359:../Firmware/GD32VW55x_standard_peripheral/Source/gd32vw55x_rtc.c ****         RTC_ALRM0TD = (uint32_t)reg_alrmtd;
 866              		.loc 1 359 9
 867 00a0 B7370040 		li	a5,1073754112
 868 00a4 9387C781 		addi	a5,a5,-2020
 869              		.loc 1 359 21
 870 00a8 0327C4FE 		lw	a4,-20(s0)
 871 00ac 98C3     		sw	a4,0(a5)
 872 00ae 01A8     		j	.L29
 873              	.L28:
 360:../Firmware/GD32VW55x_standard_peripheral/Source/gd32vw55x_rtc.c **** 
 361:../Firmware/GD32VW55x_standard_peripheral/Source/gd32vw55x_rtc.c ****     } else {
 362:../Firmware/GD32VW55x_standard_peripheral/Source/gd32vw55x_rtc.c ****         RTC_ALRM1TD = (uint32_t)reg_alrmtd;
 874              		.loc 1 362 9
 875 00b0 B7370040 		li	a5,1073754112
 876 00b4 93870782 		addi	a5,a5,-2016
 877              		.loc 1 362 21
 878 00b8 0327C4FE 		lw	a4,-20(s0)
 879 00bc 98C3     		sw	a4,0(a5)
 880              	.L29:
 363:../Firmware/GD32VW55x_standard_peripheral/Source/gd32vw55x_rtc.c ****     }
 364:../Firmware/GD32VW55x_standard_peripheral/Source/gd32vw55x_rtc.c **** 
 365:../Firmware/GD32VW55x_standard_peripheral/Source/gd32vw55x_rtc.c ****     /* enable the write protection */
 366:../Firmware/GD32VW55x_standard_peripheral/Source/gd32vw55x_rtc.c ****     RTC_WPK = RTC_LOCK_KEY;
 881              		.loc 1 366 5
 882 00be B7370040 		li	a5,1073754112
 883 00c2 93874782 		addi	a5,a5,-2012
 884              		.loc 1 366 13
 885 00c6 1307F00F 		li	a4,255
 886 00ca 98C3     		sw	a4,0(a5)
 367:../Firmware/GD32VW55x_standard_peripheral/Source/gd32vw55x_rtc.c **** }
 887              		.loc 1 367 1
 888 00cc 0100     		nop
 889 00ce 3254     		lw	s0,44(sp)
 890              		.cfi_restore 8
 891              		.cfi_def_cfa 2, 48
 892 00d0 4561     		addi	sp,sp,48
 893              		.cfi_def_cfa_offset 0
 894 00d2 8280     		jr	ra
 895              		.cfi_endproc
 896              	.LFE354:
 898              		.section	.text.rtc_alarm_subsecond_config,"ax",@progbits
 899              		.align	1
 900              		.globl	rtc_alarm_subsecond_config
 902              	rtc_alarm_subsecond_config:
 903              	.LFB355:
 368:../Firmware/GD32VW55x_standard_peripheral/Source/gd32vw55x_rtc.c **** 
 369:../Firmware/GD32VW55x_standard_peripheral/Source/gd32vw55x_rtc.c **** /*!
 370:../Firmware/GD32VW55x_standard_peripheral/Source/gd32vw55x_rtc.c ****     \brief      configure subsecond of RTC alarm
 371:../Firmware/GD32VW55x_standard_peripheral/Source/gd32vw55x_rtc.c ****     \param[in]  rtc_alarm: RTC_ALARM0 or RTC_ALARM1
 372:../Firmware/GD32VW55x_standard_peripheral/Source/gd32vw55x_rtc.c ****     \param[in]  mask_subsecond: alarm subsecond mask
 373:../Firmware/GD32VW55x_standard_peripheral/Source/gd32vw55x_rtc.c ****       \arg        RTC_MSKSSC_0_14: mask alarm subsecond configuration
 374:../Firmware/GD32VW55x_standard_peripheral/Source/gd32vw55x_rtc.c ****       \arg        RTC_MSKSSC_1_14: mask RTC_ALRMXSS_SSC[14:1], and RTC_ALRMXSS_SSC[0] is to be comp
 375:../Firmware/GD32VW55x_standard_peripheral/Source/gd32vw55x_rtc.c ****       \arg        RTC_MSKSSC_2_14: mask RTC_ALRMXSS_SSC[14:2], and RTC_ALRMXSS_SSC[1:0] is to be co
 376:../Firmware/GD32VW55x_standard_peripheral/Source/gd32vw55x_rtc.c ****       \arg        RTC_MSKSSC_3_14: mask RTC_ALRMXSS_SSC[14:3], and RTC_ALRMXSS_SSC[2:0] is to be co
 377:../Firmware/GD32VW55x_standard_peripheral/Source/gd32vw55x_rtc.c ****       \arg        RTC_MSKSSC_4_14: mask RTC_ALRMXSS_SSC[14:4]], and RTC_ALRMXSS_SSC[3:0] is to be c
 378:../Firmware/GD32VW55x_standard_peripheral/Source/gd32vw55x_rtc.c ****       \arg        RTC_MSKSSC_5_14: mask RTC_ALRMXSS_SSC[14:5], and RTC_ALRMXSS_SSC[4:0] is to be co
 379:../Firmware/GD32VW55x_standard_peripheral/Source/gd32vw55x_rtc.c ****       \arg        RTC_MSKSSC_6_14: mask RTC_ALRMXSS_SSC[14:6], and RTC_ALRMXSS_SSC[5:0] is to be co
 380:../Firmware/GD32VW55x_standard_peripheral/Source/gd32vw55x_rtc.c ****       \arg        RTC_MSKSSC_7_14: mask RTC_ALRMXSS_SSC[14:7], and RTC_ALRMXSS_SSC[6:0] is to be co
 381:../Firmware/GD32VW55x_standard_peripheral/Source/gd32vw55x_rtc.c ****       \arg        RTC_MSKSSC_8_14: mask RTC_ALRMXSS_SSC[14:8], and RTC_ALRMXSS_SSC[7:0] is to be co
 382:../Firmware/GD32VW55x_standard_peripheral/Source/gd32vw55x_rtc.c ****       \arg        RTC_MSKSSC_9_14: mask RTC_ALRMXSS_SSC[14:9], and RTC_ALRMXSS_SSC[8:0] is to be co
 383:../Firmware/GD32VW55x_standard_peripheral/Source/gd32vw55x_rtc.c ****       \arg        RTC_MSKSSC_10_14: mask RTC_ALRMXSS_SSC[14:10], and RTC_ALRMXSS_SSC[9:0] is to be 
 384:../Firmware/GD32VW55x_standard_peripheral/Source/gd32vw55x_rtc.c ****       \arg        RTC_MSKSSC_11_14: mask RTC_ALRMXSS_SSC[14:11], and RTC_ALRMXSS_SSC[10:0] is to be
 385:../Firmware/GD32VW55x_standard_peripheral/Source/gd32vw55x_rtc.c ****       \arg        RTC_MSKSSC_12_14: mask RTC_ALRMXSS_SSC[14:12], and RTC_ALRMXSS_SSC[11:0] is to be
 386:../Firmware/GD32VW55x_standard_peripheral/Source/gd32vw55x_rtc.c ****       \arg        RTC_MSKSSC_13_14: mask RTC_ALRMXSS_SSC[14:13], and RTC_ALRMXSS_SSC[12:0] is to be
 387:../Firmware/GD32VW55x_standard_peripheral/Source/gd32vw55x_rtc.c ****       \arg        RTC_MSKSSC_14: mask RTC_ALRMXSS_SSC[14], and RTC_ALRMXSS_SSC[13:0] is to be compa
 388:../Firmware/GD32VW55x_standard_peripheral/Source/gd32vw55x_rtc.c ****       \arg        RTC_MSKSSC_NONE: mask none, and RTC_ALRMXSS_SSC[14:0] is to be compared
 389:../Firmware/GD32VW55x_standard_peripheral/Source/gd32vw55x_rtc.c ****     \param[in]  subsecond: alarm subsecond value(0x000 - 0x7FFF)
 390:../Firmware/GD32VW55x_standard_peripheral/Source/gd32vw55x_rtc.c ****     \param[out] none
 391:../Firmware/GD32VW55x_standard_peripheral/Source/gd32vw55x_rtc.c ****     \retval     none
 392:../Firmware/GD32VW55x_standard_peripheral/Source/gd32vw55x_rtc.c **** */
 393:../Firmware/GD32VW55x_standard_peripheral/Source/gd32vw55x_rtc.c **** void rtc_alarm_subsecond_config(uint8_t rtc_alarm, uint32_t mask_subsecond, uint32_t subsecond)
 394:../Firmware/GD32VW55x_standard_peripheral/Source/gd32vw55x_rtc.c **** {
 904              		.loc 1 394 1
 905              		.cfi_startproc
 906 0000 0111     		addi	sp,sp,-32
 907              		.cfi_def_cfa_offset 32
 908 0002 22CE     		sw	s0,28(sp)
 909              		.cfi_offset 8, -4
 910 0004 0010     		addi	s0,sp,32
 911              		.cfi_def_cfa 8, 0
 912 0006 AA87     		mv	a5,a0
 913 0008 2324B4FE 		sw	a1,-24(s0)
 914 000c 2322C4FE 		sw	a2,-28(s0)
 915 0010 A307F4FE 		sb	a5,-17(s0)
 395:../Firmware/GD32VW55x_standard_peripheral/Source/gd32vw55x_rtc.c ****     /* disable the write protection */
 396:../Firmware/GD32VW55x_standard_peripheral/Source/gd32vw55x_rtc.c ****     RTC_WPK = RTC_UNLOCK_KEY1;
 916              		.loc 1 396 5
 917 0014 B7370040 		li	a5,1073754112
 918 0018 93874782 		addi	a5,a5,-2012
 919              		.loc 1 396 13
 920 001c 1307A00C 		li	a4,202
 921 0020 98C3     		sw	a4,0(a5)
 397:../Firmware/GD32VW55x_standard_peripheral/Source/gd32vw55x_rtc.c ****     RTC_WPK = RTC_UNLOCK_KEY2;
 922              		.loc 1 397 5
 923 0022 B7370040 		li	a5,1073754112
 924 0026 93874782 		addi	a5,a5,-2012
 925              		.loc 1 397 13
 926 002a 13073005 		li	a4,83
 927 002e 98C3     		sw	a4,0(a5)
 398:../Firmware/GD32VW55x_standard_peripheral/Source/gd32vw55x_rtc.c **** 
 399:../Firmware/GD32VW55x_standard_peripheral/Source/gd32vw55x_rtc.c ****     if(RTC_ALARM0 == rtc_alarm) {
 928              		.loc 1 399 7
 929 0030 0347F4FE 		lbu	a4,-17(s0)
 930 0034 8547     		li	a5,1
 931 0036 631DF700 		bne	a4,a5,.L31
 400:../Firmware/GD32VW55x_standard_peripheral/Source/gd32vw55x_rtc.c ****         RTC_ALRM0SS = mask_subsecond | subsecond;
 932              		.loc 1 400 9
 933 003a B7370040 		li	a5,1073754112
 934 003e 93874784 		addi	a5,a5,-1980
 935              		.loc 1 400 38
 936 0042 832684FE 		lw	a3,-24(s0)
 937 0046 032744FE 		lw	a4,-28(s0)
 938 004a 558F     		or	a4,a3,a4
 939              		.loc 1 400 21
 940 004c 98C3     		sw	a4,0(a5)
 941 004e 19A8     		j	.L32
 942              	.L31:
 401:../Firmware/GD32VW55x_standard_peripheral/Source/gd32vw55x_rtc.c ****     } else {
 402:../Firmware/GD32VW55x_standard_peripheral/Source/gd32vw55x_rtc.c ****         RTC_ALRM1SS = mask_subsecond | subsecond;
 943              		.loc 1 402 9
 944 0050 B7370040 		li	a5,1073754112
 945 0054 93878784 		addi	a5,a5,-1976
 946              		.loc 1 402 38
 947 0058 832684FE 		lw	a3,-24(s0)
 948 005c 032744FE 		lw	a4,-28(s0)
 949 0060 558F     		or	a4,a3,a4
 950              		.loc 1 402 21
 951 0062 98C3     		sw	a4,0(a5)
 952              	.L32:
 403:../Firmware/GD32VW55x_standard_peripheral/Source/gd32vw55x_rtc.c ****     }
 404:../Firmware/GD32VW55x_standard_peripheral/Source/gd32vw55x_rtc.c **** 
 405:../Firmware/GD32VW55x_standard_peripheral/Source/gd32vw55x_rtc.c ****     /* enable the write protection */
 406:../Firmware/GD32VW55x_standard_peripheral/Source/gd32vw55x_rtc.c ****     RTC_WPK = RTC_LOCK_KEY;
 953              		.loc 1 406 5
 954 0064 B7370040 		li	a5,1073754112
 955 0068 93874782 		addi	a5,a5,-2012
 956              		.loc 1 406 13
 957 006c 1307F00F 		li	a4,255
 958 0070 98C3     		sw	a4,0(a5)
 407:../Firmware/GD32VW55x_standard_peripheral/Source/gd32vw55x_rtc.c **** }
 959              		.loc 1 407 1
 960 0072 0100     		nop
 961 0074 7244     		lw	s0,28(sp)
 962              		.cfi_restore 8
 963              		.cfi_def_cfa 2, 32
 964 0076 0561     		addi	sp,sp,32
 965              		.cfi_def_cfa_offset 0
 966 0078 8280     		jr	ra
 967              		.cfi_endproc
 968              	.LFE355:
 970              		.section	.text.rtc_alarm_get,"ax",@progbits
 971              		.align	1
 972              		.globl	rtc_alarm_get
 974              	rtc_alarm_get:
 975              	.LFB356:
 408:../Firmware/GD32VW55x_standard_peripheral/Source/gd32vw55x_rtc.c **** 
 409:../Firmware/GD32VW55x_standard_peripheral/Source/gd32vw55x_rtc.c **** /*!
 410:../Firmware/GD32VW55x_standard_peripheral/Source/gd32vw55x_rtc.c ****     \brief      get RTC alarm
 411:../Firmware/GD32VW55x_standard_peripheral/Source/gd32vw55x_rtc.c ****     \param[in]  rtc_alarm: RTC_ALARM0 or RTC_ALARM1
 412:../Firmware/GD32VW55x_standard_peripheral/Source/gd32vw55x_rtc.c ****     \param[out] rtc_alarm_time: pointer to a rtc_alarm_struct structure which contains
 413:../Firmware/GD32VW55x_standard_peripheral/Source/gd32vw55x_rtc.c ****                 parameters for RTC alarm configuration
 414:../Firmware/GD32VW55x_standard_peripheral/Source/gd32vw55x_rtc.c ****                 members of the structure and the member values are shown as below:
 415:../Firmware/GD32VW55x_standard_peripheral/Source/gd32vw55x_rtc.c ****                   alarm_mask: RTC_ALARM_NONE_MASK, RTC_ALARM_DATE_MASK, RTC_ALARM_HOUR_MASK
 416:../Firmware/GD32VW55x_standard_peripheral/Source/gd32vw55x_rtc.c ****                                   RTC_ALARM_MINUTE_MASK, RTC_ALARM_SECOND_MASK, RTC_ALARM_ALL_MASK
 417:../Firmware/GD32VW55x_standard_peripheral/Source/gd32vw55x_rtc.c ****                   weekday_or_date: RTC_ALARM_DATE_SELECTED, RTC_ALARM_WEEKDAY_SELECTED
 418:../Firmware/GD32VW55x_standard_peripheral/Source/gd32vw55x_rtc.c ****                   alarm_day: 1) 0x1 - 0x31(BCD format) if RTC_ALARM_DATE_SELECTED is set
 419:../Firmware/GD32VW55x_standard_peripheral/Source/gd32vw55x_rtc.c ****                                  2) RTC_MONDAY, RTC_TUESDAY, RTC_WEDNESDAY, RTC_THURSDAY, RTC_FRIDA
 420:../Firmware/GD32VW55x_standard_peripheral/Source/gd32vw55x_rtc.c ****                                     RTC_SATURDAY, RTC_SUNDAY if RTC_ALARM_WEEKDAY_SELECTED is set
 421:../Firmware/GD32VW55x_standard_peripheral/Source/gd32vw55x_rtc.c ****                   alarm_hour: 0x0 - 0x12(BCD format) or 0x0 - 0x23(BCD format) depending on the rtc
 422:../Firmware/GD32VW55x_standard_peripheral/Source/gd32vw55x_rtc.c ****                   alarm_minute: 0x0 - 0x59(BCD format)
 423:../Firmware/GD32VW55x_standard_peripheral/Source/gd32vw55x_rtc.c ****                   alarm_second: 0x0 - 0x59(BCD format)
 424:../Firmware/GD32VW55x_standard_peripheral/Source/gd32vw55x_rtc.c ****                   am_pm: RTC_AM, RTC_PM
 425:../Firmware/GD32VW55x_standard_peripheral/Source/gd32vw55x_rtc.c ****     \retval     none
 426:../Firmware/GD32VW55x_standard_peripheral/Source/gd32vw55x_rtc.c **** */
 427:../Firmware/GD32VW55x_standard_peripheral/Source/gd32vw55x_rtc.c **** void rtc_alarm_get(uint8_t rtc_alarm, rtc_alarm_struct *rtc_alarm_time)
 428:../Firmware/GD32VW55x_standard_peripheral/Source/gd32vw55x_rtc.c **** {
 976              		.loc 1 428 1
 977              		.cfi_startproc
 978 0000 7971     		addi	sp,sp,-48
 979              		.cfi_def_cfa_offset 48
 980 0002 22D6     		sw	s0,44(sp)
 981              		.cfi_offset 8, -4
 982 0004 0018     		addi	s0,sp,48
 983              		.cfi_def_cfa 8, 0
 984 0006 AA87     		mv	a5,a0
 985 0008 232CB4FC 		sw	a1,-40(s0)
 986 000c A30FF4FC 		sb	a5,-33(s0)
 429:../Firmware/GD32VW55x_standard_peripheral/Source/gd32vw55x_rtc.c ****     uint32_t reg_alrmtd = 0U;
 987              		.loc 1 429 14
 988 0010 232604FE 		sw	zero,-20(s0)
 430:../Firmware/GD32VW55x_standard_peripheral/Source/gd32vw55x_rtc.c **** 
 431:../Firmware/GD32VW55x_standard_peripheral/Source/gd32vw55x_rtc.c ****     /* get the value of RTC_ALRM0TD register */
 432:../Firmware/GD32VW55x_standard_peripheral/Source/gd32vw55x_rtc.c ****     if(RTC_ALARM0 == rtc_alarm) {
 989              		.loc 1 432 7
 990 0014 0347F4FD 		lbu	a4,-33(s0)
 991 0018 8547     		li	a5,1
 992 001a 631AF700 		bne	a4,a5,.L34
 433:../Firmware/GD32VW55x_standard_peripheral/Source/gd32vw55x_rtc.c ****         reg_alrmtd = RTC_ALRM0TD;
 993              		.loc 1 433 22
 994 001e B7370040 		li	a5,1073754112
 995 0022 9387C781 		addi	a5,a5,-2020
 996              		.loc 1 433 20
 997 0026 9C43     		lw	a5,0(a5)
 998 0028 2326F4FE 		sw	a5,-20(s0)
 999 002c 01A8     		j	.L35
 1000              	.L34:
 434:../Firmware/GD32VW55x_standard_peripheral/Source/gd32vw55x_rtc.c ****     } else {
 435:../Firmware/GD32VW55x_standard_peripheral/Source/gd32vw55x_rtc.c ****         reg_alrmtd = RTC_ALRM1TD;
 1001              		.loc 1 435 22
 1002 002e B7370040 		li	a5,1073754112
 1003 0032 93870782 		addi	a5,a5,-2016
 1004              		.loc 1 435 20
 1005 0036 9C43     		lw	a5,0(a5)
 1006 0038 2326F4FE 		sw	a5,-20(s0)
 1007              	.L35:
 436:../Firmware/GD32VW55x_standard_peripheral/Source/gd32vw55x_rtc.c ****     }
 437:../Firmware/GD32VW55x_standard_peripheral/Source/gd32vw55x_rtc.c ****     /* get alarm parameters and construct the rtc_alarm_struct structure */
 438:../Firmware/GD32VW55x_standard_peripheral/Source/gd32vw55x_rtc.c ****     rtc_alarm_time->alarm_mask = reg_alrmtd & RTC_ALARM_ALL_MASK;
 1008              		.loc 1 438 45
 1009 003c 0327C4FE 		lw	a4,-20(s0)
 1010 0040 B7878080 		li	a5,-2139062272
 1011 0044 93870708 		addi	a5,a5,128
 1012 0048 7D8F     		and	a4,a4,a5
 1013              		.loc 1 438 32
 1014 004a 832784FD 		lw	a5,-40(s0)
 1015 004e 98C3     		sw	a4,0(a5)
 439:../Firmware/GD32VW55x_standard_peripheral/Source/gd32vw55x_rtc.c ****     rtc_alarm_time->am_pm = (uint32_t)(reg_alrmtd & RTC_ALRMXTD_PM);
 1016              		.loc 1 439 29
 1017 0050 0327C4FE 		lw	a4,-20(s0)
 1018 0054 B7074000 		li	a5,4194304
 1019 0058 7D8F     		and	a4,a4,a5
 1020              		.loc 1 439 27
 1021 005a 832784FD 		lw	a5,-40(s0)
 1022 005e D8C7     		sw	a4,12(a5)
 440:../Firmware/GD32VW55x_standard_peripheral/Source/gd32vw55x_rtc.c ****     rtc_alarm_time->weekday_or_date = (uint32_t)(reg_alrmtd & RTC_ALRMXTD_DOWS);
 1023              		.loc 1 440 39
 1024 0060 0327C4FE 		lw	a4,-20(s0)
 1025 0064 B7070040 		li	a5,1073741824
 1026 0068 7D8F     		and	a4,a4,a5
 1027              		.loc 1 440 37
 1028 006a 832784FD 		lw	a5,-40(s0)
 1029 006e D8C3     		sw	a4,4(a5)
 441:../Firmware/GD32VW55x_standard_peripheral/Source/gd32vw55x_rtc.c ****     rtc_alarm_time->alarm_day = (uint8_t)GET_ALRMTD_DAY(reg_alrmtd);
 1030              		.loc 1 441 42
 1031 0070 8327C4FE 		lw	a5,-20(s0)
 1032 0074 E183     		srli	a5,a5,24
 1033              		.loc 1 441 33
 1034 0076 93F7F70F 		andi	a5,a5,0xff
 1035 007a 93F7F703 		andi	a5,a5,63
 1036 007e 13F7F70F 		andi	a4,a5,0xff
 1037              		.loc 1 441 31
 1038 0082 832784FD 		lw	a5,-40(s0)
 1039 0086 2384E700 		sb	a4,8(a5)
 442:../Firmware/GD32VW55x_standard_peripheral/Source/gd32vw55x_rtc.c ****     rtc_alarm_time->alarm_hour = (uint8_t)GET_ALRMTD_HR(reg_alrmtd);
 1040              		.loc 1 442 43
 1041 008a 8327C4FE 		lw	a5,-20(s0)
 1042 008e C183     		srli	a5,a5,16
 1043              		.loc 1 442 34
 1044 0090 93F7F70F 		andi	a5,a5,0xff
 1045 0094 93F7F703 		andi	a5,a5,63
 1046 0098 13F7F70F 		andi	a4,a5,0xff
 1047              		.loc 1 442 32
 1048 009c 832784FD 		lw	a5,-40(s0)
 1049 00a0 A384E700 		sb	a4,9(a5)
 443:../Firmware/GD32VW55x_standard_peripheral/Source/gd32vw55x_rtc.c ****     rtc_alarm_time->alarm_minute = (uint8_t)GET_ALRMTD_MN(reg_alrmtd);
 1050              		.loc 1 443 45
 1051 00a4 8327C4FE 		lw	a5,-20(s0)
 1052 00a8 A183     		srli	a5,a5,8
 1053              		.loc 1 443 36
 1054 00aa 93F7F70F 		andi	a5,a5,0xff
 1055 00ae 93F7F707 		andi	a5,a5,127
 1056 00b2 13F7F70F 		andi	a4,a5,0xff
 1057              		.loc 1 443 34
 1058 00b6 832784FD 		lw	a5,-40(s0)
 1059 00ba 2385E700 		sb	a4,10(a5)
 444:../Firmware/GD32VW55x_standard_peripheral/Source/gd32vw55x_rtc.c ****     rtc_alarm_time->alarm_second = (uint8_t)GET_ALRMTD_SC(reg_alrmtd);
 1060              		.loc 1 444 36
 1061 00be 8327C4FE 		lw	a5,-20(s0)
 1062 00c2 93F7F70F 		andi	a5,a5,0xff
 1063 00c6 93F7F707 		andi	a5,a5,127
 1064 00ca 13F7F70F 		andi	a4,a5,0xff
 1065              		.loc 1 444 34
 1066 00ce 832784FD 		lw	a5,-40(s0)
 1067 00d2 A385E700 		sb	a4,11(a5)
 445:../Firmware/GD32VW55x_standard_peripheral/Source/gd32vw55x_rtc.c **** }
 1068              		.loc 1 445 1
 1069 00d6 0100     		nop
 1070 00d8 3254     		lw	s0,44(sp)
 1071              		.cfi_restore 8
 1072              		.cfi_def_cfa 2, 48
 1073 00da 4561     		addi	sp,sp,48
 1074              		.cfi_def_cfa_offset 0
 1075 00dc 8280     		jr	ra
 1076              		.cfi_endproc
 1077              	.LFE356:
 1079              		.section	.text.rtc_alarm_subsecond_get,"ax",@progbits
 1080              		.align	1
 1081              		.globl	rtc_alarm_subsecond_get
 1083              	rtc_alarm_subsecond_get:
 1084              	.LFB357:
 446:../Firmware/GD32VW55x_standard_peripheral/Source/gd32vw55x_rtc.c **** 
 447:../Firmware/GD32VW55x_standard_peripheral/Source/gd32vw55x_rtc.c **** /*!
 448:../Firmware/GD32VW55x_standard_peripheral/Source/gd32vw55x_rtc.c ****     \brief      get RTC alarm subsecond
 449:../Firmware/GD32VW55x_standard_peripheral/Source/gd32vw55x_rtc.c ****     \param[in]  rtc_alarm: RTC_ALARM0 or RTC_ALARM1
 450:../Firmware/GD32VW55x_standard_peripheral/Source/gd32vw55x_rtc.c ****     \param[out] none
 451:../Firmware/GD32VW55x_standard_peripheral/Source/gd32vw55x_rtc.c ****     \retval     RTC alarm subsecond value
 452:../Firmware/GD32VW55x_standard_peripheral/Source/gd32vw55x_rtc.c **** */
 453:../Firmware/GD32VW55x_standard_peripheral/Source/gd32vw55x_rtc.c **** uint32_t rtc_alarm_subsecond_get(uint8_t rtc_alarm)
 454:../Firmware/GD32VW55x_standard_peripheral/Source/gd32vw55x_rtc.c **** {
 1085              		.loc 1 454 1
 1086              		.cfi_startproc
 1087 0000 0111     		addi	sp,sp,-32
 1088              		.cfi_def_cfa_offset 32
 1089 0002 22CE     		sw	s0,28(sp)
 1090              		.cfi_offset 8, -4
 1091 0004 0010     		addi	s0,sp,32
 1092              		.cfi_def_cfa 8, 0
 1093 0006 AA87     		mv	a5,a0
 1094 0008 A307F4FE 		sb	a5,-17(s0)
 455:../Firmware/GD32VW55x_standard_peripheral/Source/gd32vw55x_rtc.c ****     if(RTC_ALARM0 == rtc_alarm) {
 1095              		.loc 1 455 7
 1096 000c 0347F4FE 		lbu	a4,-17(s0)
 1097 0010 8547     		li	a5,1
 1098 0012 631BF700 		bne	a4,a5,.L37
 456:../Firmware/GD32VW55x_standard_peripheral/Source/gd32vw55x_rtc.c ****         return ((uint32_t)(RTC_ALRM0SS & RTC_ALRMXSS_SSC));
 1099              		.loc 1 456 17
 1100 0016 B7370040 		li	a5,1073754112
 1101 001a 93874784 		addi	a5,a5,-1980
 1102 001e 9843     		lw	a4,0(a5)
 1103 0020 A167     		li	a5,32768
 1104 0022 FD17     		addi	a5,a5,-1
 1105 0024 F98F     		and	a5,a4,a5
 1106 0026 09A8     		j	.L38
 1107              	.L37:
 457:../Firmware/GD32VW55x_standard_peripheral/Source/gd32vw55x_rtc.c ****     } else {
 458:../Firmware/GD32VW55x_standard_peripheral/Source/gd32vw55x_rtc.c ****         return ((uint32_t)(RTC_ALRM1SS & RTC_ALRMXSS_SSC));
 1108              		.loc 1 458 17
 1109 0028 B7370040 		li	a5,1073754112
 1110 002c 93878784 		addi	a5,a5,-1976
 1111 0030 9843     		lw	a4,0(a5)
 1112 0032 A167     		li	a5,32768
 1113 0034 FD17     		addi	a5,a5,-1
 1114 0036 F98F     		and	a5,a4,a5
 1115              	.L38:
 459:../Firmware/GD32VW55x_standard_peripheral/Source/gd32vw55x_rtc.c ****     }
 460:../Firmware/GD32VW55x_standard_peripheral/Source/gd32vw55x_rtc.c **** }
 1116              		.loc 1 460 1
 1117 0038 3E85     		mv	a0,a5
 1118 003a 7244     		lw	s0,28(sp)
 1119              		.cfi_restore 8
 1120              		.cfi_def_cfa 2, 32
 1121 003c 0561     		addi	sp,sp,32
 1122              		.cfi_def_cfa_offset 0
 1123 003e 8280     		jr	ra
 1124              		.cfi_endproc
 1125              	.LFE357:
 1127              		.section	.text.rtc_alarm_enable,"ax",@progbits
 1128              		.align	1
 1129              		.globl	rtc_alarm_enable
 1131              	rtc_alarm_enable:
 1132              	.LFB358:
 461:../Firmware/GD32VW55x_standard_peripheral/Source/gd32vw55x_rtc.c **** 
 462:../Firmware/GD32VW55x_standard_peripheral/Source/gd32vw55x_rtc.c **** /*!
 463:../Firmware/GD32VW55x_standard_peripheral/Source/gd32vw55x_rtc.c ****     \brief      enable RTC alarm
 464:../Firmware/GD32VW55x_standard_peripheral/Source/gd32vw55x_rtc.c ****     \param[in]  rtc_alarm: RTC_ALARM0 or RTC_ALARM1
 465:../Firmware/GD32VW55x_standard_peripheral/Source/gd32vw55x_rtc.c ****     \param[out] none
 466:../Firmware/GD32VW55x_standard_peripheral/Source/gd32vw55x_rtc.c ****     \retval     none
 467:../Firmware/GD32VW55x_standard_peripheral/Source/gd32vw55x_rtc.c **** */
 468:../Firmware/GD32VW55x_standard_peripheral/Source/gd32vw55x_rtc.c **** void rtc_alarm_enable(uint8_t rtc_alarm)
 469:../Firmware/GD32VW55x_standard_peripheral/Source/gd32vw55x_rtc.c **** {
 1133              		.loc 1 469 1
 1134              		.cfi_startproc
 1135 0000 0111     		addi	sp,sp,-32
 1136              		.cfi_def_cfa_offset 32
 1137 0002 22CE     		sw	s0,28(sp)
 1138              		.cfi_offset 8, -4
 1139 0004 0010     		addi	s0,sp,32
 1140              		.cfi_def_cfa 8, 0
 1141 0006 AA87     		mv	a5,a0
 1142 0008 A307F4FE 		sb	a5,-17(s0)
 470:../Firmware/GD32VW55x_standard_peripheral/Source/gd32vw55x_rtc.c ****     /* disable the write protection */
 471:../Firmware/GD32VW55x_standard_peripheral/Source/gd32vw55x_rtc.c ****     RTC_WPK = RTC_UNLOCK_KEY1;
 1143              		.loc 1 471 5
 1144 000c B7370040 		li	a5,1073754112
 1145 0010 93874782 		addi	a5,a5,-2012
 1146              		.loc 1 471 13
 1147 0014 1307A00C 		li	a4,202
 1148 0018 98C3     		sw	a4,0(a5)
 472:../Firmware/GD32VW55x_standard_peripheral/Source/gd32vw55x_rtc.c ****     RTC_WPK = RTC_UNLOCK_KEY2;
 1149              		.loc 1 472 5
 1150 001a B7370040 		li	a5,1073754112
 1151 001e 93874782 		addi	a5,a5,-2012
 1152              		.loc 1 472 13
 1153 0022 13073005 		li	a4,83
 1154 0026 98C3     		sw	a4,0(a5)
 473:../Firmware/GD32VW55x_standard_peripheral/Source/gd32vw55x_rtc.c **** 
 474:../Firmware/GD32VW55x_standard_peripheral/Source/gd32vw55x_rtc.c ****     if(RTC_ALARM0 == rtc_alarm) {
 1155              		.loc 1 474 7
 1156 0028 0347F4FE 		lbu	a4,-17(s0)
 1157 002c 8547     		li	a5,1
 1158 002e 631FF700 		bne	a4,a5,.L40
 475:../Firmware/GD32VW55x_standard_peripheral/Source/gd32vw55x_rtc.c ****         RTC_CTL |= RTC_CTL_ALRM0EN;
 1159              		.loc 1 475 17
 1160 0032 B7370040 		li	a5,1073754112
 1161 0036 93878780 		addi	a5,a5,-2040
 1162 003a 9843     		lw	a4,0(a5)
 1163 003c B7370040 		li	a5,1073754112
 1164 0040 93878780 		addi	a5,a5,-2040
 1165 0044 13670710 		ori	a4,a4,256
 1166 0048 98C3     		sw	a4,0(a5)
 1167 004a 29A8     		j	.L41
 1168              	.L40:
 476:../Firmware/GD32VW55x_standard_peripheral/Source/gd32vw55x_rtc.c ****     } else {
 477:../Firmware/GD32VW55x_standard_peripheral/Source/gd32vw55x_rtc.c ****         RTC_CTL |= RTC_CTL_ALRM1EN;
 1169              		.loc 1 477 17
 1170 004c B7370040 		li	a5,1073754112
 1171 0050 93878780 		addi	a5,a5,-2040
 1172 0054 9843     		lw	a4,0(a5)
 1173 0056 B7370040 		li	a5,1073754112
 1174 005a 93878780 		addi	a5,a5,-2040
 1175 005e 13670720 		ori	a4,a4,512
 1176 0062 98C3     		sw	a4,0(a5)
 1177              	.L41:
 478:../Firmware/GD32VW55x_standard_peripheral/Source/gd32vw55x_rtc.c ****     }
 479:../Firmware/GD32VW55x_standard_peripheral/Source/gd32vw55x_rtc.c **** 
 480:../Firmware/GD32VW55x_standard_peripheral/Source/gd32vw55x_rtc.c ****     /* enable the write protection */
 481:../Firmware/GD32VW55x_standard_peripheral/Source/gd32vw55x_rtc.c ****     RTC_WPK = RTC_LOCK_KEY;
 1178              		.loc 1 481 5
 1179 0064 B7370040 		li	a5,1073754112
 1180 0068 93874782 		addi	a5,a5,-2012
 1181              		.loc 1 481 13
 1182 006c 1307F00F 		li	a4,255
 1183 0070 98C3     		sw	a4,0(a5)
 482:../Firmware/GD32VW55x_standard_peripheral/Source/gd32vw55x_rtc.c **** }
 1184              		.loc 1 482 1
 1185 0072 0100     		nop
 1186 0074 7244     		lw	s0,28(sp)
 1187              		.cfi_restore 8
 1188              		.cfi_def_cfa 2, 32
 1189 0076 0561     		addi	sp,sp,32
 1190              		.cfi_def_cfa_offset 0
 1191 0078 8280     		jr	ra
 1192              		.cfi_endproc
 1193              	.LFE358:
 1195              		.section	.text.rtc_alarm_disable,"ax",@progbits
 1196              		.align	1
 1197              		.globl	rtc_alarm_disable
 1199              	rtc_alarm_disable:
 1200              	.LFB359:
 483:../Firmware/GD32VW55x_standard_peripheral/Source/gd32vw55x_rtc.c **** 
 484:../Firmware/GD32VW55x_standard_peripheral/Source/gd32vw55x_rtc.c **** /*!
 485:../Firmware/GD32VW55x_standard_peripheral/Source/gd32vw55x_rtc.c ****     \brief      disable RTC alarm
 486:../Firmware/GD32VW55x_standard_peripheral/Source/gd32vw55x_rtc.c ****     \param[in]  rtc_alarm: RTC_ALARM0 or RTC_ALARM1
 487:../Firmware/GD32VW55x_standard_peripheral/Source/gd32vw55x_rtc.c ****     \param[out] none
 488:../Firmware/GD32VW55x_standard_peripheral/Source/gd32vw55x_rtc.c ****     \retval     ErrStatus: ERROR or SUCCESS
 489:../Firmware/GD32VW55x_standard_peripheral/Source/gd32vw55x_rtc.c **** */
 490:../Firmware/GD32VW55x_standard_peripheral/Source/gd32vw55x_rtc.c **** ErrStatus rtc_alarm_disable(uint8_t rtc_alarm)
 491:../Firmware/GD32VW55x_standard_peripheral/Source/gd32vw55x_rtc.c **** {
 1201              		.loc 1 491 1
 1202              		.cfi_startproc
 1203 0000 7971     		addi	sp,sp,-48
 1204              		.cfi_def_cfa_offset 48
 1205 0002 22D6     		sw	s0,44(sp)
 1206              		.cfi_offset 8, -4
 1207 0004 0018     		addi	s0,sp,48
 1208              		.cfi_def_cfa 8, 0
 1209 0006 AA87     		mv	a5,a0
 1210 0008 A30FF4FC 		sb	a5,-33(s0)
 492:../Firmware/GD32VW55x_standard_peripheral/Source/gd32vw55x_rtc.c ****     volatile uint32_t time_index = RTC_ALRMXWF_TIMEOUT;
 1211              		.loc 1 492 23
 1212 000c A167     		li	a5,32768
 1213 000e 2322F4FE 		sw	a5,-28(s0)
 493:../Firmware/GD32VW55x_standard_peripheral/Source/gd32vw55x_rtc.c ****     ErrStatus error_status = ERROR;
 1214              		.loc 1 493 15
 1215 0012 232604FE 		sw	zero,-20(s0)
 494:../Firmware/GD32VW55x_standard_peripheral/Source/gd32vw55x_rtc.c ****     uint32_t flag_status = RESET;
 1216              		.loc 1 494 14
 1217 0016 232404FE 		sw	zero,-24(s0)
 495:../Firmware/GD32VW55x_standard_peripheral/Source/gd32vw55x_rtc.c **** 
 496:../Firmware/GD32VW55x_standard_peripheral/Source/gd32vw55x_rtc.c ****     /* disable the write protection */
 497:../Firmware/GD32VW55x_standard_peripheral/Source/gd32vw55x_rtc.c ****     RTC_WPK = RTC_UNLOCK_KEY1;
 1218              		.loc 1 497 5
 1219 001a B7370040 		li	a5,1073754112
 1220 001e 93874782 		addi	a5,a5,-2012
 1221              		.loc 1 497 13
 1222 0022 1307A00C 		li	a4,202
 1223 0026 98C3     		sw	a4,0(a5)
 498:../Firmware/GD32VW55x_standard_peripheral/Source/gd32vw55x_rtc.c ****     RTC_WPK = RTC_UNLOCK_KEY2;
 1224              		.loc 1 498 5
 1225 0028 B7370040 		li	a5,1073754112
 1226 002c 93874782 		addi	a5,a5,-2012
 1227              		.loc 1 498 13
 1228 0030 13073005 		li	a4,83
 1229 0034 98C3     		sw	a4,0(a5)
 499:../Firmware/GD32VW55x_standard_peripheral/Source/gd32vw55x_rtc.c **** 
 500:../Firmware/GD32VW55x_standard_peripheral/Source/gd32vw55x_rtc.c ****     /* clear the state of alarm */
 501:../Firmware/GD32VW55x_standard_peripheral/Source/gd32vw55x_rtc.c ****     if(RTC_ALARM0 == rtc_alarm) {
 1230              		.loc 1 501 7
 1231 0036 0347F4FD 		lbu	a4,-33(s0)
 1232 003a 8547     		li	a5,1
 1233 003c 6310F704 		bne	a4,a5,.L43
 502:../Firmware/GD32VW55x_standard_peripheral/Source/gd32vw55x_rtc.c ****         RTC_CTL &= (uint32_t)(~RTC_CTL_ALRM0EN);
 1234              		.loc 1 502 17
 1235 0040 B7370040 		li	a5,1073754112
 1236 0044 93878780 		addi	a5,a5,-2040
 1237 0048 9843     		lw	a4,0(a5)
 1238 004a B7370040 		li	a5,1073754112
 1239 004e 93878780 		addi	a5,a5,-2040
 1240 0052 1377F7EF 		andi	a4,a4,-257
 1241 0056 98C3     		sw	a4,0(a5)
 1242              	.L45:
 503:../Firmware/GD32VW55x_standard_peripheral/Source/gd32vw55x_rtc.c ****         /* wait until ALRM0WF flag to be set after the alarm is disabled */
 504:../Firmware/GD32VW55x_standard_peripheral/Source/gd32vw55x_rtc.c ****         do {
 505:../Firmware/GD32VW55x_standard_peripheral/Source/gd32vw55x_rtc.c ****             flag_status = RTC_STAT & RTC_STAT_ALRM0WF;
 1243              		.loc 1 505 27 discriminator 2
 1244 0058 B7370040 		li	a5,1073754112
 1245 005c 9387C780 		addi	a5,a5,-2036
 1246 0060 9C43     		lw	a5,0(a5)
 1247              		.loc 1 505 25 discriminator 2
 1248 0062 858B     		andi	a5,a5,1
 1249 0064 2324F4FE 		sw	a5,-24(s0)
 506:../Firmware/GD32VW55x_standard_peripheral/Source/gd32vw55x_rtc.c ****         } while((--time_index > 0U) && ((uint32_t)RESET == flag_status));
 1250              		.loc 1 506 18 discriminator 2
 1251 0068 832744FE 		lw	a5,-28(s0)
 1252 006c FD17     		addi	a5,a5,-1
 1253              		.loc 1 506 9 discriminator 2
 1254 006e 2322F4FE 		sw	a5,-28(s0)
 1255 0072 B1C3     		beq	a5,zero,.L44
 1256              		.loc 1 506 37 discriminator 1
 1257 0074 832784FE 		lw	a5,-24(s0)
 1258 0078 E5D3     		beq	a5,zero,.L45
 1259 007a 35A8     		j	.L44
 1260              	.L43:
 507:../Firmware/GD32VW55x_standard_peripheral/Source/gd32vw55x_rtc.c ****     } else {
 508:../Firmware/GD32VW55x_standard_peripheral/Source/gd32vw55x_rtc.c ****         RTC_CTL &= (uint32_t)(~RTC_CTL_ALRM1EN);
 1261              		.loc 1 508 17
 1262 007c B7370040 		li	a5,1073754112
 1263 0080 93878780 		addi	a5,a5,-2040
 1264 0084 9843     		lw	a4,0(a5)
 1265 0086 B7370040 		li	a5,1073754112
 1266 008a 93878780 		addi	a5,a5,-2040
 1267 008e 1377F7DF 		andi	a4,a4,-513
 1268 0092 98C3     		sw	a4,0(a5)
 1269              	.L46:
 509:../Firmware/GD32VW55x_standard_peripheral/Source/gd32vw55x_rtc.c ****         /* wait until ALRM1WF flag to be set after the alarm is disabled */
 510:../Firmware/GD32VW55x_standard_peripheral/Source/gd32vw55x_rtc.c ****         do {
 511:../Firmware/GD32VW55x_standard_peripheral/Source/gd32vw55x_rtc.c ****             flag_status = RTC_STAT & RTC_STAT_ALRM1WF;
 1270              		.loc 1 511 27 discriminator 2
 1271 0094 B7370040 		li	a5,1073754112
 1272 0098 9387C780 		addi	a5,a5,-2036
 1273 009c 9C43     		lw	a5,0(a5)
 1274              		.loc 1 511 25 discriminator 2
 1275 009e 898B     		andi	a5,a5,2
 1276 00a0 2324F4FE 		sw	a5,-24(s0)
 512:../Firmware/GD32VW55x_standard_peripheral/Source/gd32vw55x_rtc.c ****         } while((--time_index > 0U) && ((uint32_t)RESET == flag_status));
 1277              		.loc 1 512 18 discriminator 2
 1278 00a4 832744FE 		lw	a5,-28(s0)
 1279 00a8 FD17     		addi	a5,a5,-1
 1280              		.loc 1 512 9 discriminator 2
 1281 00aa 2322F4FE 		sw	a5,-28(s0)
 1282 00ae 81C7     		beq	a5,zero,.L44
 1283              		.loc 1 512 37 discriminator 1
 1284 00b0 832784FE 		lw	a5,-24(s0)
 1285 00b4 E5D3     		beq	a5,zero,.L46
 1286              	.L44:
 513:../Firmware/GD32VW55x_standard_peripheral/Source/gd32vw55x_rtc.c ****     }
 514:../Firmware/GD32VW55x_standard_peripheral/Source/gd32vw55x_rtc.c **** 
 515:../Firmware/GD32VW55x_standard_peripheral/Source/gd32vw55x_rtc.c ****     if((uint32_t)RESET != flag_status) {
 1287              		.loc 1 515 7
 1288 00b6 832784FE 		lw	a5,-24(s0)
 1289 00ba 81C7     		beq	a5,zero,.L47
 516:../Firmware/GD32VW55x_standard_peripheral/Source/gd32vw55x_rtc.c ****         error_status = SUCCESS;
 1290              		.loc 1 516 22
 1291 00bc 8547     		li	a5,1
 1292 00be 2326F4FE 		sw	a5,-20(s0)
 1293              	.L47:
 517:../Firmware/GD32VW55x_standard_peripheral/Source/gd32vw55x_rtc.c ****     }
 518:../Firmware/GD32VW55x_standard_peripheral/Source/gd32vw55x_rtc.c **** 
 519:../Firmware/GD32VW55x_standard_peripheral/Source/gd32vw55x_rtc.c ****     /* enable the write protection */
 520:../Firmware/GD32VW55x_standard_peripheral/Source/gd32vw55x_rtc.c ****     RTC_WPK = RTC_LOCK_KEY;
 1294              		.loc 1 520 5
 1295 00c2 B7370040 		li	a5,1073754112
 1296 00c6 93874782 		addi	a5,a5,-2012
 1297              		.loc 1 520 13
 1298 00ca 1307F00F 		li	a4,255
 1299 00ce 98C3     		sw	a4,0(a5)
 521:../Firmware/GD32VW55x_standard_peripheral/Source/gd32vw55x_rtc.c **** 
 522:../Firmware/GD32VW55x_standard_peripheral/Source/gd32vw55x_rtc.c ****     return error_status;
 1300              		.loc 1 522 12
 1301 00d0 8327C4FE 		lw	a5,-20(s0)
 523:../Firmware/GD32VW55x_standard_peripheral/Source/gd32vw55x_rtc.c **** }
 1302              		.loc 1 523 1
 1303 00d4 3E85     		mv	a0,a5
 1304 00d6 3254     		lw	s0,44(sp)
 1305              		.cfi_restore 8
 1306              		.cfi_def_cfa 2, 48
 1307 00d8 4561     		addi	sp,sp,48
 1308              		.cfi_def_cfa_offset 0
 1309 00da 8280     		jr	ra
 1310              		.cfi_endproc
 1311              	.LFE359:
 1313              		.section	.text.rtc_timestamp_enable,"ax",@progbits
 1314              		.align	1
 1315              		.globl	rtc_timestamp_enable
 1317              	rtc_timestamp_enable:
 1318              	.LFB360:
 524:../Firmware/GD32VW55x_standard_peripheral/Source/gd32vw55x_rtc.c **** 
 525:../Firmware/GD32VW55x_standard_peripheral/Source/gd32vw55x_rtc.c **** /*!
 526:../Firmware/GD32VW55x_standard_peripheral/Source/gd32vw55x_rtc.c ****     \brief      enable RTC time-stamp
 527:../Firmware/GD32VW55x_standard_peripheral/Source/gd32vw55x_rtc.c ****     \param[in]  edge: specify which edge to detect of time-stamp
 528:../Firmware/GD32VW55x_standard_peripheral/Source/gd32vw55x_rtc.c ****       \arg        RTC_TIMESTAMP_RISING_EDGE: rising edge is valid event edge for timestamp event
 529:../Firmware/GD32VW55x_standard_peripheral/Source/gd32vw55x_rtc.c ****       \arg        RTC_TIMESTAMP_FALLING_EDGE: falling edge is valid event edge for timestamp event
 530:../Firmware/GD32VW55x_standard_peripheral/Source/gd32vw55x_rtc.c ****     \param[out] none
 531:../Firmware/GD32VW55x_standard_peripheral/Source/gd32vw55x_rtc.c ****     \retval     none
 532:../Firmware/GD32VW55x_standard_peripheral/Source/gd32vw55x_rtc.c **** */
 533:../Firmware/GD32VW55x_standard_peripheral/Source/gd32vw55x_rtc.c **** void rtc_timestamp_enable(uint32_t edge)
 534:../Firmware/GD32VW55x_standard_peripheral/Source/gd32vw55x_rtc.c **** {
 1319              		.loc 1 534 1
 1320              		.cfi_startproc
 1321 0000 7971     		addi	sp,sp,-48
 1322              		.cfi_def_cfa_offset 48
 1323 0002 22D6     		sw	s0,44(sp)
 1324              		.cfi_offset 8, -4
 1325 0004 0018     		addi	s0,sp,48
 1326              		.cfi_def_cfa 8, 0
 1327 0006 232EA4FC 		sw	a0,-36(s0)
 535:../Firmware/GD32VW55x_standard_peripheral/Source/gd32vw55x_rtc.c ****     uint32_t reg_ctl = 0U;
 1328              		.loc 1 535 14
 1329 000a 232604FE 		sw	zero,-20(s0)
 536:../Firmware/GD32VW55x_standard_peripheral/Source/gd32vw55x_rtc.c **** 
 537:../Firmware/GD32VW55x_standard_peripheral/Source/gd32vw55x_rtc.c ****     /* disable the write protection */
 538:../Firmware/GD32VW55x_standard_peripheral/Source/gd32vw55x_rtc.c ****     RTC_WPK = RTC_UNLOCK_KEY1;
 1330              		.loc 1 538 5
 1331 000e B7370040 		li	a5,1073754112
 1332 0012 93874782 		addi	a5,a5,-2012
 1333              		.loc 1 538 13
 1334 0016 1307A00C 		li	a4,202
 1335 001a 98C3     		sw	a4,0(a5)
 539:../Firmware/GD32VW55x_standard_peripheral/Source/gd32vw55x_rtc.c ****     RTC_WPK = RTC_UNLOCK_KEY2;
 1336              		.loc 1 539 5
 1337 001c B7370040 		li	a5,1073754112
 1338 0020 93874782 		addi	a5,a5,-2012
 1339              		.loc 1 539 13
 1340 0024 13073005 		li	a4,83
 1341 0028 98C3     		sw	a4,0(a5)
 540:../Firmware/GD32VW55x_standard_peripheral/Source/gd32vw55x_rtc.c **** 
 541:../Firmware/GD32VW55x_standard_peripheral/Source/gd32vw55x_rtc.c ****     /* clear the bits to be configured in RTC_CTL */
 542:../Firmware/GD32VW55x_standard_peripheral/Source/gd32vw55x_rtc.c ****     reg_ctl = (uint32_t)(RTC_CTL & (uint32_t)(~(RTC_CTL_TSEG | RTC_CTL_TSEN)));
 1342              		.loc 1 542 26
 1343 002a B7370040 		li	a5,1073754112
 1344 002e 93878780 		addi	a5,a5,-2040
 1345 0032 9843     		lw	a4,0(a5)
 1346              		.loc 1 542 13
 1347 0034 FD77     		li	a5,-4096
 1348 0036 9387777F 		addi	a5,a5,2039
 1349 003a F98F     		and	a5,a4,a5
 1350 003c 2326F4FE 		sw	a5,-20(s0)
 543:../Firmware/GD32VW55x_standard_peripheral/Source/gd32vw55x_rtc.c **** 
 544:../Firmware/GD32VW55x_standard_peripheral/Source/gd32vw55x_rtc.c ****     /* new configuration */
 545:../Firmware/GD32VW55x_standard_peripheral/Source/gd32vw55x_rtc.c ****     reg_ctl |= (uint32_t)(edge | RTC_CTL_TSEN);
 1351              		.loc 1 545 13
 1352 0040 0327C4FD 		lw	a4,-36(s0)
 1353 0044 8327C4FE 		lw	a5,-20(s0)
 1354 0048 5D8F     		or	a4,a4,a5
 1355 004a 8567     		li	a5,4096
 1356 004c 93870780 		addi	a5,a5,-2048
 1357 0050 D98F     		or	a5,a4,a5
 1358 0052 2326F4FE 		sw	a5,-20(s0)
 546:../Firmware/GD32VW55x_standard_peripheral/Source/gd32vw55x_rtc.c **** 
 547:../Firmware/GD32VW55x_standard_peripheral/Source/gd32vw55x_rtc.c ****     RTC_CTL = (uint32_t)reg_ctl;
 1359              		.loc 1 547 5
 1360 0056 B7370040 		li	a5,1073754112
 1361 005a 93878780 		addi	a5,a5,-2040
 1362              		.loc 1 547 13
 1363 005e 0327C4FE 		lw	a4,-20(s0)
 1364 0062 98C3     		sw	a4,0(a5)
 548:../Firmware/GD32VW55x_standard_peripheral/Source/gd32vw55x_rtc.c ****     /* enable the write protection */
 549:../Firmware/GD32VW55x_standard_peripheral/Source/gd32vw55x_rtc.c ****     RTC_WPK = RTC_LOCK_KEY;
 1365              		.loc 1 549 5
 1366 0064 B7370040 		li	a5,1073754112
 1367 0068 93874782 		addi	a5,a5,-2012
 1368              		.loc 1 549 13
 1369 006c 1307F00F 		li	a4,255
 1370 0070 98C3     		sw	a4,0(a5)
 550:../Firmware/GD32VW55x_standard_peripheral/Source/gd32vw55x_rtc.c **** }
 1371              		.loc 1 550 1
 1372 0072 0100     		nop
 1373 0074 3254     		lw	s0,44(sp)
 1374              		.cfi_restore 8
 1375              		.cfi_def_cfa 2, 48
 1376 0076 4561     		addi	sp,sp,48
 1377              		.cfi_def_cfa_offset 0
 1378 0078 8280     		jr	ra
 1379              		.cfi_endproc
 1380              	.LFE360:
 1382              		.section	.text.rtc_timestamp_disable,"ax",@progbits
 1383              		.align	1
 1384              		.globl	rtc_timestamp_disable
 1386              	rtc_timestamp_disable:
 1387              	.LFB361:
 551:../Firmware/GD32VW55x_standard_peripheral/Source/gd32vw55x_rtc.c **** 
 552:../Firmware/GD32VW55x_standard_peripheral/Source/gd32vw55x_rtc.c **** /*!
 553:../Firmware/GD32VW55x_standard_peripheral/Source/gd32vw55x_rtc.c ****     \brief      disable RTC time-stamp
 554:../Firmware/GD32VW55x_standard_peripheral/Source/gd32vw55x_rtc.c ****     \param[in]  none
 555:../Firmware/GD32VW55x_standard_peripheral/Source/gd32vw55x_rtc.c ****     \param[out] none
 556:../Firmware/GD32VW55x_standard_peripheral/Source/gd32vw55x_rtc.c ****     \retval     none
 557:../Firmware/GD32VW55x_standard_peripheral/Source/gd32vw55x_rtc.c **** */
 558:../Firmware/GD32VW55x_standard_peripheral/Source/gd32vw55x_rtc.c **** void rtc_timestamp_disable(void)
 559:../Firmware/GD32VW55x_standard_peripheral/Source/gd32vw55x_rtc.c **** {
 1388              		.loc 1 559 1
 1389              		.cfi_startproc
 1390 0000 4111     		addi	sp,sp,-16
 1391              		.cfi_def_cfa_offset 16
 1392 0002 22C6     		sw	s0,12(sp)
 1393              		.cfi_offset 8, -4
 1394 0004 0008     		addi	s0,sp,16
 1395              		.cfi_def_cfa 8, 0
 560:../Firmware/GD32VW55x_standard_peripheral/Source/gd32vw55x_rtc.c ****     /* disable the write protection */
 561:../Firmware/GD32VW55x_standard_peripheral/Source/gd32vw55x_rtc.c ****     RTC_WPK = RTC_UNLOCK_KEY1;
 1396              		.loc 1 561 5
 1397 0006 B7370040 		li	a5,1073754112
 1398 000a 93874782 		addi	a5,a5,-2012
 1399              		.loc 1 561 13
 1400 000e 1307A00C 		li	a4,202
 1401 0012 98C3     		sw	a4,0(a5)
 562:../Firmware/GD32VW55x_standard_peripheral/Source/gd32vw55x_rtc.c ****     RTC_WPK = RTC_UNLOCK_KEY2;
 1402              		.loc 1 562 5
 1403 0014 B7370040 		li	a5,1073754112
 1404 0018 93874782 		addi	a5,a5,-2012
 1405              		.loc 1 562 13
 1406 001c 13073005 		li	a4,83
 1407 0020 98C3     		sw	a4,0(a5)
 563:../Firmware/GD32VW55x_standard_peripheral/Source/gd32vw55x_rtc.c **** 
 564:../Firmware/GD32VW55x_standard_peripheral/Source/gd32vw55x_rtc.c ****     /* clear the TSEN bit */
 565:../Firmware/GD32VW55x_standard_peripheral/Source/gd32vw55x_rtc.c ****     RTC_CTL &= (uint32_t)(~ RTC_CTL_TSEN);
 1408              		.loc 1 565 13
 1409 0022 B7370040 		li	a5,1073754112
 1410 0026 93878780 		addi	a5,a5,-2040
 1411 002a 9443     		lw	a3,0(a5)
 1412 002c B7370040 		li	a5,1073754112
 1413 0030 93878780 		addi	a5,a5,-2040
 1414 0034 7D77     		li	a4,-4096
 1415 0036 1307F77F 		addi	a4,a4,2047
 1416 003a 758F     		and	a4,a3,a4
 1417 003c 98C3     		sw	a4,0(a5)
 566:../Firmware/GD32VW55x_standard_peripheral/Source/gd32vw55x_rtc.c **** 
 567:../Firmware/GD32VW55x_standard_peripheral/Source/gd32vw55x_rtc.c ****     /* enable the write protection */
 568:../Firmware/GD32VW55x_standard_peripheral/Source/gd32vw55x_rtc.c ****     RTC_WPK = RTC_LOCK_KEY;
 1418              		.loc 1 568 5
 1419 003e B7370040 		li	a5,1073754112
 1420 0042 93874782 		addi	a5,a5,-2012
 1421              		.loc 1 568 13
 1422 0046 1307F00F 		li	a4,255
 1423 004a 98C3     		sw	a4,0(a5)
 569:../Firmware/GD32VW55x_standard_peripheral/Source/gd32vw55x_rtc.c **** }
 1424              		.loc 1 569 1
 1425 004c 0100     		nop
 1426 004e 3244     		lw	s0,12(sp)
 1427              		.cfi_restore 8
 1428              		.cfi_def_cfa 2, 16
 1429 0050 4101     		addi	sp,sp,16
 1430              		.cfi_def_cfa_offset 0
 1431 0052 8280     		jr	ra
 1432              		.cfi_endproc
 1433              	.LFE361:
 1435              		.section	.text.rtc_timestamp_get,"ax",@progbits
 1436              		.align	1
 1437              		.globl	rtc_timestamp_get
 1439              	rtc_timestamp_get:
 1440              	.LFB362:
 570:../Firmware/GD32VW55x_standard_peripheral/Source/gd32vw55x_rtc.c **** 
 571:../Firmware/GD32VW55x_standard_peripheral/Source/gd32vw55x_rtc.c **** /*!
 572:../Firmware/GD32VW55x_standard_peripheral/Source/gd32vw55x_rtc.c ****     \brief      get RTC timestamp time and date
 573:../Firmware/GD32VW55x_standard_peripheral/Source/gd32vw55x_rtc.c ****     \param[in]  none
 574:../Firmware/GD32VW55x_standard_peripheral/Source/gd32vw55x_rtc.c ****     \param[out] rtc_timestamp: pointer to a rtc_timestamp_struct structure which contains
 575:../Firmware/GD32VW55x_standard_peripheral/Source/gd32vw55x_rtc.c ****                 parameters for RTC time-stamp configuration
 576:../Firmware/GD32VW55x_standard_peripheral/Source/gd32vw55x_rtc.c ****                 members of the structure and the member values are shown as below:
 577:../Firmware/GD32VW55x_standard_peripheral/Source/gd32vw55x_rtc.c ****                   timestamp_month: RTC_JAN, RTC_FEB, RTC_MAR, RTC_APR, RTC_MAY, RTC_JUN,
 578:../Firmware/GD32VW55x_standard_peripheral/Source/gd32vw55x_rtc.c ****                                        RTC_JUL, RTC_AUG, RTC_SEP, RTC_OCT, RTC_NOV, RTC_DEC
 579:../Firmware/GD32VW55x_standard_peripheral/Source/gd32vw55x_rtc.c ****                   timestamp_date: 0x1 - 0x31(BCD format)
 580:../Firmware/GD32VW55x_standard_peripheral/Source/gd32vw55x_rtc.c ****                   timestamp_day: RTC_MONDAY, RTC_TUESDAY, RTC_WEDNESDAY, RTC_THURSDAY, RTC_FRIDAY,
 581:../Firmware/GD32VW55x_standard_peripheral/Source/gd32vw55x_rtc.c ****                                      RTC_SATURDAY, RTC_SUNDAY
 582:../Firmware/GD32VW55x_standard_peripheral/Source/gd32vw55x_rtc.c ****                   timestamp_hour: 0x0 - 0x12(BCD format) or 0x0 - 0x23(BCD format) depending on the
 583:../Firmware/GD32VW55x_standard_peripheral/Source/gd32vw55x_rtc.c ****                   timestamp_minute: 0x0 - 0x59(BCD format)
 584:../Firmware/GD32VW55x_standard_peripheral/Source/gd32vw55x_rtc.c ****                   timestamp_second: 0x0 - 0x59(BCD format)
 585:../Firmware/GD32VW55x_standard_peripheral/Source/gd32vw55x_rtc.c ****                   am_pm: RTC_AM, RTC_PM
 586:../Firmware/GD32VW55x_standard_peripheral/Source/gd32vw55x_rtc.c ****     \retval     none
 587:../Firmware/GD32VW55x_standard_peripheral/Source/gd32vw55x_rtc.c **** */
 588:../Firmware/GD32VW55x_standard_peripheral/Source/gd32vw55x_rtc.c **** void rtc_timestamp_get(rtc_timestamp_struct *rtc_timestamp)
 589:../Firmware/GD32VW55x_standard_peripheral/Source/gd32vw55x_rtc.c **** {
 1441              		.loc 1 589 1
 1442              		.cfi_startproc
 1443 0000 7971     		addi	sp,sp,-48
 1444              		.cfi_def_cfa_offset 48
 1445 0002 22D6     		sw	s0,44(sp)
 1446              		.cfi_offset 8, -4
 1447 0004 0018     		addi	s0,sp,48
 1448              		.cfi_def_cfa 8, 0
 1449 0006 232EA4FC 		sw	a0,-36(s0)
 590:../Firmware/GD32VW55x_standard_peripheral/Source/gd32vw55x_rtc.c ****     uint32_t temp_tts = 0U, temp_dts = 0U;
 1450              		.loc 1 590 14
 1451 000a 232604FE 		sw	zero,-20(s0)
 1452              		.loc 1 590 29
 1453 000e 232404FE 		sw	zero,-24(s0)
 591:../Firmware/GD32VW55x_standard_peripheral/Source/gd32vw55x_rtc.c **** 
 592:../Firmware/GD32VW55x_standard_peripheral/Source/gd32vw55x_rtc.c ****     /* get the value of time_stamp registers */
 593:../Firmware/GD32VW55x_standard_peripheral/Source/gd32vw55x_rtc.c ****     temp_tts = (uint32_t)RTC_TTS;
 1454              		.loc 1 593 16
 1455 0012 B7370040 		li	a5,1073754112
 1456 0016 93870783 		addi	a5,a5,-2000
 1457              		.loc 1 593 14
 1458 001a 9C43     		lw	a5,0(a5)
 1459 001c 2326F4FE 		sw	a5,-20(s0)
 594:../Firmware/GD32VW55x_standard_peripheral/Source/gd32vw55x_rtc.c ****     temp_dts = (uint32_t)RTC_DTS;
 1460              		.loc 1 594 16
 1461 0020 B7370040 		li	a5,1073754112
 1462 0024 93874783 		addi	a5,a5,-1996
 1463              		.loc 1 594 14
 1464 0028 9C43     		lw	a5,0(a5)
 1465 002a 2324F4FE 		sw	a5,-24(s0)
 595:../Firmware/GD32VW55x_standard_peripheral/Source/gd32vw55x_rtc.c **** 
 596:../Firmware/GD32VW55x_standard_peripheral/Source/gd32vw55x_rtc.c ****     /* get timestamp time and construct the rtc_timestamp_struct structure */
 597:../Firmware/GD32VW55x_standard_peripheral/Source/gd32vw55x_rtc.c ****     rtc_timestamp->am_pm = (uint32_t)(temp_tts & RTC_TTS_PM);
 1466              		.loc 1 597 28
 1467 002e 0327C4FE 		lw	a4,-20(s0)
 1468 0032 B7074000 		li	a5,4194304
 1469 0036 7D8F     		and	a4,a4,a5
 1470              		.loc 1 597 26
 1471 0038 8327C4FD 		lw	a5,-36(s0)
 1472 003c 98C7     		sw	a4,8(a5)
 598:../Firmware/GD32VW55x_standard_peripheral/Source/gd32vw55x_rtc.c ****     rtc_timestamp->timestamp_month = (uint8_t)GET_DTS_MON(temp_dts);
 1473              		.loc 1 598 47
 1474 003e 832784FE 		lw	a5,-24(s0)
 1475 0042 A183     		srli	a5,a5,8
 1476              		.loc 1 598 38
 1477 0044 93F7F70F 		andi	a5,a5,0xff
 1478 0048 FD8B     		andi	a5,a5,31
 1479 004a 13F7F70F 		andi	a4,a5,0xff
 1480              		.loc 1 598 36
 1481 004e 8327C4FD 		lw	a5,-36(s0)
 1482 0052 2380E700 		sb	a4,0(a5)
 599:../Firmware/GD32VW55x_standard_peripheral/Source/gd32vw55x_rtc.c ****     rtc_timestamp->timestamp_date = (uint8_t)GET_DTS_DAY(temp_dts);
 1483              		.loc 1 599 37
 1484 0056 832784FE 		lw	a5,-24(s0)
 1485 005a 93F7F70F 		andi	a5,a5,0xff
 1486 005e 93F7F703 		andi	a5,a5,63
 1487 0062 13F7F70F 		andi	a4,a5,0xff
 1488              		.loc 1 599 35
 1489 0066 8327C4FD 		lw	a5,-36(s0)
 1490 006a A380E700 		sb	a4,1(a5)
 600:../Firmware/GD32VW55x_standard_peripheral/Source/gd32vw55x_rtc.c ****     rtc_timestamp->timestamp_day = (uint8_t)GET_DTS_DOW(temp_dts);
 1491              		.loc 1 600 45
 1492 006e 832784FE 		lw	a5,-24(s0)
 1493 0072 B583     		srli	a5,a5,13
 1494              		.loc 1 600 36
 1495 0074 93F7F70F 		andi	a5,a5,0xff
 1496 0078 9D8B     		andi	a5,a5,7
 1497 007a 13F7F70F 		andi	a4,a5,0xff
 1498              		.loc 1 600 34
 1499 007e 8327C4FD 		lw	a5,-36(s0)
 1500 0082 2381E700 		sb	a4,2(a5)
 601:../Firmware/GD32VW55x_standard_peripheral/Source/gd32vw55x_rtc.c ****     rtc_timestamp->timestamp_hour = (uint8_t)GET_TTS_HR(temp_tts);
 1501              		.loc 1 601 46
 1502 0086 8327C4FE 		lw	a5,-20(s0)
 1503 008a C183     		srli	a5,a5,16
 1504              		.loc 1 601 37
 1505 008c 93F7F70F 		andi	a5,a5,0xff
 1506 0090 93F7F703 		andi	a5,a5,63
 1507 0094 13F7F70F 		andi	a4,a5,0xff
 1508              		.loc 1 601 35
 1509 0098 8327C4FD 		lw	a5,-36(s0)
 1510 009c A381E700 		sb	a4,3(a5)
 602:../Firmware/GD32VW55x_standard_peripheral/Source/gd32vw55x_rtc.c ****     rtc_timestamp->timestamp_minute = (uint8_t)GET_TTS_MN(temp_tts);
 1511              		.loc 1 602 48
 1512 00a0 8327C4FE 		lw	a5,-20(s0)
 1513 00a4 A183     		srli	a5,a5,8
 1514              		.loc 1 602 39
 1515 00a6 93F7F70F 		andi	a5,a5,0xff
 1516 00aa 93F7F707 		andi	a5,a5,127
 1517 00ae 13F7F70F 		andi	a4,a5,0xff
 1518              		.loc 1 602 37
 1519 00b2 8327C4FD 		lw	a5,-36(s0)
 1520 00b6 2382E700 		sb	a4,4(a5)
 603:../Firmware/GD32VW55x_standard_peripheral/Source/gd32vw55x_rtc.c ****     rtc_timestamp->timestamp_second = (uint8_t)GET_TTS_SC(temp_tts);
 1521              		.loc 1 603 39
 1522 00ba 8327C4FE 		lw	a5,-20(s0)
 1523 00be 93F7F70F 		andi	a5,a5,0xff
 1524 00c2 93F7F707 		andi	a5,a5,127
 1525 00c6 13F7F70F 		andi	a4,a5,0xff
 1526              		.loc 1 603 37
 1527 00ca 8327C4FD 		lw	a5,-36(s0)
 1528 00ce A382E700 		sb	a4,5(a5)
 604:../Firmware/GD32VW55x_standard_peripheral/Source/gd32vw55x_rtc.c **** }
 1529              		.loc 1 604 1
 1530 00d2 0100     		nop
 1531 00d4 3254     		lw	s0,44(sp)
 1532              		.cfi_restore 8
 1533              		.cfi_def_cfa 2, 48
 1534 00d6 4561     		addi	sp,sp,48
 1535              		.cfi_def_cfa_offset 0
 1536 00d8 8280     		jr	ra
 1537              		.cfi_endproc
 1538              	.LFE362:
 1540              		.section	.text.rtc_timestamp_subsecond_get,"ax",@progbits
 1541              		.align	1
 1542              		.globl	rtc_timestamp_subsecond_get
 1544              	rtc_timestamp_subsecond_get:
 1545              	.LFB363:
 605:../Firmware/GD32VW55x_standard_peripheral/Source/gd32vw55x_rtc.c **** 
 606:../Firmware/GD32VW55x_standard_peripheral/Source/gd32vw55x_rtc.c **** /*!
 607:../Firmware/GD32VW55x_standard_peripheral/Source/gd32vw55x_rtc.c ****     \brief      get RTC time-stamp subsecond
 608:../Firmware/GD32VW55x_standard_peripheral/Source/gd32vw55x_rtc.c ****     \param[in]  none
 609:../Firmware/GD32VW55x_standard_peripheral/Source/gd32vw55x_rtc.c ****     \param[out] none
 610:../Firmware/GD32VW55x_standard_peripheral/Source/gd32vw55x_rtc.c ****     \retval     RTC time-stamp subsecond value
 611:../Firmware/GD32VW55x_standard_peripheral/Source/gd32vw55x_rtc.c **** */
 612:../Firmware/GD32VW55x_standard_peripheral/Source/gd32vw55x_rtc.c **** uint32_t rtc_timestamp_subsecond_get(void)
 613:../Firmware/GD32VW55x_standard_peripheral/Source/gd32vw55x_rtc.c **** {
 1546              		.loc 1 613 1
 1547              		.cfi_startproc
 1548 0000 4111     		addi	sp,sp,-16
 1549              		.cfi_def_cfa_offset 16
 1550 0002 22C6     		sw	s0,12(sp)
 1551              		.cfi_offset 8, -4
 1552 0004 0008     		addi	s0,sp,16
 1553              		.cfi_def_cfa 8, 0
 614:../Firmware/GD32VW55x_standard_peripheral/Source/gd32vw55x_rtc.c ****     return ((uint32_t)RTC_SSTS);
 1554              		.loc 1 614 13
 1555 0006 B7370040 		li	a5,1073754112
 1556 000a 93878783 		addi	a5,a5,-1992
 1557 000e 9C43     		lw	a5,0(a5)
 615:../Firmware/GD32VW55x_standard_peripheral/Source/gd32vw55x_rtc.c **** }
 1558              		.loc 1 615 1
 1559 0010 3E85     		mv	a0,a5
 1560 0012 3244     		lw	s0,12(sp)
 1561              		.cfi_restore 8
 1562              		.cfi_def_cfa 2, 16
 1563 0014 4101     		addi	sp,sp,16
 1564              		.cfi_def_cfa_offset 0
 1565 0016 8280     		jr	ra
 1566              		.cfi_endproc
 1567              	.LFE363:
 1569              		.section	.text.rtc_tamper_enable,"ax",@progbits
 1570              		.align	1
 1571              		.globl	rtc_tamper_enable
 1573              	rtc_tamper_enable:
 1574              	.LFB364:
 616:../Firmware/GD32VW55x_standard_peripheral/Source/gd32vw55x_rtc.c **** 
 617:../Firmware/GD32VW55x_standard_peripheral/Source/gd32vw55x_rtc.c **** /*!
 618:../Firmware/GD32VW55x_standard_peripheral/Source/gd32vw55x_rtc.c ****     \brief      enable RTC tamper
 619:../Firmware/GD32VW55x_standard_peripheral/Source/gd32vw55x_rtc.c ****     \param[in]  rtc_tamper: pointer to a rtc_tamper_struct structure which contains
 620:../Firmware/GD32VW55x_standard_peripheral/Source/gd32vw55x_rtc.c ****                 parameters for RTC tamper configuration
 621:../Firmware/GD32VW55x_standard_peripheral/Source/gd32vw55x_rtc.c ****                 members of the structure and the member values are shown as below:
 622:../Firmware/GD32VW55x_standard_peripheral/Source/gd32vw55x_rtc.c ****                   detecting tamper event can using edge mode or level mode
 623:../Firmware/GD32VW55x_standard_peripheral/Source/gd32vw55x_rtc.c ****                   (1) using edge mode configuration:
 624:../Firmware/GD32VW55x_standard_peripheral/Source/gd32vw55x_rtc.c ****                   tamper_source: RTC_TAMPER0, RTC_TAMPER1
 625:../Firmware/GD32VW55x_standard_peripheral/Source/gd32vw55x_rtc.c ****                   tamper_trigger: RTC_TAMPER_TRIGGER_EDGE_RISING, RTC_TAMPER_TRIGGER_EDGE_FALLING
 626:../Firmware/GD32VW55x_standard_peripheral/Source/gd32vw55x_rtc.c ****                   tamper_filter: RTC_FLT_EDGE
 627:../Firmware/GD32VW55x_standard_peripheral/Source/gd32vw55x_rtc.c ****                   tamper_with_timestamp: DISABLE, ENABLE
 628:../Firmware/GD32VW55x_standard_peripheral/Source/gd32vw55x_rtc.c ****                   (2) using level mode configuration:
 629:../Firmware/GD32VW55x_standard_peripheral/Source/gd32vw55x_rtc.c ****                   tamper_source: RTC_TAMPER0, RTC_TAMPER1
 630:../Firmware/GD32VW55x_standard_peripheral/Source/gd32vw55x_rtc.c ****                   tamper_trigger:RTC_TAMPER_TRIGGER_LEVEL_LOW, RTC_TAMPER_TRIGGER_LEVEL_HIGH
 631:../Firmware/GD32VW55x_standard_peripheral/Source/gd32vw55x_rtc.c ****                   tamper_filter: RTC_FLT_2S, RTC_FLT_4S, RTC_FLT_8S
 632:../Firmware/GD32VW55x_standard_peripheral/Source/gd32vw55x_rtc.c ****                   tamper_sample_frequency: RTC_FREQ_DIV32768, RTC_FREQ_DIV16384, RTC_FREQ_DIV8192,
 633:../Firmware/GD32VW55x_standard_peripheral/Source/gd32vw55x_rtc.c ****                                                RTC_FREQ_DIV4096, RTC_FREQ_DIV2048, RTC_FREQ_DIV1024
 634:../Firmware/GD32VW55x_standard_peripheral/Source/gd32vw55x_rtc.c ****                                                RTC_FREQ_DIV512, RTC_FREQ_DIV256
 635:../Firmware/GD32VW55x_standard_peripheral/Source/gd32vw55x_rtc.c ****                   tamper_precharge_enable: DISABLE, ENABLE
 636:../Firmware/GD32VW55x_standard_peripheral/Source/gd32vw55x_rtc.c ****                   tamper_precharge_time: RTC_PRCH_1C, RTC_PRCH_2C, RTC_PRCH_4C, RTC_PRCH_8C
 637:../Firmware/GD32VW55x_standard_peripheral/Source/gd32vw55x_rtc.c ****                   tamper_with_timestamp: DISABLE, ENABLE
 638:../Firmware/GD32VW55x_standard_peripheral/Source/gd32vw55x_rtc.c ****     \param[out] none
 639:../Firmware/GD32VW55x_standard_peripheral/Source/gd32vw55x_rtc.c ****     \retval     none
 640:../Firmware/GD32VW55x_standard_peripheral/Source/gd32vw55x_rtc.c **** */
 641:../Firmware/GD32VW55x_standard_peripheral/Source/gd32vw55x_rtc.c **** void rtc_tamper_enable(rtc_tamper_struct *rtc_tamper)
 642:../Firmware/GD32VW55x_standard_peripheral/Source/gd32vw55x_rtc.c **** {
 1575              		.loc 1 642 1
 1576              		.cfi_startproc
 1577 0000 0111     		addi	sp,sp,-32
 1578              		.cfi_def_cfa_offset 32
 1579 0002 22CE     		sw	s0,28(sp)
 1580              		.cfi_offset 8, -4
 1581 0004 0010     		addi	s0,sp,32
 1582              		.cfi_def_cfa 8, 0
 1583 0006 2326A4FE 		sw	a0,-20(s0)
 643:../Firmware/GD32VW55x_standard_peripheral/Source/gd32vw55x_rtc.c ****     /* disable tamper */
 644:../Firmware/GD32VW55x_standard_peripheral/Source/gd32vw55x_rtc.c ****     RTC_TAMP &= (uint32_t)~(rtc_tamper->tamper_source);
 1584              		.loc 1 644 14
 1585 000a B7370040 		li	a5,1073754112
 1586 000e 93870784 		addi	a5,a5,-1984
 1587 0012 9443     		lw	a3,0(a5)
 1588              		.loc 1 644 39
 1589 0014 8327C4FE 		lw	a5,-20(s0)
 1590 0018 9C43     		lw	a5,0(a5)
 1591              		.loc 1 644 27
 1592 001a 13C7F7FF 		not	a4,a5
 1593              		.loc 1 644 14
 1594 001e B7370040 		li	a5,1073754112
 1595 0022 93870784 		addi	a5,a5,-1984
 1596 0026 758F     		and	a4,a3,a4
 1597 0028 98C3     		sw	a4,0(a5)
 645:../Firmware/GD32VW55x_standard_peripheral/Source/gd32vw55x_rtc.c **** 
 646:../Firmware/GD32VW55x_standard_peripheral/Source/gd32vw55x_rtc.c ****     /* tamper filter must be used when the tamper source is voltage level detection */
 647:../Firmware/GD32VW55x_standard_peripheral/Source/gd32vw55x_rtc.c ****     RTC_TAMP &= (uint32_t)~RTC_TAMP_FLT;
 1598              		.loc 1 647 14
 1599 002a B7370040 		li	a5,1073754112
 1600 002e 93870784 		addi	a5,a5,-1984
 1601 0032 9443     		lw	a3,0(a5)
 1602 0034 B7370040 		li	a5,1073754112
 1603 0038 93870784 		addi	a5,a5,-1984
 1604 003c 7977     		li	a4,-8192
 1605 003e 1307F77F 		addi	a4,a4,2047
 1606 0042 758F     		and	a4,a3,a4
 1607 0044 98C3     		sw	a4,0(a5)
 648:../Firmware/GD32VW55x_standard_peripheral/Source/gd32vw55x_rtc.c **** 
 649:../Firmware/GD32VW55x_standard_peripheral/Source/gd32vw55x_rtc.c ****     /* the tamper source is voltage level detection */
 650:../Firmware/GD32VW55x_standard_peripheral/Source/gd32vw55x_rtc.c ****     if((uint32_t)(rtc_tamper->tamper_filter) != RTC_FLT_EDGE) {
 1608              		.loc 1 650 29
 1609 0046 8327C4FE 		lw	a5,-20(s0)
 1610 004a 9C47     		lw	a5,8(a5)
 1611              		.loc 1 650 7
 1612 004c E5C3     		beq	a5,zero,.L55
 651:../Firmware/GD32VW55x_standard_peripheral/Source/gd32vw55x_rtc.c ****         RTC_TAMP &= (uint32_t)~(RTC_TAMP_DISPU | RTC_TAMP_PRCH | RTC_TAMP_FREQ | RTC_TAMP_FLT);
 1613              		.loc 1 651 18
 1614 004e B7370040 		li	a5,1073754112
 1615 0052 93870784 		addi	a5,a5,-1984
 1616 0056 9443     		lw	a3,0(a5)
 1617 0058 B7370040 		li	a5,1073754112
 1618 005c 93870784 		addi	a5,a5,-1984
 1619 0060 4177     		li	a4,-65536
 1620 0062 1307F70F 		addi	a4,a4,255
 1621 0066 758F     		and	a4,a3,a4
 1622 0068 98C3     		sw	a4,0(a5)
 652:../Firmware/GD32VW55x_standard_peripheral/Source/gd32vw55x_rtc.c **** 
 653:../Firmware/GD32VW55x_standard_peripheral/Source/gd32vw55x_rtc.c ****         /* check if the tamper pin need precharge, if need, then configure the precharge time */
 654:../Firmware/GD32VW55x_standard_peripheral/Source/gd32vw55x_rtc.c ****         if(DISABLE == rtc_tamper->tamper_precharge_enable) {
 1623              		.loc 1 654 33
 1624 006a 8327C4FE 		lw	a5,-20(s0)
 1625 006e 9C4B     		lw	a5,16(a5)
 1626              		.loc 1 654 11
 1627 0070 91EF     		bne	a5,zero,.L56
 655:../Firmware/GD32VW55x_standard_peripheral/Source/gd32vw55x_rtc.c ****             RTC_TAMP |= (uint32_t)RTC_TAMP_DISPU;
 1628              		.loc 1 655 22
 1629 0072 B7370040 		li	a5,1073754112
 1630 0076 93870784 		addi	a5,a5,-1984
 1631 007a 9443     		lw	a3,0(a5)
 1632 007c B7370040 		li	a5,1073754112
 1633 0080 93870784 		addi	a5,a5,-1984
 1634 0084 2167     		li	a4,32768
 1635 0086 558F     		or	a4,a3,a4
 1636 0088 98C3     		sw	a4,0(a5)
 1637 008a 39A8     		j	.L57
 1638              	.L56:
 656:../Firmware/GD32VW55x_standard_peripheral/Source/gd32vw55x_rtc.c ****         } else {
 657:../Firmware/GD32VW55x_standard_peripheral/Source/gd32vw55x_rtc.c ****             RTC_TAMP |= (uint32_t)(rtc_tamper->tamper_precharge_time);
 1639              		.loc 1 657 22
 1640 008c B7370040 		li	a5,1073754112
 1641 0090 93870784 		addi	a5,a5,-1984
 1642 0094 9443     		lw	a3,0(a5)
 1643              		.loc 1 657 46
 1644 0096 8327C4FE 		lw	a5,-20(s0)
 1645 009a D84B     		lw	a4,20(a5)
 1646              		.loc 1 657 22
 1647 009c B7370040 		li	a5,1073754112
 1648 00a0 93870784 		addi	a5,a5,-1984
 1649 00a4 558F     		or	a4,a3,a4
 1650 00a6 98C3     		sw	a4,0(a5)
 1651              	.L57:
 658:../Firmware/GD32VW55x_standard_peripheral/Source/gd32vw55x_rtc.c ****         }
 659:../Firmware/GD32VW55x_standard_peripheral/Source/gd32vw55x_rtc.c **** 
 660:../Firmware/GD32VW55x_standard_peripheral/Source/gd32vw55x_rtc.c ****         RTC_TAMP |= (uint32_t)(rtc_tamper->tamper_sample_frequency);
 1652              		.loc 1 660 18
 1653 00a8 B7370040 		li	a5,1073754112
 1654 00ac 93870784 		addi	a5,a5,-1984
 1655 00b0 9443     		lw	a3,0(a5)
 1656              		.loc 1 660 42
 1657 00b2 8327C4FE 		lw	a5,-20(s0)
 1658 00b6 D847     		lw	a4,12(a5)
 1659              		.loc 1 660 18
 1660 00b8 B7370040 		li	a5,1073754112
 1661 00bc 93870784 		addi	a5,a5,-1984
 1662 00c0 558F     		or	a4,a3,a4
 1663 00c2 98C3     		sw	a4,0(a5)
 661:../Firmware/GD32VW55x_standard_peripheral/Source/gd32vw55x_rtc.c ****         RTC_TAMP |= (uint32_t)(rtc_tamper->tamper_filter);
 1664              		.loc 1 661 18
 1665 00c4 B7370040 		li	a5,1073754112
 1666 00c8 93870784 		addi	a5,a5,-1984
 1667 00cc 9443     		lw	a3,0(a5)
 1668              		.loc 1 661 42
 1669 00ce 8327C4FE 		lw	a5,-20(s0)
 1670 00d2 9847     		lw	a4,8(a5)
 1671              		.loc 1 661 18
 1672 00d4 B7370040 		li	a5,1073754112
 1673 00d8 93870784 		addi	a5,a5,-1984
 1674 00dc 558F     		or	a4,a3,a4
 1675 00de 98C3     		sw	a4,0(a5)
 662:../Firmware/GD32VW55x_standard_peripheral/Source/gd32vw55x_rtc.c **** 
 663:../Firmware/GD32VW55x_standard_peripheral/Source/gd32vw55x_rtc.c ****         /* configure the tamper trigger */
 664:../Firmware/GD32VW55x_standard_peripheral/Source/gd32vw55x_rtc.c ****         RTC_TAMP &= ((uint32_t)~((rtc_tamper->tamper_source) << RTC_TAMPER_TRIGGER_POS));
 1676              		.loc 1 664 18
 1677 00e0 B7370040 		li	a5,1073754112
 1678 00e4 93870784 		addi	a5,a5,-1984
 1679 00e8 9443     		lw	a3,0(a5)
 1680              		.loc 1 664 45
 1681 00ea 8327C4FE 		lw	a5,-20(s0)
 1682 00ee 9C43     		lw	a5,0(a5)
 1683              		.loc 1 664 62
 1684 00f0 8607     		slli	a5,a5,1
 1685              		.loc 1 664 32
 1686 00f2 13C7F7FF 		not	a4,a5
 1687              		.loc 1 664 18
 1688 00f6 B7370040 		li	a5,1073754112
 1689 00fa 93870784 		addi	a5,a5,-1984
 1690 00fe 758F     		and	a4,a3,a4
 1691 0100 98C3     		sw	a4,0(a5)
 665:../Firmware/GD32VW55x_standard_peripheral/Source/gd32vw55x_rtc.c ****         if(RTC_TAMPER_TRIGGER_LEVEL_LOW != rtc_tamper->tamper_trigger) {
 1692              		.loc 1 665 54
 1693 0102 8327C4FE 		lw	a5,-20(s0)
 1694 0106 DC43     		lw	a5,4(a5)
 1695              		.loc 1 665 11
 1696 0108 BDC7     		beq	a5,zero,.L58
 666:../Firmware/GD32VW55x_standard_peripheral/Source/gd32vw55x_rtc.c ****             RTC_TAMP |= (uint32_t)((rtc_tamper->tamper_source) << RTC_TAMPER_TRIGGER_POS);
 1697              		.loc 1 666 22
 1698 010a B7370040 		li	a5,1073754112
 1699 010e 93870784 		addi	a5,a5,-1984
 1700 0112 9443     		lw	a3,0(a5)
 1701              		.loc 1 666 47
 1702 0114 8327C4FE 		lw	a5,-20(s0)
 1703 0118 9C43     		lw	a5,0(a5)
 1704              		.loc 1 666 64
 1705 011a 13971700 		slli	a4,a5,1
 1706              		.loc 1 666 22
 1707 011e B7370040 		li	a5,1073754112
 1708 0122 93870784 		addi	a5,a5,-1984
 1709 0126 558F     		or	a4,a3,a4
 1710 0128 98C3     		sw	a4,0(a5)
 1711 012a B1A0     		j	.L58
 1712              	.L55:
 667:../Firmware/GD32VW55x_standard_peripheral/Source/gd32vw55x_rtc.c ****         }
 668:../Firmware/GD32VW55x_standard_peripheral/Source/gd32vw55x_rtc.c ****     } else {
 669:../Firmware/GD32VW55x_standard_peripheral/Source/gd32vw55x_rtc.c ****         /* configure the tamper trigger */
 670:../Firmware/GD32VW55x_standard_peripheral/Source/gd32vw55x_rtc.c ****         RTC_TAMP &= ((uint32_t)~((rtc_tamper->tamper_source) << RTC_TAMPER_TRIGGER_POS));
 1713              		.loc 1 670 18
 1714 012c B7370040 		li	a5,1073754112
 1715 0130 93870784 		addi	a5,a5,-1984
 1716 0134 9443     		lw	a3,0(a5)
 1717              		.loc 1 670 45
 1718 0136 8327C4FE 		lw	a5,-20(s0)
 1719 013a 9C43     		lw	a5,0(a5)
 1720              		.loc 1 670 62
 1721 013c 8607     		slli	a5,a5,1
 1722              		.loc 1 670 32
 1723 013e 13C7F7FF 		not	a4,a5
 1724              		.loc 1 670 18
 1725 0142 B7370040 		li	a5,1073754112
 1726 0146 93870784 		addi	a5,a5,-1984
 1727 014a 758F     		and	a4,a3,a4
 1728 014c 98C3     		sw	a4,0(a5)
 671:../Firmware/GD32VW55x_standard_peripheral/Source/gd32vw55x_rtc.c ****         if(RTC_TAMPER_TRIGGER_EDGE_RISING != rtc_tamper->tamper_trigger) {
 1729              		.loc 1 671 56
 1730 014e 8327C4FE 		lw	a5,-20(s0)
 1731 0152 DC43     		lw	a5,4(a5)
 1732              		.loc 1 671 11
 1733 0154 8DC3     		beq	a5,zero,.L58
 672:../Firmware/GD32VW55x_standard_peripheral/Source/gd32vw55x_rtc.c ****             RTC_TAMP |= (uint32_t)((rtc_tamper->tamper_source) << RTC_TAMPER_TRIGGER_POS);
 1734              		.loc 1 672 22
 1735 0156 B7370040 		li	a5,1073754112
 1736 015a 93870784 		addi	a5,a5,-1984
 1737 015e 9443     		lw	a3,0(a5)
 1738              		.loc 1 672 47
 1739 0160 8327C4FE 		lw	a5,-20(s0)
 1740 0164 9C43     		lw	a5,0(a5)
 1741              		.loc 1 672 64
 1742 0166 13971700 		slli	a4,a5,1
 1743              		.loc 1 672 22
 1744 016a B7370040 		li	a5,1073754112
 1745 016e 93870784 		addi	a5,a5,-1984
 1746 0172 558F     		or	a4,a3,a4
 1747 0174 98C3     		sw	a4,0(a5)
 1748              	.L58:
 673:../Firmware/GD32VW55x_standard_peripheral/Source/gd32vw55x_rtc.c ****         }
 674:../Firmware/GD32VW55x_standard_peripheral/Source/gd32vw55x_rtc.c ****     }
 675:../Firmware/GD32VW55x_standard_peripheral/Source/gd32vw55x_rtc.c ****     RTC_TAMP &= (uint32_t)~RTC_TAMP_TPTS;
 1749              		.loc 1 675 14
 1750 0176 B7370040 		li	a5,1073754112
 1751 017a 93870784 		addi	a5,a5,-1984
 1752 017e 9843     		lw	a4,0(a5)
 1753 0180 B7370040 		li	a5,1073754112
 1754 0184 93870784 		addi	a5,a5,-1984
 1755 0188 1377F7F7 		andi	a4,a4,-129
 1756 018c 98C3     		sw	a4,0(a5)
 676:../Firmware/GD32VW55x_standard_peripheral/Source/gd32vw55x_rtc.c ****     if(DISABLE != rtc_tamper->tamper_with_timestamp) {
 1757              		.loc 1 676 29
 1758 018e 8327C4FE 		lw	a5,-20(s0)
 1759 0192 9C4F     		lw	a5,24(a5)
 1760              		.loc 1 676 7
 1761 0194 89CF     		beq	a5,zero,.L59
 677:../Firmware/GD32VW55x_standard_peripheral/Source/gd32vw55x_rtc.c ****         /* the tamper event also cause a time-stamp event */
 678:../Firmware/GD32VW55x_standard_peripheral/Source/gd32vw55x_rtc.c ****         RTC_TAMP |= (uint32_t)RTC_TAMP_TPTS;
 1762              		.loc 1 678 18
 1763 0196 B7370040 		li	a5,1073754112
 1764 019a 93870784 		addi	a5,a5,-1984
 1765 019e 9843     		lw	a4,0(a5)
 1766 01a0 B7370040 		li	a5,1073754112
 1767 01a4 93870784 		addi	a5,a5,-1984
 1768 01a8 13670708 		ori	a4,a4,128
 1769 01ac 98C3     		sw	a4,0(a5)
 1770              	.L59:
 679:../Firmware/GD32VW55x_standard_peripheral/Source/gd32vw55x_rtc.c ****     }
 680:../Firmware/GD32VW55x_standard_peripheral/Source/gd32vw55x_rtc.c ****     /* enable tamper */
 681:../Firmware/GD32VW55x_standard_peripheral/Source/gd32vw55x_rtc.c ****     RTC_TAMP |= (uint32_t)(rtc_tamper->tamper_source);
 1771              		.loc 1 681 14
 1772 01ae B7370040 		li	a5,1073754112
 1773 01b2 93870784 		addi	a5,a5,-1984
 1774 01b6 9443     		lw	a3,0(a5)
 1775              		.loc 1 681 38
 1776 01b8 8327C4FE 		lw	a5,-20(s0)
 1777 01bc 9843     		lw	a4,0(a5)
 1778              		.loc 1 681 14
 1779 01be B7370040 		li	a5,1073754112
 1780 01c2 93870784 		addi	a5,a5,-1984
 1781 01c6 558F     		or	a4,a3,a4
 1782 01c8 98C3     		sw	a4,0(a5)
 682:../Firmware/GD32VW55x_standard_peripheral/Source/gd32vw55x_rtc.c **** }
 1783              		.loc 1 682 1
 1784 01ca 0100     		nop
 1785 01cc 7244     		lw	s0,28(sp)
 1786              		.cfi_restore 8
 1787              		.cfi_def_cfa 2, 32
 1788 01ce 0561     		addi	sp,sp,32
 1789              		.cfi_def_cfa_offset 0
 1790 01d0 8280     		jr	ra
 1791              		.cfi_endproc
 1792              	.LFE364:
 1794              		.section	.text.rtc_tamper_disable,"ax",@progbits
 1795              		.align	1
 1796              		.globl	rtc_tamper_disable
 1798              	rtc_tamper_disable:
 1799              	.LFB365:
 683:../Firmware/GD32VW55x_standard_peripheral/Source/gd32vw55x_rtc.c **** 
 684:../Firmware/GD32VW55x_standard_peripheral/Source/gd32vw55x_rtc.c **** /*!
 685:../Firmware/GD32VW55x_standard_peripheral/Source/gd32vw55x_rtc.c ****     \brief      disable RTC tamper
 686:../Firmware/GD32VW55x_standard_peripheral/Source/gd32vw55x_rtc.c ****     \param[in]  source: specify which tamper source to be disabled
 687:../Firmware/GD32VW55x_standard_peripheral/Source/gd32vw55x_rtc.c ****       \arg        RTC_TAMPER0
 688:../Firmware/GD32VW55x_standard_peripheral/Source/gd32vw55x_rtc.c ****       \arg        RTC_TAMPER1
 689:../Firmware/GD32VW55x_standard_peripheral/Source/gd32vw55x_rtc.c ****     \param[out] none
 690:../Firmware/GD32VW55x_standard_peripheral/Source/gd32vw55x_rtc.c ****     \retval     none
 691:../Firmware/GD32VW55x_standard_peripheral/Source/gd32vw55x_rtc.c **** */
 692:../Firmware/GD32VW55x_standard_peripheral/Source/gd32vw55x_rtc.c **** void rtc_tamper_disable(uint32_t source)
 693:../Firmware/GD32VW55x_standard_peripheral/Source/gd32vw55x_rtc.c **** {
 1800              		.loc 1 693 1
 1801              		.cfi_startproc
 1802 0000 0111     		addi	sp,sp,-32
 1803              		.cfi_def_cfa_offset 32
 1804 0002 22CE     		sw	s0,28(sp)
 1805              		.cfi_offset 8, -4
 1806 0004 0010     		addi	s0,sp,32
 1807              		.cfi_def_cfa 8, 0
 1808 0006 2326A4FE 		sw	a0,-20(s0)
 694:../Firmware/GD32VW55x_standard_peripheral/Source/gd32vw55x_rtc.c ****     /* disable tamper */
 695:../Firmware/GD32VW55x_standard_peripheral/Source/gd32vw55x_rtc.c ****     RTC_TAMP &= (uint32_t)~source;
 1809              		.loc 1 695 14
 1810 000a B7370040 		li	a5,1073754112
 1811 000e 93870784 		addi	a5,a5,-1984
 1812 0012 9443     		lw	a3,0(a5)
 1813              		.loc 1 695 27
 1814 0014 8327C4FE 		lw	a5,-20(s0)
 1815 0018 13C7F7FF 		not	a4,a5
 1816              		.loc 1 695 14
 1817 001c B7370040 		li	a5,1073754112
 1818 0020 93870784 		addi	a5,a5,-1984
 1819 0024 758F     		and	a4,a3,a4
 1820 0026 98C3     		sw	a4,0(a5)
 696:../Firmware/GD32VW55x_standard_peripheral/Source/gd32vw55x_rtc.c **** }
 1821              		.loc 1 696 1
 1822 0028 0100     		nop
 1823 002a 7244     		lw	s0,28(sp)
 1824              		.cfi_restore 8
 1825              		.cfi_def_cfa 2, 32
 1826 002c 0561     		addi	sp,sp,32
 1827              		.cfi_def_cfa_offset 0
 1828 002e 8280     		jr	ra
 1829              		.cfi_endproc
 1830              	.LFE365:
 1832              		.section	.text.rtc_software_bkp_reset,"ax",@progbits
 1833              		.align	1
 1834              		.globl	rtc_software_bkp_reset
 1836              	rtc_software_bkp_reset:
 1837              	.LFB366:
 697:../Firmware/GD32VW55x_standard_peripheral/Source/gd32vw55x_rtc.c **** 
 698:../Firmware/GD32VW55x_standard_peripheral/Source/gd32vw55x_rtc.c **** /*!
 699:../Firmware/GD32VW55x_standard_peripheral/Source/gd32vw55x_rtc.c ****     \brief      reset the RTC_BKP registers by sofware
 700:../Firmware/GD32VW55x_standard_peripheral/Source/gd32vw55x_rtc.c ****     \param[in]  none
 701:../Firmware/GD32VW55x_standard_peripheral/Source/gd32vw55x_rtc.c ****     \param[out] none
 702:../Firmware/GD32VW55x_standard_peripheral/Source/gd32vw55x_rtc.c ****     \retval     none
 703:../Firmware/GD32VW55x_standard_peripheral/Source/gd32vw55x_rtc.c **** */
 704:../Firmware/GD32VW55x_standard_peripheral/Source/gd32vw55x_rtc.c **** void rtc_software_bkp_reset(void)
 705:../Firmware/GD32VW55x_standard_peripheral/Source/gd32vw55x_rtc.c **** {
 1838              		.loc 1 705 1
 1839              		.cfi_startproc
 1840 0000 4111     		addi	sp,sp,-16
 1841              		.cfi_def_cfa_offset 16
 1842 0002 22C6     		sw	s0,12(sp)
 1843              		.cfi_offset 8, -4
 1844 0004 0008     		addi	s0,sp,16
 1845              		.cfi_def_cfa 8, 0
 706:../Firmware/GD32VW55x_standard_peripheral/Source/gd32vw55x_rtc.c ****     RTC_TAMP |= RTC_TAMP_BKERASE;
 1846              		.loc 1 706 14
 1847 0006 B7370040 		li	a5,1073754112
 1848 000a 93870784 		addi	a5,a5,-1984
 1849 000e 9443     		lw	a3,0(a5)
 1850 0010 B7370040 		li	a5,1073754112
 1851 0014 93870784 		addi	a5,a5,-1984
 1852 0018 37070080 		li	a4,-2147483648
 1853 001c 558F     		or	a4,a3,a4
 1854 001e 98C3     		sw	a4,0(a5)
 707:../Firmware/GD32VW55x_standard_peripheral/Source/gd32vw55x_rtc.c **** }
 1855              		.loc 1 707 1
 1856 0020 0100     		nop
 1857 0022 3244     		lw	s0,12(sp)
 1858              		.cfi_restore 8
 1859              		.cfi_def_cfa 2, 16
 1860 0024 4101     		addi	sp,sp,16
 1861              		.cfi_def_cfa_offset 0
 1862 0026 8280     		jr	ra
 1863              		.cfi_endproc
 1864              	.LFE366:
 1866              		.section	.text.rtc_tamper_without_bkp_reset,"ax",@progbits
 1867              		.align	1
 1868              		.globl	rtc_tamper_without_bkp_reset
 1870              	rtc_tamper_without_bkp_reset:
 1871              	.LFB367:
 708:../Firmware/GD32VW55x_standard_peripheral/Source/gd32vw55x_rtc.c **** 
 709:../Firmware/GD32VW55x_standard_peripheral/Source/gd32vw55x_rtc.c **** /*!
 710:../Firmware/GD32VW55x_standard_peripheral/Source/gd32vw55x_rtc.c ****     \brief      tamperx event does not erase the RTC_BKP registers
 711:../Firmware/GD32VW55x_standard_peripheral/Source/gd32vw55x_rtc.c ****     \param[in]  ne_source: specify which tamper source will not trigger the RTC_BKP registers reset
 712:../Firmware/GD32VW55x_standard_peripheral/Source/gd32vw55x_rtc.c ****       \arg        RTC_TAMPXNOER_NONE: both tamper0 and tamper1 event will trigger RTC_BKP registers
 713:../Firmware/GD32VW55x_standard_peripheral/Source/gd32vw55x_rtc.c ****       \arg        RTC_TAMPXNOER_TP0: tamper0 event will not trigger RTC_BKP registers reset
 714:../Firmware/GD32VW55x_standard_peripheral/Source/gd32vw55x_rtc.c ****       \arg        RTC_TAMPXNOER_TP1: tamper1 event will not trigger RTC_BKP registers reset
 715:../Firmware/GD32VW55x_standard_peripheral/Source/gd32vw55x_rtc.c ****       \arg        RTC_TAMPXNOER_TP0_TP1: Neither tamper0 nor tamepr1 event will trigger RTC_BKP reg
 716:../Firmware/GD32VW55x_standard_peripheral/Source/gd32vw55x_rtc.c ****     \param[out] none
 717:../Firmware/GD32VW55x_standard_peripheral/Source/gd32vw55x_rtc.c ****     \retval     none
 718:../Firmware/GD32VW55x_standard_peripheral/Source/gd32vw55x_rtc.c **** */
 719:../Firmware/GD32VW55x_standard_peripheral/Source/gd32vw55x_rtc.c **** void rtc_tamper_without_bkp_reset(uint32_t tamper_source)
 720:../Firmware/GD32VW55x_standard_peripheral/Source/gd32vw55x_rtc.c **** {
 1872              		.loc 1 720 1
 1873              		.cfi_startproc
 1874 0000 0111     		addi	sp,sp,-32
 1875              		.cfi_def_cfa_offset 32
 1876 0002 22CE     		sw	s0,28(sp)
 1877              		.cfi_offset 8, -4
 1878 0004 0010     		addi	s0,sp,32
 1879              		.cfi_def_cfa 8, 0
 1880 0006 2326A4FE 		sw	a0,-20(s0)
 721:../Firmware/GD32VW55x_standard_peripheral/Source/gd32vw55x_rtc.c ****     RTC_TAMP &= (uint32_t)~(RTC_TAMP_TP0NOER | RTC_TAMP_TP1NOER);
 1881              		.loc 1 721 14
 1882 000a B7370040 		li	a5,1073754112
 1883 000e 93870784 		addi	a5,a5,-1984
 1884 0012 9443     		lw	a3,0(a5)
 1885 0014 B7370040 		li	a5,1073754112
 1886 0018 93870784 		addi	a5,a5,-1984
 1887 001c 3707E8FF 		li	a4,-1572864
 1888 0020 7D17     		addi	a4,a4,-1
 1889 0022 758F     		and	a4,a3,a4
 1890 0024 98C3     		sw	a4,0(a5)
 722:../Firmware/GD32VW55x_standard_peripheral/Source/gd32vw55x_rtc.c ****     RTC_TAMP |= tamper_source;
 1891              		.loc 1 722 14
 1892 0026 B7370040 		li	a5,1073754112
 1893 002a 93870784 		addi	a5,a5,-1984
 1894 002e 9443     		lw	a3,0(a5)
 1895 0030 B7370040 		li	a5,1073754112
 1896 0034 93870784 		addi	a5,a5,-1984
 1897 0038 0327C4FE 		lw	a4,-20(s0)
 1898 003c 558F     		or	a4,a3,a4
 1899 003e 98C3     		sw	a4,0(a5)
 723:../Firmware/GD32VW55x_standard_peripheral/Source/gd32vw55x_rtc.c **** }
 1900              		.loc 1 723 1
 1901 0040 0100     		nop
 1902 0042 7244     		lw	s0,28(sp)
 1903              		.cfi_restore 8
 1904              		.cfi_def_cfa 2, 32
 1905 0044 0561     		addi	sp,sp,32
 1906              		.cfi_def_cfa_offset 0
 1907 0046 8280     		jr	ra
 1908              		.cfi_endproc
 1909              	.LFE367:
 1911              		.section	.text.rtc_output_pin_select,"ax",@progbits
 1912              		.align	1
 1913              		.globl	rtc_output_pin_select
 1915              	rtc_output_pin_select:
 1916              	.LFB368:
 724:../Firmware/GD32VW55x_standard_peripheral/Source/gd32vw55x_rtc.c **** 
 725:../Firmware/GD32VW55x_standard_peripheral/Source/gd32vw55x_rtc.c **** /*!
 726:../Firmware/GD32VW55x_standard_peripheral/Source/gd32vw55x_rtc.c ****     \brief      select the RTC output pin
 727:../Firmware/GD32VW55x_standard_peripheral/Source/gd32vw55x_rtc.c ****     \param[in]  pin: specify the rtc output pin is PC15 or not
 728:../Firmware/GD32VW55x_standard_peripheral/Source/gd32vw55x_rtc.c ****       \arg        RTC_OUT_PC15: the rtc output pin is PC15
 729:../Firmware/GD32VW55x_standard_peripheral/Source/gd32vw55x_rtc.c ****       \arg        RTC_OUT_PA3_PA8: the rtc output pin is PA3 or PA8 according to the AFIO configura
 730:../Firmware/GD32VW55x_standard_peripheral/Source/gd32vw55x_rtc.c ****     \param[out] none
 731:../Firmware/GD32VW55x_standard_peripheral/Source/gd32vw55x_rtc.c ****     \retval     none
 732:../Firmware/GD32VW55x_standard_peripheral/Source/gd32vw55x_rtc.c **** */
 733:../Firmware/GD32VW55x_standard_peripheral/Source/gd32vw55x_rtc.c **** void rtc_output_pin_select(uint32_t pin)
 734:../Firmware/GD32VW55x_standard_peripheral/Source/gd32vw55x_rtc.c **** {
 1917              		.loc 1 734 1
 1918              		.cfi_startproc
 1919 0000 0111     		addi	sp,sp,-32
 1920              		.cfi_def_cfa_offset 32
 1921 0002 22CE     		sw	s0,28(sp)
 1922              		.cfi_offset 8, -4
 1923 0004 0010     		addi	s0,sp,32
 1924              		.cfi_def_cfa 8, 0
 1925 0006 2326A4FE 		sw	a0,-20(s0)
 735:../Firmware/GD32VW55x_standard_peripheral/Source/gd32vw55x_rtc.c ****     /* disable the write protection */
 736:../Firmware/GD32VW55x_standard_peripheral/Source/gd32vw55x_rtc.c ****     RTC_WPK = RTC_UNLOCK_KEY1;
 1926              		.loc 1 736 5
 1927 000a B7370040 		li	a5,1073754112
 1928 000e 93874782 		addi	a5,a5,-2012
 1929              		.loc 1 736 13
 1930 0012 1307A00C 		li	a4,202
 1931 0016 98C3     		sw	a4,0(a5)
 737:../Firmware/GD32VW55x_standard_peripheral/Source/gd32vw55x_rtc.c ****     RTC_WPK = RTC_UNLOCK_KEY2;
 1932              		.loc 1 737 5
 1933 0018 B7370040 		li	a5,1073754112
 1934 001c 93874782 		addi	a5,a5,-2012
 1935              		.loc 1 737 13
 1936 0020 13073005 		li	a4,83
 1937 0024 98C3     		sw	a4,0(a5)
 738:../Firmware/GD32VW55x_standard_peripheral/Source/gd32vw55x_rtc.c **** 
 739:../Firmware/GD32VW55x_standard_peripheral/Source/gd32vw55x_rtc.c ****     RTC_CTL &= (uint32_t)~(RTC_CTL_OUT2EN);
 1938              		.loc 1 739 13
 1939 0026 B7370040 		li	a5,1073754112
 1940 002a 93878780 		addi	a5,a5,-2040
 1941 002e 9443     		lw	a3,0(a5)
 1942 0030 B7370040 		li	a5,1073754112
 1943 0034 93878780 		addi	a5,a5,-2040
 1944 0038 37070080 		li	a4,-2147483648
 1945 003c 1347F7FF 		xori	a4,a4,-1
 1946 0040 758F     		and	a4,a3,a4
 1947 0042 98C3     		sw	a4,0(a5)
 740:../Firmware/GD32VW55x_standard_peripheral/Source/gd32vw55x_rtc.c ****     RTC_CTL |= (uint32_t)(pin);
 1948              		.loc 1 740 13
 1949 0044 B7370040 		li	a5,1073754112
 1950 0048 93878780 		addi	a5,a5,-2040
 1951 004c 9443     		lw	a3,0(a5)
 1952 004e B7370040 		li	a5,1073754112
 1953 0052 93878780 		addi	a5,a5,-2040
 1954 0056 0327C4FE 		lw	a4,-20(s0)
 1955 005a 558F     		or	a4,a3,a4
 1956 005c 98C3     		sw	a4,0(a5)
 741:../Firmware/GD32VW55x_standard_peripheral/Source/gd32vw55x_rtc.c **** 
 742:../Firmware/GD32VW55x_standard_peripheral/Source/gd32vw55x_rtc.c ****     /* enable the write protection */
 743:../Firmware/GD32VW55x_standard_peripheral/Source/gd32vw55x_rtc.c ****     RTC_WPK = RTC_LOCK_KEY;
 1957              		.loc 1 743 5
 1958 005e B7370040 		li	a5,1073754112
 1959 0062 93874782 		addi	a5,a5,-2012
 1960              		.loc 1 743 13
 1961 0066 1307F00F 		li	a4,255
 1962 006a 98C3     		sw	a4,0(a5)
 744:../Firmware/GD32VW55x_standard_peripheral/Source/gd32vw55x_rtc.c **** }
 1963              		.loc 1 744 1
 1964 006c 0100     		nop
 1965 006e 7244     		lw	s0,28(sp)
 1966              		.cfi_restore 8
 1967              		.cfi_def_cfa 2, 32
 1968 0070 0561     		addi	sp,sp,32
 1969              		.cfi_def_cfa_offset 0
 1970 0072 8280     		jr	ra
 1971              		.cfi_endproc
 1972              	.LFE368:
 1974              		.section	.text.rtc_alarm_output_config,"ax",@progbits
 1975              		.align	1
 1976              		.globl	rtc_alarm_output_config
 1978              	rtc_alarm_output_config:
 1979              	.LFB369:
 745:../Firmware/GD32VW55x_standard_peripheral/Source/gd32vw55x_rtc.c **** 
 746:../Firmware/GD32VW55x_standard_peripheral/Source/gd32vw55x_rtc.c **** /*!
 747:../Firmware/GD32VW55x_standard_peripheral/Source/gd32vw55x_rtc.c ****     \brief      configure rtc alarm output source
 748:../Firmware/GD32VW55x_standard_peripheral/Source/gd32vw55x_rtc.c ****     \param[in]  source: specify signal to output
 749:../Firmware/GD32VW55x_standard_peripheral/Source/gd32vw55x_rtc.c ****       \arg        RTC_ALARM0_HIGH: when the alarm0 flag is set, the output pin is high
 750:../Firmware/GD32VW55x_standard_peripheral/Source/gd32vw55x_rtc.c ****       \arg        RTC_ALARM0_LOW: when the alarm0 flag is set, the output pin is low
 751:../Firmware/GD32VW55x_standard_peripheral/Source/gd32vw55x_rtc.c ****       \arg        RTC_ALARM1_HIGH: when the alarm1 flag is set, the output pin is high
 752:../Firmware/GD32VW55x_standard_peripheral/Source/gd32vw55x_rtc.c ****       \arg        RTC_ALARM1_LOW: when the alarm1 flag is set, the output pin is low
 753:../Firmware/GD32VW55x_standard_peripheral/Source/gd32vw55x_rtc.c ****       \arg        RTC_WAKEUP_HIGH: when the wakeup flag is set, the output pin is high
 754:../Firmware/GD32VW55x_standard_peripheral/Source/gd32vw55x_rtc.c ****       \arg        RTC_WAKEUP_LOW: when the wakeup flag is set, the output pin is low
 755:../Firmware/GD32VW55x_standard_peripheral/Source/gd32vw55x_rtc.c ****     \param[in]  mode: specify the output pin mode when output alarm signal or auto wakeup signal
 756:../Firmware/GD32VW55x_standard_peripheral/Source/gd32vw55x_rtc.c ****       \arg        RTC_ALARM_OUTPUT_OD: open drain mode
 757:../Firmware/GD32VW55x_standard_peripheral/Source/gd32vw55x_rtc.c ****       \arg        RTC_ALARM_OUTPUT_PP: push pull mode
 758:../Firmware/GD32VW55x_standard_peripheral/Source/gd32vw55x_rtc.c ****     \param[out] none
 759:../Firmware/GD32VW55x_standard_peripheral/Source/gd32vw55x_rtc.c ****     \retval     none
 760:../Firmware/GD32VW55x_standard_peripheral/Source/gd32vw55x_rtc.c **** */
 761:../Firmware/GD32VW55x_standard_peripheral/Source/gd32vw55x_rtc.c **** void rtc_alarm_output_config(uint32_t source, uint32_t mode)
 762:../Firmware/GD32VW55x_standard_peripheral/Source/gd32vw55x_rtc.c **** {
 1980              		.loc 1 762 1
 1981              		.cfi_startproc
 1982 0000 0111     		addi	sp,sp,-32
 1983              		.cfi_def_cfa_offset 32
 1984 0002 22CE     		sw	s0,28(sp)
 1985              		.cfi_offset 8, -4
 1986 0004 0010     		addi	s0,sp,32
 1987              		.cfi_def_cfa 8, 0
 1988 0006 2326A4FE 		sw	a0,-20(s0)
 1989 000a 2324B4FE 		sw	a1,-24(s0)
 763:../Firmware/GD32VW55x_standard_peripheral/Source/gd32vw55x_rtc.c ****     /* disable the write protection */
 764:../Firmware/GD32VW55x_standard_peripheral/Source/gd32vw55x_rtc.c ****     RTC_WPK = RTC_UNLOCK_KEY1;
 1990              		.loc 1 764 5
 1991 000e B7370040 		li	a5,1073754112
 1992 0012 93874782 		addi	a5,a5,-2012
 1993              		.loc 1 764 13
 1994 0016 1307A00C 		li	a4,202
 1995 001a 98C3     		sw	a4,0(a5)
 765:../Firmware/GD32VW55x_standard_peripheral/Source/gd32vw55x_rtc.c ****     RTC_WPK = RTC_UNLOCK_KEY2;
 1996              		.loc 1 765 5
 1997 001c B7370040 		li	a5,1073754112
 1998 0020 93874782 		addi	a5,a5,-2012
 1999              		.loc 1 765 13
 2000 0024 13073005 		li	a4,83
 2001 0028 98C3     		sw	a4,0(a5)
 766:../Firmware/GD32VW55x_standard_peripheral/Source/gd32vw55x_rtc.c **** 
 767:../Firmware/GD32VW55x_standard_peripheral/Source/gd32vw55x_rtc.c ****     RTC_CTL &= ~(RTC_CTL_OS | RTC_CTL_OPOL);
 2002              		.loc 1 767 13
 2003 002a B7370040 		li	a5,1073754112
 2004 002e 93878780 		addi	a5,a5,-2040
 2005 0032 9443     		lw	a3,0(a5)
 2006 0034 B7370040 		li	a5,1073754112
 2007 0038 93878780 		addi	a5,a5,-2040
 2008 003c 370790FF 		li	a4,-7340032
 2009 0040 7D17     		addi	a4,a4,-1
 2010 0042 758F     		and	a4,a3,a4
 2011 0044 98C3     		sw	a4,0(a5)
 768:../Firmware/GD32VW55x_standard_peripheral/Source/gd32vw55x_rtc.c ****     RTC_TAMP &= ~RTC_TAMP_AOT;
 2012              		.loc 1 768 14
 2013 0046 B7370040 		li	a5,1073754112
 2014 004a 93870784 		addi	a5,a5,-1984
 2015 004e 9443     		lw	a3,0(a5)
 2016 0050 B7370040 		li	a5,1073754112
 2017 0054 93870784 		addi	a5,a5,-1984
 2018 0058 3707FCFF 		li	a4,-262144
 2019 005c 7D17     		addi	a4,a4,-1
 2020 005e 758F     		and	a4,a3,a4
 2021 0060 98C3     		sw	a4,0(a5)
 769:../Firmware/GD32VW55x_standard_peripheral/Source/gd32vw55x_rtc.c **** 
 770:../Firmware/GD32VW55x_standard_peripheral/Source/gd32vw55x_rtc.c ****     RTC_CTL |= (uint32_t)(source);
 2022              		.loc 1 770 13
 2023 0062 B7370040 		li	a5,1073754112
 2024 0066 93878780 		addi	a5,a5,-2040
 2025 006a 9443     		lw	a3,0(a5)
 2026 006c B7370040 		li	a5,1073754112
 2027 0070 93878780 		addi	a5,a5,-2040
 2028 0074 0327C4FE 		lw	a4,-20(s0)
 2029 0078 558F     		or	a4,a3,a4
 2030 007a 98C3     		sw	a4,0(a5)
 771:../Firmware/GD32VW55x_standard_peripheral/Source/gd32vw55x_rtc.c ****     /* alarm output */
 772:../Firmware/GD32VW55x_standard_peripheral/Source/gd32vw55x_rtc.c ****     RTC_TAMP |= (uint32_t)(mode);
 2031              		.loc 1 772 14
 2032 007c B7370040 		li	a5,1073754112
 2033 0080 93870784 		addi	a5,a5,-1984
 2034 0084 9443     		lw	a3,0(a5)
 2035 0086 B7370040 		li	a5,1073754112
 2036 008a 93870784 		addi	a5,a5,-1984
 2037 008e 032784FE 		lw	a4,-24(s0)
 2038 0092 558F     		or	a4,a3,a4
 2039 0094 98C3     		sw	a4,0(a5)
 773:../Firmware/GD32VW55x_standard_peripheral/Source/gd32vw55x_rtc.c ****     /* enable the write protection */
 774:../Firmware/GD32VW55x_standard_peripheral/Source/gd32vw55x_rtc.c ****     RTC_WPK = RTC_LOCK_KEY;
 2040              		.loc 1 774 5
 2041 0096 B7370040 		li	a5,1073754112
 2042 009a 93874782 		addi	a5,a5,-2012
 2043              		.loc 1 774 13
 2044 009e 1307F00F 		li	a4,255
 2045 00a2 98C3     		sw	a4,0(a5)
 775:../Firmware/GD32VW55x_standard_peripheral/Source/gd32vw55x_rtc.c **** }
 2046              		.loc 1 775 1
 2047 00a4 0100     		nop
 2048 00a6 7244     		lw	s0,28(sp)
 2049              		.cfi_restore 8
 2050              		.cfi_def_cfa 2, 32
 2051 00a8 0561     		addi	sp,sp,32
 2052              		.cfi_def_cfa_offset 0
 2053 00aa 8280     		jr	ra
 2054              		.cfi_endproc
 2055              	.LFE369:
 2057              		.section	.text.rtc_calibration_output_config,"ax",@progbits
 2058              		.align	1
 2059              		.globl	rtc_calibration_output_config
 2061              	rtc_calibration_output_config:
 2062              	.LFB370:
 776:../Firmware/GD32VW55x_standard_peripheral/Source/gd32vw55x_rtc.c **** 
 777:../Firmware/GD32VW55x_standard_peripheral/Source/gd32vw55x_rtc.c **** /*!
 778:../Firmware/GD32VW55x_standard_peripheral/Source/gd32vw55x_rtc.c ****     \brief      configure rtc calibration output source
 779:../Firmware/GD32VW55x_standard_peripheral/Source/gd32vw55x_rtc.c ****     \param[in]  source: specify signal to output
 780:../Firmware/GD32VW55x_standard_peripheral/Source/gd32vw55x_rtc.c ****       \arg        RTC_CALIBRATION_512HZ: when the LSE freqency is 32768Hz and the RTC_PSC
 781:../Firmware/GD32VW55x_standard_peripheral/Source/gd32vw55x_rtc.c ****                                          is the default value, output 512Hz signal
 782:../Firmware/GD32VW55x_standard_peripheral/Source/gd32vw55x_rtc.c ****       \arg        RTC_CALIBRATION_1HZ: when the LSE freqency is 32768Hz and the RTC_PSC
 783:../Firmware/GD32VW55x_standard_peripheral/Source/gd32vw55x_rtc.c ****                                        is the default value, output 1Hz signal
 784:../Firmware/GD32VW55x_standard_peripheral/Source/gd32vw55x_rtc.c ****     \param[out] none
 785:../Firmware/GD32VW55x_standard_peripheral/Source/gd32vw55x_rtc.c ****     \retval     none
 786:../Firmware/GD32VW55x_standard_peripheral/Source/gd32vw55x_rtc.c **** */
 787:../Firmware/GD32VW55x_standard_peripheral/Source/gd32vw55x_rtc.c **** void rtc_calibration_output_config(uint32_t source)
 788:../Firmware/GD32VW55x_standard_peripheral/Source/gd32vw55x_rtc.c **** {
 2063              		.loc 1 788 1
 2064              		.cfi_startproc
 2065 0000 0111     		addi	sp,sp,-32
 2066              		.cfi_def_cfa_offset 32
 2067 0002 22CE     		sw	s0,28(sp)
 2068              		.cfi_offset 8, -4
 2069 0004 0010     		addi	s0,sp,32
 2070              		.cfi_def_cfa 8, 0
 2071 0006 2326A4FE 		sw	a0,-20(s0)
 789:../Firmware/GD32VW55x_standard_peripheral/Source/gd32vw55x_rtc.c ****     /* disable the write protection */
 790:../Firmware/GD32VW55x_standard_peripheral/Source/gd32vw55x_rtc.c ****     RTC_WPK = RTC_UNLOCK_KEY1;
 2072              		.loc 1 790 5
 2073 000a B7370040 		li	a5,1073754112
 2074 000e 93874782 		addi	a5,a5,-2012
 2075              		.loc 1 790 13
 2076 0012 1307A00C 		li	a4,202
 2077 0016 98C3     		sw	a4,0(a5)
 791:../Firmware/GD32VW55x_standard_peripheral/Source/gd32vw55x_rtc.c ****     RTC_WPK = RTC_UNLOCK_KEY2;
 2078              		.loc 1 791 5
 2079 0018 B7370040 		li	a5,1073754112
 2080 001c 93874782 		addi	a5,a5,-2012
 2081              		.loc 1 791 13
 2082 0020 13073005 		li	a4,83
 2083 0024 98C3     		sw	a4,0(a5)
 792:../Firmware/GD32VW55x_standard_peripheral/Source/gd32vw55x_rtc.c **** 
 793:../Firmware/GD32VW55x_standard_peripheral/Source/gd32vw55x_rtc.c ****     RTC_CTL &= (uint32_t)~(RTC_CTL_COEN | RTC_CTL_COS);
 2084              		.loc 1 793 13
 2085 0026 B7370040 		li	a5,1073754112
 2086 002a 93878780 		addi	a5,a5,-2040
 2087 002e 9443     		lw	a3,0(a5)
 2088 0030 B7370040 		li	a5,1073754112
 2089 0034 93878780 		addi	a5,a5,-2040
 2090 0038 370778FF 		li	a4,-8912896
 2091 003c 7D17     		addi	a4,a4,-1
 2092 003e 758F     		and	a4,a3,a4
 2093 0040 98C3     		sw	a4,0(a5)
 794:../Firmware/GD32VW55x_standard_peripheral/Source/gd32vw55x_rtc.c **** 
 795:../Firmware/GD32VW55x_standard_peripheral/Source/gd32vw55x_rtc.c ****     RTC_CTL |= (uint32_t)(source);
 2094              		.loc 1 795 13
 2095 0042 B7370040 		li	a5,1073754112
 2096 0046 93878780 		addi	a5,a5,-2040
 2097 004a 9443     		lw	a3,0(a5)
 2098 004c B7370040 		li	a5,1073754112
 2099 0050 93878780 		addi	a5,a5,-2040
 2100 0054 0327C4FE 		lw	a4,-20(s0)
 2101 0058 558F     		or	a4,a3,a4
 2102 005a 98C3     		sw	a4,0(a5)
 796:../Firmware/GD32VW55x_standard_peripheral/Source/gd32vw55x_rtc.c ****     /* enable the write protection */
 797:../Firmware/GD32VW55x_standard_peripheral/Source/gd32vw55x_rtc.c ****     RTC_WPK = RTC_LOCK_KEY;
 2103              		.loc 1 797 5
 2104 005c B7370040 		li	a5,1073754112
 2105 0060 93874782 		addi	a5,a5,-2012
 2106              		.loc 1 797 13
 2107 0064 1307F00F 		li	a4,255
 2108 0068 98C3     		sw	a4,0(a5)
 798:../Firmware/GD32VW55x_standard_peripheral/Source/gd32vw55x_rtc.c **** }
 2109              		.loc 1 798 1
 2110 006a 0100     		nop
 2111 006c 7244     		lw	s0,28(sp)
 2112              		.cfi_restore 8
 2113              		.cfi_def_cfa 2, 32
 2114 006e 0561     		addi	sp,sp,32
 2115              		.cfi_def_cfa_offset 0
 2116 0070 8280     		jr	ra
 2117              		.cfi_endproc
 2118              	.LFE370:
 2120              		.section	.text.rtc_hour_adjust,"ax",@progbits
 2121              		.align	1
 2122              		.globl	rtc_hour_adjust
 2124              	rtc_hour_adjust:
 2125              	.LFB371:
 799:../Firmware/GD32VW55x_standard_peripheral/Source/gd32vw55x_rtc.c **** 
 800:../Firmware/GD32VW55x_standard_peripheral/Source/gd32vw55x_rtc.c **** /*!
 801:../Firmware/GD32VW55x_standard_peripheral/Source/gd32vw55x_rtc.c ****     \brief      adjust the daylight saving time by adding or substracting one hour from the current
 802:../Firmware/GD32VW55x_standard_peripheral/Source/gd32vw55x_rtc.c ****     \param[in]  operation: hour adjustment operation
 803:../Firmware/GD32VW55x_standard_peripheral/Source/gd32vw55x_rtc.c ****       \arg        RTC_CTL_A1H: add one hour
 804:../Firmware/GD32VW55x_standard_peripheral/Source/gd32vw55x_rtc.c ****       \arg        RTC_CTL_S1H: substract one hour
 805:../Firmware/GD32VW55x_standard_peripheral/Source/gd32vw55x_rtc.c ****     \param[out] none
 806:../Firmware/GD32VW55x_standard_peripheral/Source/gd32vw55x_rtc.c ****     \retval     none
 807:../Firmware/GD32VW55x_standard_peripheral/Source/gd32vw55x_rtc.c **** */
 808:../Firmware/GD32VW55x_standard_peripheral/Source/gd32vw55x_rtc.c **** void rtc_hour_adjust(uint32_t operation)
 809:../Firmware/GD32VW55x_standard_peripheral/Source/gd32vw55x_rtc.c **** {
 2126              		.loc 1 809 1
 2127              		.cfi_startproc
 2128 0000 0111     		addi	sp,sp,-32
 2129              		.cfi_def_cfa_offset 32
 2130 0002 22CE     		sw	s0,28(sp)
 2131              		.cfi_offset 8, -4
 2132 0004 0010     		addi	s0,sp,32
 2133              		.cfi_def_cfa 8, 0
 2134 0006 2326A4FE 		sw	a0,-20(s0)
 810:../Firmware/GD32VW55x_standard_peripheral/Source/gd32vw55x_rtc.c ****     /* disable the write protection */
 811:../Firmware/GD32VW55x_standard_peripheral/Source/gd32vw55x_rtc.c ****     RTC_WPK = RTC_UNLOCK_KEY1;
 2135              		.loc 1 811 5
 2136 000a B7370040 		li	a5,1073754112
 2137 000e 93874782 		addi	a5,a5,-2012
 2138              		.loc 1 811 13
 2139 0012 1307A00C 		li	a4,202
 2140 0016 98C3     		sw	a4,0(a5)
 812:../Firmware/GD32VW55x_standard_peripheral/Source/gd32vw55x_rtc.c ****     RTC_WPK = RTC_UNLOCK_KEY2;
 2141              		.loc 1 812 5
 2142 0018 B7370040 		li	a5,1073754112
 2143 001c 93874782 		addi	a5,a5,-2012
 2144              		.loc 1 812 13
 2145 0020 13073005 		li	a4,83
 2146 0024 98C3     		sw	a4,0(a5)
 813:../Firmware/GD32VW55x_standard_peripheral/Source/gd32vw55x_rtc.c **** 
 814:../Firmware/GD32VW55x_standard_peripheral/Source/gd32vw55x_rtc.c ****     RTC_CTL |= (uint32_t)(operation);
 2147              		.loc 1 814 13
 2148 0026 B7370040 		li	a5,1073754112
 2149 002a 93878780 		addi	a5,a5,-2040
 2150 002e 9443     		lw	a3,0(a5)
 2151 0030 B7370040 		li	a5,1073754112
 2152 0034 93878780 		addi	a5,a5,-2040
 2153 0038 0327C4FE 		lw	a4,-20(s0)
 2154 003c 558F     		or	a4,a3,a4
 2155 003e 98C3     		sw	a4,0(a5)
 815:../Firmware/GD32VW55x_standard_peripheral/Source/gd32vw55x_rtc.c **** 
 816:../Firmware/GD32VW55x_standard_peripheral/Source/gd32vw55x_rtc.c ****     /* enable the write protection */
 817:../Firmware/GD32VW55x_standard_peripheral/Source/gd32vw55x_rtc.c ****     RTC_WPK = RTC_LOCK_KEY;
 2156              		.loc 1 817 5
 2157 0040 B7370040 		li	a5,1073754112
 2158 0044 93874782 		addi	a5,a5,-2012
 2159              		.loc 1 817 13
 2160 0048 1307F00F 		li	a4,255
 2161 004c 98C3     		sw	a4,0(a5)
 818:../Firmware/GD32VW55x_standard_peripheral/Source/gd32vw55x_rtc.c **** }
 2162              		.loc 1 818 1
 2163 004e 0100     		nop
 2164 0050 7244     		lw	s0,28(sp)
 2165              		.cfi_restore 8
 2166              		.cfi_def_cfa 2, 32
 2167 0052 0561     		addi	sp,sp,32
 2168              		.cfi_def_cfa_offset 0
 2169 0054 8280     		jr	ra
 2170              		.cfi_endproc
 2171              	.LFE371:
 2173              		.section	.text.rtc_second_adjust,"ax",@progbits
 2174              		.align	1
 2175              		.globl	rtc_second_adjust
 2177              	rtc_second_adjust:
 2178              	.LFB372:
 819:../Firmware/GD32VW55x_standard_peripheral/Source/gd32vw55x_rtc.c **** 
 820:../Firmware/GD32VW55x_standard_peripheral/Source/gd32vw55x_rtc.c **** /*!
 821:../Firmware/GD32VW55x_standard_peripheral/Source/gd32vw55x_rtc.c ****     \brief      adjust RTC second or subsecond value of current time
 822:../Firmware/GD32VW55x_standard_peripheral/Source/gd32vw55x_rtc.c ****     \param[in]  add: add 1s to current time or not
 823:../Firmware/GD32VW55x_standard_peripheral/Source/gd32vw55x_rtc.c ****       \arg        RTC_SHIFT_ADD1S_RESET: no effect
 824:../Firmware/GD32VW55x_standard_peripheral/Source/gd32vw55x_rtc.c ****       \arg        RTC_SHIFT_ADD1S_SET: add 1s to current time
 825:../Firmware/GD32VW55x_standard_peripheral/Source/gd32vw55x_rtc.c ****     \param[in]  minus: number of subsecond to minus from current time(0x0 - 0x7FFF)
 826:../Firmware/GD32VW55x_standard_peripheral/Source/gd32vw55x_rtc.c ****     \param[out] none
 827:../Firmware/GD32VW55x_standard_peripheral/Source/gd32vw55x_rtc.c ****     \retval     ErrStatus: ERROR or SUCCESS
 828:../Firmware/GD32VW55x_standard_peripheral/Source/gd32vw55x_rtc.c **** */
 829:../Firmware/GD32VW55x_standard_peripheral/Source/gd32vw55x_rtc.c **** ErrStatus rtc_second_adjust(uint32_t add, uint32_t minus)
 830:../Firmware/GD32VW55x_standard_peripheral/Source/gd32vw55x_rtc.c **** {
 2179              		.loc 1 830 1
 2180              		.cfi_startproc
 2181 0000 7971     		addi	sp,sp,-48
 2182              		.cfi_def_cfa_offset 48
 2183 0002 06D6     		sw	ra,44(sp)
 2184 0004 22D4     		sw	s0,40(sp)
 2185              		.cfi_offset 1, -4
 2186              		.cfi_offset 8, -8
 2187 0006 0018     		addi	s0,sp,48
 2188              		.cfi_def_cfa 8, 0
 2189 0008 232EA4FC 		sw	a0,-36(s0)
 2190 000c 232CB4FC 		sw	a1,-40(s0)
 831:../Firmware/GD32VW55x_standard_peripheral/Source/gd32vw55x_rtc.c ****     volatile uint32_t time_index = RTC_SHIFTCTL_TIMEOUT;
 2191              		.loc 1 831 23
 2192 0010 8567     		li	a5,4096
 2193 0012 2320F4FE 		sw	a5,-32(s0)
 832:../Firmware/GD32VW55x_standard_peripheral/Source/gd32vw55x_rtc.c ****     ErrStatus error_status = ERROR;
 2194              		.loc 1 832 15
 2195 0016 232604FE 		sw	zero,-20(s0)
 833:../Firmware/GD32VW55x_standard_peripheral/Source/gd32vw55x_rtc.c ****     uint32_t flag_status = RESET;
 2196              		.loc 1 833 14
 2197 001a 232404FE 		sw	zero,-24(s0)
 834:../Firmware/GD32VW55x_standard_peripheral/Source/gd32vw55x_rtc.c ****     uint32_t temp = 0U;
 2198              		.loc 1 834 14
 2199 001e 232204FE 		sw	zero,-28(s0)
 835:../Firmware/GD32VW55x_standard_peripheral/Source/gd32vw55x_rtc.c ****     /* disable the write protection */
 836:../Firmware/GD32VW55x_standard_peripheral/Source/gd32vw55x_rtc.c ****     RTC_WPK = RTC_UNLOCK_KEY1;
 2200              		.loc 1 836 5
 2201 0022 B7370040 		li	a5,1073754112
 2202 0026 93874782 		addi	a5,a5,-2012
 2203              		.loc 1 836 13
 2204 002a 1307A00C 		li	a4,202
 2205 002e 98C3     		sw	a4,0(a5)
 837:../Firmware/GD32VW55x_standard_peripheral/Source/gd32vw55x_rtc.c ****     RTC_WPK = RTC_UNLOCK_KEY2;
 2206              		.loc 1 837 5
 2207 0030 B7370040 		li	a5,1073754112
 2208 0034 93874782 		addi	a5,a5,-2012
 2209              		.loc 1 837 13
 2210 0038 13073005 		li	a4,83
 2211 003c 98C3     		sw	a4,0(a5)
 2212              	.L69:
 838:../Firmware/GD32VW55x_standard_peripheral/Source/gd32vw55x_rtc.c **** 
 839:../Firmware/GD32VW55x_standard_peripheral/Source/gd32vw55x_rtc.c ****     /* check if a shift operation is ongoing */
 840:../Firmware/GD32VW55x_standard_peripheral/Source/gd32vw55x_rtc.c ****     do {
 841:../Firmware/GD32VW55x_standard_peripheral/Source/gd32vw55x_rtc.c ****         flag_status = RTC_STAT & RTC_STAT_SOPF;
 2213              		.loc 1 841 23 discriminator 2
 2214 003e B7370040 		li	a5,1073754112
 2215 0042 9387C780 		addi	a5,a5,-2036
 2216 0046 9C43     		lw	a5,0(a5)
 2217              		.loc 1 841 21 discriminator 2
 2218 0048 A18B     		andi	a5,a5,8
 2219 004a 2324F4FE 		sw	a5,-24(s0)
 842:../Firmware/GD32VW55x_standard_peripheral/Source/gd32vw55x_rtc.c ****     } while((--time_index > 0U) && ((uint32_t)RESET != flag_status));
 2220              		.loc 1 842 14 discriminator 2
 2221 004e 832704FE 		lw	a5,-32(s0)
 2222 0052 FD17     		addi	a5,a5,-1
 2223              		.loc 1 842 5 discriminator 2
 2224 0054 2320F4FE 		sw	a5,-32(s0)
 2225 0058 81C7     		beq	a5,zero,.L68
 2226              		.loc 1 842 33 discriminator 1
 2227 005a 832784FE 		lw	a5,-24(s0)
 2228 005e E5F3     		bne	a5,zero,.L69
 2229              	.L68:
 843:../Firmware/GD32VW55x_standard_peripheral/Source/gd32vw55x_rtc.c **** 
 844:../Firmware/GD32VW55x_standard_peripheral/Source/gd32vw55x_rtc.c ****     /* check if the function of reference clock detection is disabled */
 845:../Firmware/GD32VW55x_standard_peripheral/Source/gd32vw55x_rtc.c ****     temp = RTC_CTL & RTC_CTL_REFEN;
 2230              		.loc 1 845 12
 2231 0060 B7370040 		li	a5,1073754112
 2232 0064 93878780 		addi	a5,a5,-2040
 2233 0068 9C43     		lw	a5,0(a5)
 2234              		.loc 1 845 10
 2235 006a C18B     		andi	a5,a5,16
 2236 006c 2322F4FE 		sw	a5,-28(s0)
 846:../Firmware/GD32VW55x_standard_peripheral/Source/gd32vw55x_rtc.c ****     if((RESET == flag_status) && (RESET == temp)) {
 2237              		.loc 1 846 7
 2238 0070 832784FE 		lw	a5,-24(s0)
 2239 0074 85EB     		bne	a5,zero,.L70
 2240              		.loc 1 846 31 discriminator 1
 2241 0076 832744FE 		lw	a5,-28(s0)
 2242 007a 8DE7     		bne	a5,zero,.L70
 847:../Firmware/GD32VW55x_standard_peripheral/Source/gd32vw55x_rtc.c ****         RTC_SHIFTCTL = (uint32_t)(add | SHIFTCTL_SFS(minus));
 2243              		.loc 1 847 41
 2244 007c 032784FD 		lw	a4,-40(s0)
 2245 0080 A167     		li	a5,32768
 2246 0082 FD17     		addi	a5,a5,-1
 2247 0084 B376F700 		and	a3,a4,a5
 2248              		.loc 1 847 9
 2249 0088 B7370040 		li	a5,1073754112
 2250 008c 9387C782 		addi	a5,a5,-2004
 2251              		.loc 1 847 24
 2252 0090 0327C4FD 		lw	a4,-36(s0)
 2253 0094 558F     		or	a4,a3,a4
 2254              		.loc 1 847 22
 2255 0096 98C3     		sw	a4,0(a5)
 848:../Firmware/GD32VW55x_standard_peripheral/Source/gd32vw55x_rtc.c ****         error_status = rtc_register_sync_wait();
 2256              		.loc 1 848 24
 2257 0098 97000000 		call	rtc_register_sync_wait
 2257      E7800000 
 2258 00a0 2326A4FE 		sw	a0,-20(s0)
 2259              	.L70:
 849:../Firmware/GD32VW55x_standard_peripheral/Source/gd32vw55x_rtc.c ****     }
 850:../Firmware/GD32VW55x_standard_peripheral/Source/gd32vw55x_rtc.c ****     /* enable the write protection */
 851:../Firmware/GD32VW55x_standard_peripheral/Source/gd32vw55x_rtc.c ****     RTC_WPK = RTC_LOCK_KEY;
 2260              		.loc 1 851 5
 2261 00a4 B7370040 		li	a5,1073754112
 2262 00a8 93874782 		addi	a5,a5,-2012
 2263              		.loc 1 851 13
 2264 00ac 1307F00F 		li	a4,255
 2265 00b0 98C3     		sw	a4,0(a5)
 852:../Firmware/GD32VW55x_standard_peripheral/Source/gd32vw55x_rtc.c ****     return error_status;
 2266              		.loc 1 852 12
 2267 00b2 8327C4FE 		lw	a5,-20(s0)
 853:../Firmware/GD32VW55x_standard_peripheral/Source/gd32vw55x_rtc.c **** }
 2268              		.loc 1 853 1
 2269 00b6 3E85     		mv	a0,a5
 2270 00b8 B250     		lw	ra,44(sp)
 2271              		.cfi_restore 1
 2272 00ba 2254     		lw	s0,40(sp)
 2273              		.cfi_restore 8
 2274              		.cfi_def_cfa 2, 48
 2275 00bc 4561     		addi	sp,sp,48
 2276              		.cfi_def_cfa_offset 0
 2277 00be 8280     		jr	ra
 2278              		.cfi_endproc
 2279              	.LFE372:
 2281              		.section	.text.rtc_bypass_shadow_enable,"ax",@progbits
 2282              		.align	1
 2283              		.globl	rtc_bypass_shadow_enable
 2285              	rtc_bypass_shadow_enable:
 2286              	.LFB373:
 854:../Firmware/GD32VW55x_standard_peripheral/Source/gd32vw55x_rtc.c **** 
 855:../Firmware/GD32VW55x_standard_peripheral/Source/gd32vw55x_rtc.c **** /*!
 856:../Firmware/GD32VW55x_standard_peripheral/Source/gd32vw55x_rtc.c ****     \brief      enable RTC bypass shadow registers function
 857:../Firmware/GD32VW55x_standard_peripheral/Source/gd32vw55x_rtc.c ****     \param[in]  none
 858:../Firmware/GD32VW55x_standard_peripheral/Source/gd32vw55x_rtc.c ****     \param[out] none
 859:../Firmware/GD32VW55x_standard_peripheral/Source/gd32vw55x_rtc.c ****     \retval     none
 860:../Firmware/GD32VW55x_standard_peripheral/Source/gd32vw55x_rtc.c **** */
 861:../Firmware/GD32VW55x_standard_peripheral/Source/gd32vw55x_rtc.c **** void rtc_bypass_shadow_enable(void)
 862:../Firmware/GD32VW55x_standard_peripheral/Source/gd32vw55x_rtc.c **** {
 2287              		.loc 1 862 1
 2288              		.cfi_startproc
 2289 0000 4111     		addi	sp,sp,-16
 2290              		.cfi_def_cfa_offset 16
 2291 0002 22C6     		sw	s0,12(sp)
 2292              		.cfi_offset 8, -4
 2293 0004 0008     		addi	s0,sp,16
 2294              		.cfi_def_cfa 8, 0
 863:../Firmware/GD32VW55x_standard_peripheral/Source/gd32vw55x_rtc.c ****     /* disable the write protection */
 864:../Firmware/GD32VW55x_standard_peripheral/Source/gd32vw55x_rtc.c ****     RTC_WPK = RTC_UNLOCK_KEY1;
 2295              		.loc 1 864 5
 2296 0006 B7370040 		li	a5,1073754112
 2297 000a 93874782 		addi	a5,a5,-2012
 2298              		.loc 1 864 13
 2299 000e 1307A00C 		li	a4,202
 2300 0012 98C3     		sw	a4,0(a5)
 865:../Firmware/GD32VW55x_standard_peripheral/Source/gd32vw55x_rtc.c ****     RTC_WPK = RTC_UNLOCK_KEY2;
 2301              		.loc 1 865 5
 2302 0014 B7370040 		li	a5,1073754112
 2303 0018 93874782 		addi	a5,a5,-2012
 2304              		.loc 1 865 13
 2305 001c 13073005 		li	a4,83
 2306 0020 98C3     		sw	a4,0(a5)
 866:../Firmware/GD32VW55x_standard_peripheral/Source/gd32vw55x_rtc.c **** 
 867:../Firmware/GD32VW55x_standard_peripheral/Source/gd32vw55x_rtc.c ****     RTC_CTL |= RTC_CTL_BPSHAD;
 2307              		.loc 1 867 13
 2308 0022 B7370040 		li	a5,1073754112
 2309 0026 93878780 		addi	a5,a5,-2040
 2310 002a 9843     		lw	a4,0(a5)
 2311 002c B7370040 		li	a5,1073754112
 2312 0030 93878780 		addi	a5,a5,-2040
 2313 0034 13670702 		ori	a4,a4,32
 2314 0038 98C3     		sw	a4,0(a5)
 868:../Firmware/GD32VW55x_standard_peripheral/Source/gd32vw55x_rtc.c **** 
 869:../Firmware/GD32VW55x_standard_peripheral/Source/gd32vw55x_rtc.c ****     /* enable the write protection */
 870:../Firmware/GD32VW55x_standard_peripheral/Source/gd32vw55x_rtc.c ****     RTC_WPK = RTC_LOCK_KEY;
 2315              		.loc 1 870 5
 2316 003a B7370040 		li	a5,1073754112
 2317 003e 93874782 		addi	a5,a5,-2012
 2318              		.loc 1 870 13
 2319 0042 1307F00F 		li	a4,255
 2320 0046 98C3     		sw	a4,0(a5)
 871:../Firmware/GD32VW55x_standard_peripheral/Source/gd32vw55x_rtc.c **** }
 2321              		.loc 1 871 1
 2322 0048 0100     		nop
 2323 004a 3244     		lw	s0,12(sp)
 2324              		.cfi_restore 8
 2325              		.cfi_def_cfa 2, 16
 2326 004c 4101     		addi	sp,sp,16
 2327              		.cfi_def_cfa_offset 0
 2328 004e 8280     		jr	ra
 2329              		.cfi_endproc
 2330              	.LFE373:
 2332              		.section	.text.rtc_bypass_shadow_disable,"ax",@progbits
 2333              		.align	1
 2334              		.globl	rtc_bypass_shadow_disable
 2336              	rtc_bypass_shadow_disable:
 2337              	.LFB374:
 872:../Firmware/GD32VW55x_standard_peripheral/Source/gd32vw55x_rtc.c **** 
 873:../Firmware/GD32VW55x_standard_peripheral/Source/gd32vw55x_rtc.c **** /*!
 874:../Firmware/GD32VW55x_standard_peripheral/Source/gd32vw55x_rtc.c ****     \brief      disable RTC bypass shadow registers function
 875:../Firmware/GD32VW55x_standard_peripheral/Source/gd32vw55x_rtc.c ****     \param[in]  none
 876:../Firmware/GD32VW55x_standard_peripheral/Source/gd32vw55x_rtc.c ****     \param[out] none
 877:../Firmware/GD32VW55x_standard_peripheral/Source/gd32vw55x_rtc.c ****     \retval     none
 878:../Firmware/GD32VW55x_standard_peripheral/Source/gd32vw55x_rtc.c **** */
 879:../Firmware/GD32VW55x_standard_peripheral/Source/gd32vw55x_rtc.c **** void rtc_bypass_shadow_disable(void)
 880:../Firmware/GD32VW55x_standard_peripheral/Source/gd32vw55x_rtc.c **** {
 2338              		.loc 1 880 1
 2339              		.cfi_startproc
 2340 0000 4111     		addi	sp,sp,-16
 2341              		.cfi_def_cfa_offset 16
 2342 0002 22C6     		sw	s0,12(sp)
 2343              		.cfi_offset 8, -4
 2344 0004 0008     		addi	s0,sp,16
 2345              		.cfi_def_cfa 8, 0
 881:../Firmware/GD32VW55x_standard_peripheral/Source/gd32vw55x_rtc.c ****     /* disable the write protection */
 882:../Firmware/GD32VW55x_standard_peripheral/Source/gd32vw55x_rtc.c ****     RTC_WPK = RTC_UNLOCK_KEY1;
 2346              		.loc 1 882 5
 2347 0006 B7370040 		li	a5,1073754112
 2348 000a 93874782 		addi	a5,a5,-2012
 2349              		.loc 1 882 13
 2350 000e 1307A00C 		li	a4,202
 2351 0012 98C3     		sw	a4,0(a5)
 883:../Firmware/GD32VW55x_standard_peripheral/Source/gd32vw55x_rtc.c ****     RTC_WPK = RTC_UNLOCK_KEY2;
 2352              		.loc 1 883 5
 2353 0014 B7370040 		li	a5,1073754112
 2354 0018 93874782 		addi	a5,a5,-2012
 2355              		.loc 1 883 13
 2356 001c 13073005 		li	a4,83
 2357 0020 98C3     		sw	a4,0(a5)
 884:../Firmware/GD32VW55x_standard_peripheral/Source/gd32vw55x_rtc.c **** 
 885:../Firmware/GD32VW55x_standard_peripheral/Source/gd32vw55x_rtc.c ****     RTC_CTL &= ~RTC_CTL_BPSHAD;
 2358              		.loc 1 885 13
 2359 0022 B7370040 		li	a5,1073754112
 2360 0026 93878780 		addi	a5,a5,-2040
 2361 002a 9843     		lw	a4,0(a5)
 2362 002c B7370040 		li	a5,1073754112
 2363 0030 93878780 		addi	a5,a5,-2040
 2364 0034 1377F7FD 		andi	a4,a4,-33
 2365 0038 98C3     		sw	a4,0(a5)
 886:../Firmware/GD32VW55x_standard_peripheral/Source/gd32vw55x_rtc.c **** 
 887:../Firmware/GD32VW55x_standard_peripheral/Source/gd32vw55x_rtc.c ****     /* enable the write protection */
 888:../Firmware/GD32VW55x_standard_peripheral/Source/gd32vw55x_rtc.c ****     RTC_WPK = RTC_LOCK_KEY;
 2366              		.loc 1 888 5
 2367 003a B7370040 		li	a5,1073754112
 2368 003e 93874782 		addi	a5,a5,-2012
 2369              		.loc 1 888 13
 2370 0042 1307F00F 		li	a4,255
 2371 0046 98C3     		sw	a4,0(a5)
 889:../Firmware/GD32VW55x_standard_peripheral/Source/gd32vw55x_rtc.c **** }
 2372              		.loc 1 889 1
 2373 0048 0100     		nop
 2374 004a 3244     		lw	s0,12(sp)
 2375              		.cfi_restore 8
 2376              		.cfi_def_cfa 2, 16
 2377 004c 4101     		addi	sp,sp,16
 2378              		.cfi_def_cfa_offset 0
 2379 004e 8280     		jr	ra
 2380              		.cfi_endproc
 2381              	.LFE374:
 2383              		.section	.text.rtc_refclock_detection_enable,"ax",@progbits
 2384              		.align	1
 2385              		.globl	rtc_refclock_detection_enable
 2387              	rtc_refclock_detection_enable:
 2388              	.LFB375:
 890:../Firmware/GD32VW55x_standard_peripheral/Source/gd32vw55x_rtc.c **** 
 891:../Firmware/GD32VW55x_standard_peripheral/Source/gd32vw55x_rtc.c **** /*!
 892:../Firmware/GD32VW55x_standard_peripheral/Source/gd32vw55x_rtc.c ****     \brief      enable RTC reference clock detection function
 893:../Firmware/GD32VW55x_standard_peripheral/Source/gd32vw55x_rtc.c ****     \param[in]  none
 894:../Firmware/GD32VW55x_standard_peripheral/Source/gd32vw55x_rtc.c ****     \param[out] none
 895:../Firmware/GD32VW55x_standard_peripheral/Source/gd32vw55x_rtc.c ****     \retval     ErrStatus: ERROR or SUCCESS
 896:../Firmware/GD32VW55x_standard_peripheral/Source/gd32vw55x_rtc.c **** */
 897:../Firmware/GD32VW55x_standard_peripheral/Source/gd32vw55x_rtc.c **** ErrStatus rtc_refclock_detection_enable(void)
 898:../Firmware/GD32VW55x_standard_peripheral/Source/gd32vw55x_rtc.c **** {
 2389              		.loc 1 898 1
 2390              		.cfi_startproc
 2391 0000 0111     		addi	sp,sp,-32
 2392              		.cfi_def_cfa_offset 32
 2393 0002 06CE     		sw	ra,28(sp)
 2394 0004 22CC     		sw	s0,24(sp)
 2395              		.cfi_offset 1, -4
 2396              		.cfi_offset 8, -8
 2397 0006 0010     		addi	s0,sp,32
 2398              		.cfi_def_cfa 8, 0
 899:../Firmware/GD32VW55x_standard_peripheral/Source/gd32vw55x_rtc.c ****     ErrStatus error_status = ERROR;
 2399              		.loc 1 899 15
 2400 0008 232604FE 		sw	zero,-20(s0)
 900:../Firmware/GD32VW55x_standard_peripheral/Source/gd32vw55x_rtc.c **** 
 901:../Firmware/GD32VW55x_standard_peripheral/Source/gd32vw55x_rtc.c ****     /* disable the write protection */
 902:../Firmware/GD32VW55x_standard_peripheral/Source/gd32vw55x_rtc.c ****     RTC_WPK = RTC_UNLOCK_KEY1;
 2401              		.loc 1 902 5
 2402 000c B7370040 		li	a5,1073754112
 2403 0010 93874782 		addi	a5,a5,-2012
 2404              		.loc 1 902 13
 2405 0014 1307A00C 		li	a4,202
 2406 0018 98C3     		sw	a4,0(a5)
 903:../Firmware/GD32VW55x_standard_peripheral/Source/gd32vw55x_rtc.c ****     RTC_WPK = RTC_UNLOCK_KEY2;
 2407              		.loc 1 903 5
 2408 001a B7370040 		li	a5,1073754112
 2409 001e 93874782 		addi	a5,a5,-2012
 2410              		.loc 1 903 13
 2411 0022 13073005 		li	a4,83
 2412 0026 98C3     		sw	a4,0(a5)
 904:../Firmware/GD32VW55x_standard_peripheral/Source/gd32vw55x_rtc.c **** 
 905:../Firmware/GD32VW55x_standard_peripheral/Source/gd32vw55x_rtc.c ****     /* enter init mode */
 906:../Firmware/GD32VW55x_standard_peripheral/Source/gd32vw55x_rtc.c ****     error_status = rtc_init_mode_enter();
 2413              		.loc 1 906 20
 2414 0028 97000000 		call	rtc_init_mode_enter
 2414      E7800000 
 2415 0030 2326A4FE 		sw	a0,-20(s0)
 907:../Firmware/GD32VW55x_standard_peripheral/Source/gd32vw55x_rtc.c **** 
 908:../Firmware/GD32VW55x_standard_peripheral/Source/gd32vw55x_rtc.c ****     if(ERROR != error_status) {
 2416              		.loc 1 908 7
 2417 0034 8327C4FE 		lw	a5,-20(s0)
 2418 0038 8DC3     		beq	a5,zero,.L75
 909:../Firmware/GD32VW55x_standard_peripheral/Source/gd32vw55x_rtc.c ****         RTC_CTL |= (uint32_t)RTC_CTL_REFEN;
 2419              		.loc 1 909 17
 2420 003a B7370040 		li	a5,1073754112
 2421 003e 93878780 		addi	a5,a5,-2040
 2422 0042 9843     		lw	a4,0(a5)
 2423 0044 B7370040 		li	a5,1073754112
 2424 0048 93878780 		addi	a5,a5,-2040
 2425 004c 13670701 		ori	a4,a4,16
 2426 0050 98C3     		sw	a4,0(a5)
 910:../Firmware/GD32VW55x_standard_peripheral/Source/gd32vw55x_rtc.c ****         /* exit init mode */
 911:../Firmware/GD32VW55x_standard_peripheral/Source/gd32vw55x_rtc.c ****         rtc_init_mode_exit();
 2427              		.loc 1 911 9
 2428 0052 97000000 		call	rtc_init_mode_exit
 2428      E7800000 
 2429              	.L75:
 912:../Firmware/GD32VW55x_standard_peripheral/Source/gd32vw55x_rtc.c ****     }
 913:../Firmware/GD32VW55x_standard_peripheral/Source/gd32vw55x_rtc.c ****     /* enable the write protection */
 914:../Firmware/GD32VW55x_standard_peripheral/Source/gd32vw55x_rtc.c ****     RTC_WPK = RTC_LOCK_KEY;
 2430              		.loc 1 914 5
 2431 005a B7370040 		li	a5,1073754112
 2432 005e 93874782 		addi	a5,a5,-2012
 2433              		.loc 1 914 13
 2434 0062 1307F00F 		li	a4,255
 2435 0066 98C3     		sw	a4,0(a5)
 915:../Firmware/GD32VW55x_standard_peripheral/Source/gd32vw55x_rtc.c ****     return error_status;
 2436              		.loc 1 915 12
 2437 0068 8327C4FE 		lw	a5,-20(s0)
 916:../Firmware/GD32VW55x_standard_peripheral/Source/gd32vw55x_rtc.c **** }
 2438              		.loc 1 916 1
 2439 006c 3E85     		mv	a0,a5
 2440 006e F240     		lw	ra,28(sp)
 2441              		.cfi_restore 1
 2442 0070 6244     		lw	s0,24(sp)
 2443              		.cfi_restore 8
 2444              		.cfi_def_cfa 2, 32
 2445 0072 0561     		addi	sp,sp,32
 2446              		.cfi_def_cfa_offset 0
 2447 0074 8280     		jr	ra
 2448              		.cfi_endproc
 2449              	.LFE375:
 2451              		.section	.text.rtc_refclock_detection_disable,"ax",@progbits
 2452              		.align	1
 2453              		.globl	rtc_refclock_detection_disable
 2455              	rtc_refclock_detection_disable:
 2456              	.LFB376:
 917:../Firmware/GD32VW55x_standard_peripheral/Source/gd32vw55x_rtc.c **** 
 918:../Firmware/GD32VW55x_standard_peripheral/Source/gd32vw55x_rtc.c **** /*!
 919:../Firmware/GD32VW55x_standard_peripheral/Source/gd32vw55x_rtc.c ****     \brief      disable RTC reference clock detection function
 920:../Firmware/GD32VW55x_standard_peripheral/Source/gd32vw55x_rtc.c ****     \param[in]  none
 921:../Firmware/GD32VW55x_standard_peripheral/Source/gd32vw55x_rtc.c ****     \param[out] none
 922:../Firmware/GD32VW55x_standard_peripheral/Source/gd32vw55x_rtc.c ****     \retval     ErrStatus: ERROR or SUCCESS
 923:../Firmware/GD32VW55x_standard_peripheral/Source/gd32vw55x_rtc.c **** */
 924:../Firmware/GD32VW55x_standard_peripheral/Source/gd32vw55x_rtc.c **** ErrStatus rtc_refclock_detection_disable(void)
 925:../Firmware/GD32VW55x_standard_peripheral/Source/gd32vw55x_rtc.c **** {
 2457              		.loc 1 925 1
 2458              		.cfi_startproc
 2459 0000 0111     		addi	sp,sp,-32
 2460              		.cfi_def_cfa_offset 32
 2461 0002 06CE     		sw	ra,28(sp)
 2462 0004 22CC     		sw	s0,24(sp)
 2463              		.cfi_offset 1, -4
 2464              		.cfi_offset 8, -8
 2465 0006 0010     		addi	s0,sp,32
 2466              		.cfi_def_cfa 8, 0
 926:../Firmware/GD32VW55x_standard_peripheral/Source/gd32vw55x_rtc.c ****     ErrStatus error_status = ERROR;
 2467              		.loc 1 926 15
 2468 0008 232604FE 		sw	zero,-20(s0)
 927:../Firmware/GD32VW55x_standard_peripheral/Source/gd32vw55x_rtc.c **** 
 928:../Firmware/GD32VW55x_standard_peripheral/Source/gd32vw55x_rtc.c ****     /* disable the write protection */
 929:../Firmware/GD32VW55x_standard_peripheral/Source/gd32vw55x_rtc.c ****     RTC_WPK = RTC_UNLOCK_KEY1;
 2469              		.loc 1 929 5
 2470 000c B7370040 		li	a5,1073754112
 2471 0010 93874782 		addi	a5,a5,-2012
 2472              		.loc 1 929 13
 2473 0014 1307A00C 		li	a4,202
 2474 0018 98C3     		sw	a4,0(a5)
 930:../Firmware/GD32VW55x_standard_peripheral/Source/gd32vw55x_rtc.c ****     RTC_WPK = RTC_UNLOCK_KEY2;
 2475              		.loc 1 930 5
 2476 001a B7370040 		li	a5,1073754112
 2477 001e 93874782 		addi	a5,a5,-2012
 2478              		.loc 1 930 13
 2479 0022 13073005 		li	a4,83
 2480 0026 98C3     		sw	a4,0(a5)
 931:../Firmware/GD32VW55x_standard_peripheral/Source/gd32vw55x_rtc.c **** 
 932:../Firmware/GD32VW55x_standard_peripheral/Source/gd32vw55x_rtc.c ****     /* enter init mode */
 933:../Firmware/GD32VW55x_standard_peripheral/Source/gd32vw55x_rtc.c ****     error_status = rtc_init_mode_enter();
 2481              		.loc 1 933 20
 2482 0028 97000000 		call	rtc_init_mode_enter
 2482      E7800000 
 2483 0030 2326A4FE 		sw	a0,-20(s0)
 934:../Firmware/GD32VW55x_standard_peripheral/Source/gd32vw55x_rtc.c **** 
 935:../Firmware/GD32VW55x_standard_peripheral/Source/gd32vw55x_rtc.c ****     if(ERROR != error_status) {
 2484              		.loc 1 935 7
 2485 0034 8327C4FE 		lw	a5,-20(s0)
 2486 0038 85C3     		beq	a5,zero,.L78
 936:../Firmware/GD32VW55x_standard_peripheral/Source/gd32vw55x_rtc.c ****         RTC_CTL &= (uint32_t)~RTC_CTL_REFEN;
 2487              		.loc 1 936 17
 2488 003a B7370040 		li	a5,1073754112
 2489 003e 93878780 		addi	a5,a5,-2040
 2490 0042 9843     		lw	a4,0(a5)
 2491 0044 B7370040 		li	a5,1073754112
 2492 0048 93878780 		addi	a5,a5,-2040
 2493 004c 3D9B     		andi	a4,a4,-17
 2494 004e 98C3     		sw	a4,0(a5)
 937:../Firmware/GD32VW55x_standard_peripheral/Source/gd32vw55x_rtc.c ****         /* exit init mode */
 938:../Firmware/GD32VW55x_standard_peripheral/Source/gd32vw55x_rtc.c ****         rtc_init_mode_exit();
 2495              		.loc 1 938 9
 2496 0050 97000000 		call	rtc_init_mode_exit
 2496      E7800000 
 2497              	.L78:
 939:../Firmware/GD32VW55x_standard_peripheral/Source/gd32vw55x_rtc.c ****     }
 940:../Firmware/GD32VW55x_standard_peripheral/Source/gd32vw55x_rtc.c **** 
 941:../Firmware/GD32VW55x_standard_peripheral/Source/gd32vw55x_rtc.c ****     /* enable the write protection */
 942:../Firmware/GD32VW55x_standard_peripheral/Source/gd32vw55x_rtc.c ****     RTC_WPK = RTC_LOCK_KEY;
 2498              		.loc 1 942 5
 2499 0058 B7370040 		li	a5,1073754112
 2500 005c 93874782 		addi	a5,a5,-2012
 2501              		.loc 1 942 13
 2502 0060 1307F00F 		li	a4,255
 2503 0064 98C3     		sw	a4,0(a5)
 943:../Firmware/GD32VW55x_standard_peripheral/Source/gd32vw55x_rtc.c **** 
 944:../Firmware/GD32VW55x_standard_peripheral/Source/gd32vw55x_rtc.c ****     return error_status;
 2504              		.loc 1 944 12
 2505 0066 8327C4FE 		lw	a5,-20(s0)
 945:../Firmware/GD32VW55x_standard_peripheral/Source/gd32vw55x_rtc.c **** }
 2506              		.loc 1 945 1
 2507 006a 3E85     		mv	a0,a5
 2508 006c F240     		lw	ra,28(sp)
 2509              		.cfi_restore 1
 2510 006e 6244     		lw	s0,24(sp)
 2511              		.cfi_restore 8
 2512              		.cfi_def_cfa 2, 32
 2513 0070 0561     		addi	sp,sp,32
 2514              		.cfi_def_cfa_offset 0
 2515 0072 8280     		jr	ra
 2516              		.cfi_endproc
 2517              	.LFE376:
 2519              		.section	.text.rtc_wakeup_enable,"ax",@progbits
 2520              		.align	1
 2521              		.globl	rtc_wakeup_enable
 2523              	rtc_wakeup_enable:
 2524              	.LFB377:
 946:../Firmware/GD32VW55x_standard_peripheral/Source/gd32vw55x_rtc.c **** 
 947:../Firmware/GD32VW55x_standard_peripheral/Source/gd32vw55x_rtc.c **** /*!
 948:../Firmware/GD32VW55x_standard_peripheral/Source/gd32vw55x_rtc.c ****     \brief      enable RTC auto wakeup function
 949:../Firmware/GD32VW55x_standard_peripheral/Source/gd32vw55x_rtc.c ****     \param[in]  none
 950:../Firmware/GD32VW55x_standard_peripheral/Source/gd32vw55x_rtc.c ****     \param[out] none
 951:../Firmware/GD32VW55x_standard_peripheral/Source/gd32vw55x_rtc.c ****     \retval     none
 952:../Firmware/GD32VW55x_standard_peripheral/Source/gd32vw55x_rtc.c **** */
 953:../Firmware/GD32VW55x_standard_peripheral/Source/gd32vw55x_rtc.c **** void rtc_wakeup_enable(void)
 954:../Firmware/GD32VW55x_standard_peripheral/Source/gd32vw55x_rtc.c **** {
 2525              		.loc 1 954 1
 2526              		.cfi_startproc
 2527 0000 4111     		addi	sp,sp,-16
 2528              		.cfi_def_cfa_offset 16
 2529 0002 22C6     		sw	s0,12(sp)
 2530              		.cfi_offset 8, -4
 2531 0004 0008     		addi	s0,sp,16
 2532              		.cfi_def_cfa 8, 0
 955:../Firmware/GD32VW55x_standard_peripheral/Source/gd32vw55x_rtc.c ****     /* disable the write protection */
 956:../Firmware/GD32VW55x_standard_peripheral/Source/gd32vw55x_rtc.c ****     RTC_WPK = RTC_UNLOCK_KEY1;
 2533              		.loc 1 956 5
 2534 0006 B7370040 		li	a5,1073754112
 2535 000a 93874782 		addi	a5,a5,-2012
 2536              		.loc 1 956 13
 2537 000e 1307A00C 		li	a4,202
 2538 0012 98C3     		sw	a4,0(a5)
 957:../Firmware/GD32VW55x_standard_peripheral/Source/gd32vw55x_rtc.c ****     RTC_WPK = RTC_UNLOCK_KEY2;
 2539              		.loc 1 957 5
 2540 0014 B7370040 		li	a5,1073754112
 2541 0018 93874782 		addi	a5,a5,-2012
 2542              		.loc 1 957 13
 2543 001c 13073005 		li	a4,83
 2544 0020 98C3     		sw	a4,0(a5)
 958:../Firmware/GD32VW55x_standard_peripheral/Source/gd32vw55x_rtc.c **** 
 959:../Firmware/GD32VW55x_standard_peripheral/Source/gd32vw55x_rtc.c ****     RTC_CTL |= RTC_CTL_WTEN;
 2545              		.loc 1 959 13
 2546 0022 B7370040 		li	a5,1073754112
 2547 0026 93878780 		addi	a5,a5,-2040
 2548 002a 9843     		lw	a4,0(a5)
 2549 002c B7370040 		li	a5,1073754112
 2550 0030 93878780 		addi	a5,a5,-2040
 2551 0034 13670740 		ori	a4,a4,1024
 2552 0038 98C3     		sw	a4,0(a5)
 960:../Firmware/GD32VW55x_standard_peripheral/Source/gd32vw55x_rtc.c **** 
 961:../Firmware/GD32VW55x_standard_peripheral/Source/gd32vw55x_rtc.c ****     /* enable the write protection */
 962:../Firmware/GD32VW55x_standard_peripheral/Source/gd32vw55x_rtc.c ****     RTC_WPK = RTC_LOCK_KEY;
 2553              		.loc 1 962 5
 2554 003a B7370040 		li	a5,1073754112
 2555 003e 93874782 		addi	a5,a5,-2012
 2556              		.loc 1 962 13
 2557 0042 1307F00F 		li	a4,255
 2558 0046 98C3     		sw	a4,0(a5)
 963:../Firmware/GD32VW55x_standard_peripheral/Source/gd32vw55x_rtc.c **** }
 2559              		.loc 1 963 1
 2560 0048 0100     		nop
 2561 004a 3244     		lw	s0,12(sp)
 2562              		.cfi_restore 8
 2563              		.cfi_def_cfa 2, 16
 2564 004c 4101     		addi	sp,sp,16
 2565              		.cfi_def_cfa_offset 0
 2566 004e 8280     		jr	ra
 2567              		.cfi_endproc
 2568              	.LFE377:
 2570              		.section	.text.rtc_wakeup_disable,"ax",@progbits
 2571              		.align	1
 2572              		.globl	rtc_wakeup_disable
 2574              	rtc_wakeup_disable:
 2575              	.LFB378:
 964:../Firmware/GD32VW55x_standard_peripheral/Source/gd32vw55x_rtc.c **** 
 965:../Firmware/GD32VW55x_standard_peripheral/Source/gd32vw55x_rtc.c **** /*!
 966:../Firmware/GD32VW55x_standard_peripheral/Source/gd32vw55x_rtc.c ****     \brief      disable RTC auto wakeup function
 967:../Firmware/GD32VW55x_standard_peripheral/Source/gd32vw55x_rtc.c ****     \param[in]  none
 968:../Firmware/GD32VW55x_standard_peripheral/Source/gd32vw55x_rtc.c ****     \param[out] none
 969:../Firmware/GD32VW55x_standard_peripheral/Source/gd32vw55x_rtc.c ****     \retval     ErrStatus: ERROR or SUCCESS
 970:../Firmware/GD32VW55x_standard_peripheral/Source/gd32vw55x_rtc.c **** */
 971:../Firmware/GD32VW55x_standard_peripheral/Source/gd32vw55x_rtc.c **** ErrStatus rtc_wakeup_disable(void)
 972:../Firmware/GD32VW55x_standard_peripheral/Source/gd32vw55x_rtc.c **** {
 2576              		.loc 1 972 1
 2577              		.cfi_startproc
 2578 0000 0111     		addi	sp,sp,-32
 2579              		.cfi_def_cfa_offset 32
 2580 0002 22CE     		sw	s0,28(sp)
 2581              		.cfi_offset 8, -4
 2582 0004 0010     		addi	s0,sp,32
 2583              		.cfi_def_cfa 8, 0
 973:../Firmware/GD32VW55x_standard_peripheral/Source/gd32vw55x_rtc.c ****     ErrStatus error_status = ERROR;
 2584              		.loc 1 973 15
 2585 0006 232604FE 		sw	zero,-20(s0)
 974:../Firmware/GD32VW55x_standard_peripheral/Source/gd32vw55x_rtc.c ****     volatile uint32_t time_index = RTC_WTWF_TIMEOUT;
 2586              		.loc 1 974 23
 2587 000a 9167     		li	a5,16384
 2588 000c 2322F4FE 		sw	a5,-28(s0)
 975:../Firmware/GD32VW55x_standard_peripheral/Source/gd32vw55x_rtc.c ****     uint32_t flag_status = RESET;
 2589              		.loc 1 975 14
 2590 0010 232404FE 		sw	zero,-24(s0)
 976:../Firmware/GD32VW55x_standard_peripheral/Source/gd32vw55x_rtc.c **** 
 977:../Firmware/GD32VW55x_standard_peripheral/Source/gd32vw55x_rtc.c ****     /* disable the write protection */
 978:../Firmware/GD32VW55x_standard_peripheral/Source/gd32vw55x_rtc.c ****     RTC_WPK = RTC_UNLOCK_KEY1;
 2591              		.loc 1 978 5
 2592 0014 B7370040 		li	a5,1073754112
 2593 0018 93874782 		addi	a5,a5,-2012
 2594              		.loc 1 978 13
 2595 001c 1307A00C 		li	a4,202
 2596 0020 98C3     		sw	a4,0(a5)
 979:../Firmware/GD32VW55x_standard_peripheral/Source/gd32vw55x_rtc.c ****     RTC_WPK = RTC_UNLOCK_KEY2;
 2597              		.loc 1 979 5
 2598 0022 B7370040 		li	a5,1073754112
 2599 0026 93874782 		addi	a5,a5,-2012
 2600              		.loc 1 979 13
 2601 002a 13073005 		li	a4,83
 2602 002e 98C3     		sw	a4,0(a5)
 980:../Firmware/GD32VW55x_standard_peripheral/Source/gd32vw55x_rtc.c **** 
 981:../Firmware/GD32VW55x_standard_peripheral/Source/gd32vw55x_rtc.c ****     RTC_CTL &= ~RTC_CTL_WTEN;
 2603              		.loc 1 981 13
 2604 0030 B7370040 		li	a5,1073754112
 2605 0034 93878780 		addi	a5,a5,-2040
 2606 0038 9843     		lw	a4,0(a5)
 2607 003a B7370040 		li	a5,1073754112
 2608 003e 93878780 		addi	a5,a5,-2040
 2609 0042 1377F7BF 		andi	a4,a4,-1025
 2610 0046 98C3     		sw	a4,0(a5)
 2611              	.L83:
 982:../Firmware/GD32VW55x_standard_peripheral/Source/gd32vw55x_rtc.c ****     /* wait until the WTWF flag to be set */
 983:../Firmware/GD32VW55x_standard_peripheral/Source/gd32vw55x_rtc.c ****     do {
 984:../Firmware/GD32VW55x_standard_peripheral/Source/gd32vw55x_rtc.c ****         flag_status = RTC_STAT & RTC_STAT_WTWF;
 2612              		.loc 1 984 23 discriminator 2
 2613 0048 B7370040 		li	a5,1073754112
 2614 004c 9387C780 		addi	a5,a5,-2036
 2615 0050 9C43     		lw	a5,0(a5)
 2616              		.loc 1 984 21 discriminator 2
 2617 0052 918B     		andi	a5,a5,4
 2618 0054 2324F4FE 		sw	a5,-24(s0)
 985:../Firmware/GD32VW55x_standard_peripheral/Source/gd32vw55x_rtc.c ****     } while((--time_index > 0U) && ((uint32_t)RESET == flag_status));
 2619              		.loc 1 985 14 discriminator 2
 2620 0058 832744FE 		lw	a5,-28(s0)
 2621 005c FD17     		addi	a5,a5,-1
 2622              		.loc 1 985 5 discriminator 2
 2623 005e 2322F4FE 		sw	a5,-28(s0)
 2624 0062 81C7     		beq	a5,zero,.L82
 2625              		.loc 1 985 33 discriminator 1
 2626 0064 832784FE 		lw	a5,-24(s0)
 2627 0068 E5D3     		beq	a5,zero,.L83
 2628              	.L82:
 986:../Firmware/GD32VW55x_standard_peripheral/Source/gd32vw55x_rtc.c **** 
 987:../Firmware/GD32VW55x_standard_peripheral/Source/gd32vw55x_rtc.c ****     if((uint32_t)RESET == flag_status) {
 2629              		.loc 1 987 7
 2630 006a 832784FE 		lw	a5,-24(s0)
 2631 006e 81E7     		bne	a5,zero,.L84
 988:../Firmware/GD32VW55x_standard_peripheral/Source/gd32vw55x_rtc.c ****         error_status = ERROR;
 2632              		.loc 1 988 22
 2633 0070 232604FE 		sw	zero,-20(s0)
 2634 0074 21A0     		j	.L85
 2635              	.L84:
 989:../Firmware/GD32VW55x_standard_peripheral/Source/gd32vw55x_rtc.c ****     } else {
 990:../Firmware/GD32VW55x_standard_peripheral/Source/gd32vw55x_rtc.c ****         error_status = SUCCESS;
 2636              		.loc 1 990 22
 2637 0076 8547     		li	a5,1
 2638 0078 2326F4FE 		sw	a5,-20(s0)
 2639              	.L85:
 991:../Firmware/GD32VW55x_standard_peripheral/Source/gd32vw55x_rtc.c ****     }
 992:../Firmware/GD32VW55x_standard_peripheral/Source/gd32vw55x_rtc.c **** 
 993:../Firmware/GD32VW55x_standard_peripheral/Source/gd32vw55x_rtc.c ****     /* enable the write protection */
 994:../Firmware/GD32VW55x_standard_peripheral/Source/gd32vw55x_rtc.c ****     RTC_WPK = RTC_LOCK_KEY;
 2640              		.loc 1 994 5
 2641 007c B7370040 		li	a5,1073754112
 2642 0080 93874782 		addi	a5,a5,-2012
 2643              		.loc 1 994 13
 2644 0084 1307F00F 		li	a4,255
 2645 0088 98C3     		sw	a4,0(a5)
 995:../Firmware/GD32VW55x_standard_peripheral/Source/gd32vw55x_rtc.c **** 
 996:../Firmware/GD32VW55x_standard_peripheral/Source/gd32vw55x_rtc.c ****     return error_status;
 2646              		.loc 1 996 12
 2647 008a 8327C4FE 		lw	a5,-20(s0)
 997:../Firmware/GD32VW55x_standard_peripheral/Source/gd32vw55x_rtc.c **** }
 2648              		.loc 1 997 1
 2649 008e 3E85     		mv	a0,a5
 2650 0090 7244     		lw	s0,28(sp)
 2651              		.cfi_restore 8
 2652              		.cfi_def_cfa 2, 32
 2653 0092 0561     		addi	sp,sp,32
 2654              		.cfi_def_cfa_offset 0
 2655 0094 8280     		jr	ra
 2656              		.cfi_endproc
 2657              	.LFE378:
 2659              		.section	.text.rtc_wakeup_clock_set,"ax",@progbits
 2660              		.align	1
 2661              		.globl	rtc_wakeup_clock_set
 2663              	rtc_wakeup_clock_set:
 2664              	.LFB379:
 998:../Firmware/GD32VW55x_standard_peripheral/Source/gd32vw55x_rtc.c **** 
 999:../Firmware/GD32VW55x_standard_peripheral/Source/gd32vw55x_rtc.c **** /*!
1000:../Firmware/GD32VW55x_standard_peripheral/Source/gd32vw55x_rtc.c ****     \brief      set RTC auto wakeup timer clock
1001:../Firmware/GD32VW55x_standard_peripheral/Source/gd32vw55x_rtc.c ****     \param[in]  wakeup_clock:
1002:../Firmware/GD32VW55x_standard_peripheral/Source/gd32vw55x_rtc.c ****       \arg        WAKEUP_RTCCK_DIV16: RTC auto wakeup timer clock is RTC clock divided by 16
1003:../Firmware/GD32VW55x_standard_peripheral/Source/gd32vw55x_rtc.c ****       \arg        WAKEUP_RTCCK_DIV8: RTC auto wakeup timer clock is RTC clock divided by 8
1004:../Firmware/GD32VW55x_standard_peripheral/Source/gd32vw55x_rtc.c ****       \arg        WAKEUP_RTCCK_DIV4: RTC auto wakeup timer clock is RTC clock divided by 4
1005:../Firmware/GD32VW55x_standard_peripheral/Source/gd32vw55x_rtc.c ****       \arg        WAKEUP_RTCCK_DIV2: RTC auto wakeup timer clock is RTC clock divided by 2
1006:../Firmware/GD32VW55x_standard_peripheral/Source/gd32vw55x_rtc.c ****       \arg        WAKEUP_CKSPRE: RTC auto wakeup timer clock is ckspre
1007:../Firmware/GD32VW55x_standard_peripheral/Source/gd32vw55x_rtc.c ****       \arg        WAKEUP_CKSPRE_2EXP16: RTC auto wakeup timer clock is ckspre and wakeup timer add 
1008:../Firmware/GD32VW55x_standard_peripheral/Source/gd32vw55x_rtc.c ****     \param[out] none
1009:../Firmware/GD32VW55x_standard_peripheral/Source/gd32vw55x_rtc.c ****     \retval     ErrStatus: ERROR or SUCCESS
1010:../Firmware/GD32VW55x_standard_peripheral/Source/gd32vw55x_rtc.c **** */
1011:../Firmware/GD32VW55x_standard_peripheral/Source/gd32vw55x_rtc.c **** ErrStatus rtc_wakeup_clock_set(uint8_t wakeup_clock)
1012:../Firmware/GD32VW55x_standard_peripheral/Source/gd32vw55x_rtc.c **** {
 2665              		.loc 1 1012 1
 2666              		.cfi_startproc
 2667 0000 7971     		addi	sp,sp,-48
 2668              		.cfi_def_cfa_offset 48
 2669 0002 22D6     		sw	s0,44(sp)
 2670              		.cfi_offset 8, -4
 2671 0004 0018     		addi	s0,sp,48
 2672              		.cfi_def_cfa 8, 0
 2673 0006 AA87     		mv	a5,a0
 2674 0008 A30FF4FC 		sb	a5,-33(s0)
1013:../Firmware/GD32VW55x_standard_peripheral/Source/gd32vw55x_rtc.c ****     ErrStatus error_status = ERROR;
 2675              		.loc 1 1013 15
 2676 000c 232604FE 		sw	zero,-20(s0)
1014:../Firmware/GD32VW55x_standard_peripheral/Source/gd32vw55x_rtc.c ****     volatile uint32_t time_index = RTC_WTWF_TIMEOUT;
 2677              		.loc 1 1014 23
 2678 0010 9167     		li	a5,16384
 2679 0012 2322F4FE 		sw	a5,-28(s0)
1015:../Firmware/GD32VW55x_standard_peripheral/Source/gd32vw55x_rtc.c ****     uint32_t flag_status = RESET;
 2680              		.loc 1 1015 14
 2681 0016 232404FE 		sw	zero,-24(s0)
1016:../Firmware/GD32VW55x_standard_peripheral/Source/gd32vw55x_rtc.c **** 
1017:../Firmware/GD32VW55x_standard_peripheral/Source/gd32vw55x_rtc.c ****     /* disable the write protection */
1018:../Firmware/GD32VW55x_standard_peripheral/Source/gd32vw55x_rtc.c ****     RTC_WPK = RTC_UNLOCK_KEY1;
 2682              		.loc 1 1018 5
 2683 001a B7370040 		li	a5,1073754112
 2684 001e 93874782 		addi	a5,a5,-2012
 2685              		.loc 1 1018 13
 2686 0022 1307A00C 		li	a4,202
 2687 0026 98C3     		sw	a4,0(a5)
1019:../Firmware/GD32VW55x_standard_peripheral/Source/gd32vw55x_rtc.c ****     RTC_WPK = RTC_UNLOCK_KEY2;
 2688              		.loc 1 1019 5
 2689 0028 B7370040 		li	a5,1073754112
 2690 002c 93874782 		addi	a5,a5,-2012
 2691              		.loc 1 1019 13
 2692 0030 13073005 		li	a4,83
 2693 0034 98C3     		sw	a4,0(a5)
 2694              	.L89:
1020:../Firmware/GD32VW55x_standard_peripheral/Source/gd32vw55x_rtc.c **** 
1021:../Firmware/GD32VW55x_standard_peripheral/Source/gd32vw55x_rtc.c ****     /* only when RTC_CTL_WTEN=0 and RTC_ICS_WTWF=1 can write RTC_CTL[2:0] */
1022:../Firmware/GD32VW55x_standard_peripheral/Source/gd32vw55x_rtc.c ****     /* wait until the WTWF flag to be set */
1023:../Firmware/GD32VW55x_standard_peripheral/Source/gd32vw55x_rtc.c ****     do {
1024:../Firmware/GD32VW55x_standard_peripheral/Source/gd32vw55x_rtc.c ****         flag_status = RTC_STAT & RTC_STAT_WTWF;
 2695              		.loc 1 1024 23 discriminator 2
 2696 0036 B7370040 		li	a5,1073754112
 2697 003a 9387C780 		addi	a5,a5,-2036
 2698 003e 9C43     		lw	a5,0(a5)
 2699              		.loc 1 1024 21 discriminator 2
 2700 0040 918B     		andi	a5,a5,4
 2701 0042 2324F4FE 		sw	a5,-24(s0)
1025:../Firmware/GD32VW55x_standard_peripheral/Source/gd32vw55x_rtc.c ****     } while((--time_index > 0U) && ((uint32_t)RESET == flag_status));
 2702              		.loc 1 1025 14 discriminator 2
 2703 0046 832744FE 		lw	a5,-28(s0)
 2704 004a FD17     		addi	a5,a5,-1
 2705              		.loc 1 1025 5 discriminator 2
 2706 004c 2322F4FE 		sw	a5,-28(s0)
 2707 0050 81C7     		beq	a5,zero,.L88
 2708              		.loc 1 1025 33 discriminator 1
 2709 0052 832784FE 		lw	a5,-24(s0)
 2710 0056 E5D3     		beq	a5,zero,.L89
 2711              	.L88:
1026:../Firmware/GD32VW55x_standard_peripheral/Source/gd32vw55x_rtc.c **** 
1027:../Firmware/GD32VW55x_standard_peripheral/Source/gd32vw55x_rtc.c ****     if((uint32_t)RESET == flag_status) {
 2712              		.loc 1 1027 7
 2713 0058 832784FE 		lw	a5,-24(s0)
 2714 005c 81E7     		bne	a5,zero,.L90
1028:../Firmware/GD32VW55x_standard_peripheral/Source/gd32vw55x_rtc.c ****         error_status = ERROR;
 2715              		.loc 1 1028 22
 2716 005e 232604FE 		sw	zero,-20(s0)
 2717 0062 25A8     		j	.L91
 2718              	.L90:
1029:../Firmware/GD32VW55x_standard_peripheral/Source/gd32vw55x_rtc.c ****     } else {
1030:../Firmware/GD32VW55x_standard_peripheral/Source/gd32vw55x_rtc.c ****         RTC_CTL &= (uint32_t)~ RTC_CTL_WTCS;
 2719              		.loc 1 1030 17
 2720 0064 B7370040 		li	a5,1073754112
 2721 0068 93878780 		addi	a5,a5,-2040
 2722 006c 9843     		lw	a4,0(a5)
 2723 006e B7370040 		li	a5,1073754112
 2724 0072 93878780 		addi	a5,a5,-2040
 2725 0076 619B     		andi	a4,a4,-8
 2726 0078 98C3     		sw	a4,0(a5)
1031:../Firmware/GD32VW55x_standard_peripheral/Source/gd32vw55x_rtc.c ****         RTC_CTL |= (uint32_t)wakeup_clock;
 2727              		.loc 1 1031 17
 2728 007a B7370040 		li	a5,1073754112
 2729 007e 93878780 		addi	a5,a5,-2040
 2730 0082 9443     		lw	a3,0(a5)
 2731              		.loc 1 1031 20
 2732 0084 0347F4FD 		lbu	a4,-33(s0)
 2733              		.loc 1 1031 17
 2734 0088 B7370040 		li	a5,1073754112
 2735 008c 93878780 		addi	a5,a5,-2040
 2736 0090 558F     		or	a4,a3,a4
 2737 0092 98C3     		sw	a4,0(a5)
1032:../Firmware/GD32VW55x_standard_peripheral/Source/gd32vw55x_rtc.c ****         error_status = SUCCESS;
 2738              		.loc 1 1032 22
 2739 0094 8547     		li	a5,1
 2740 0096 2326F4FE 		sw	a5,-20(s0)
 2741              	.L91:
1033:../Firmware/GD32VW55x_standard_peripheral/Source/gd32vw55x_rtc.c ****     }
1034:../Firmware/GD32VW55x_standard_peripheral/Source/gd32vw55x_rtc.c **** 
1035:../Firmware/GD32VW55x_standard_peripheral/Source/gd32vw55x_rtc.c ****     /* enable the write protection */
1036:../Firmware/GD32VW55x_standard_peripheral/Source/gd32vw55x_rtc.c ****     RTC_WPK = RTC_LOCK_KEY;
 2742              		.loc 1 1036 5
 2743 009a B7370040 		li	a5,1073754112
 2744 009e 93874782 		addi	a5,a5,-2012
 2745              		.loc 1 1036 13
 2746 00a2 1307F00F 		li	a4,255
 2747 00a6 98C3     		sw	a4,0(a5)
1037:../Firmware/GD32VW55x_standard_peripheral/Source/gd32vw55x_rtc.c **** 
1038:../Firmware/GD32VW55x_standard_peripheral/Source/gd32vw55x_rtc.c ****     return error_status;
 2748              		.loc 1 1038 12
 2749 00a8 8327C4FE 		lw	a5,-20(s0)
1039:../Firmware/GD32VW55x_standard_peripheral/Source/gd32vw55x_rtc.c **** }
 2750              		.loc 1 1039 1
 2751 00ac 3E85     		mv	a0,a5
 2752 00ae 3254     		lw	s0,44(sp)
 2753              		.cfi_restore 8
 2754              		.cfi_def_cfa 2, 48
 2755 00b0 4561     		addi	sp,sp,48
 2756              		.cfi_def_cfa_offset 0
 2757 00b2 8280     		jr	ra
 2758              		.cfi_endproc
 2759              	.LFE379:
 2761              		.section	.text.rtc_wakeup_timer_set,"ax",@progbits
 2762              		.align	1
 2763              		.globl	rtc_wakeup_timer_set
 2765              	rtc_wakeup_timer_set:
 2766              	.LFB380:
1040:../Firmware/GD32VW55x_standard_peripheral/Source/gd32vw55x_rtc.c **** 
1041:../Firmware/GD32VW55x_standard_peripheral/Source/gd32vw55x_rtc.c **** /*!
1042:../Firmware/GD32VW55x_standard_peripheral/Source/gd32vw55x_rtc.c ****     \brief      set wakeup timer value
1043:../Firmware/GD32VW55x_standard_peripheral/Source/gd32vw55x_rtc.c ****     \param[in]  wakeup_timer: 0x0000-0xffff
1044:../Firmware/GD32VW55x_standard_peripheral/Source/gd32vw55x_rtc.c ****     \param[out] none
1045:../Firmware/GD32VW55x_standard_peripheral/Source/gd32vw55x_rtc.c ****     \retval     ErrStatus: ERROR or SUCCESS
1046:../Firmware/GD32VW55x_standard_peripheral/Source/gd32vw55x_rtc.c **** */
1047:../Firmware/GD32VW55x_standard_peripheral/Source/gd32vw55x_rtc.c **** ErrStatus rtc_wakeup_timer_set(uint16_t wakeup_timer)
1048:../Firmware/GD32VW55x_standard_peripheral/Source/gd32vw55x_rtc.c **** {
 2767              		.loc 1 1048 1
 2768              		.cfi_startproc
 2769 0000 7971     		addi	sp,sp,-48
 2770              		.cfi_def_cfa_offset 48
 2771 0002 22D6     		sw	s0,44(sp)
 2772              		.cfi_offset 8, -4
 2773 0004 0018     		addi	s0,sp,48
 2774              		.cfi_def_cfa 8, 0
 2775 0006 AA87     		mv	a5,a0
 2776 0008 231FF4FC 		sh	a5,-34(s0)
1049:../Firmware/GD32VW55x_standard_peripheral/Source/gd32vw55x_rtc.c ****     ErrStatus error_status = ERROR;
 2777              		.loc 1 1049 15
 2778 000c 232604FE 		sw	zero,-20(s0)
1050:../Firmware/GD32VW55x_standard_peripheral/Source/gd32vw55x_rtc.c ****     volatile uint32_t time_index = RTC_WTWF_TIMEOUT;
 2779              		.loc 1 1050 23
 2780 0010 9167     		li	a5,16384
 2781 0012 2322F4FE 		sw	a5,-28(s0)
1051:../Firmware/GD32VW55x_standard_peripheral/Source/gd32vw55x_rtc.c ****     uint32_t flag_status = RESET;
 2782              		.loc 1 1051 14
 2783 0016 232404FE 		sw	zero,-24(s0)
1052:../Firmware/GD32VW55x_standard_peripheral/Source/gd32vw55x_rtc.c **** 
1053:../Firmware/GD32VW55x_standard_peripheral/Source/gd32vw55x_rtc.c ****     /* disable the write protection */
1054:../Firmware/GD32VW55x_standard_peripheral/Source/gd32vw55x_rtc.c ****     RTC_WPK = RTC_UNLOCK_KEY1;
 2784              		.loc 1 1054 5
 2785 001a B7370040 		li	a5,1073754112
 2786 001e 93874782 		addi	a5,a5,-2012
 2787              		.loc 1 1054 13
 2788 0022 1307A00C 		li	a4,202
 2789 0026 98C3     		sw	a4,0(a5)
1055:../Firmware/GD32VW55x_standard_peripheral/Source/gd32vw55x_rtc.c ****     RTC_WPK = RTC_UNLOCK_KEY2;
 2790              		.loc 1 1055 5
 2791 0028 B7370040 		li	a5,1073754112
 2792 002c 93874782 		addi	a5,a5,-2012
 2793              		.loc 1 1055 13
 2794 0030 13073005 		li	a4,83
 2795 0034 98C3     		sw	a4,0(a5)
 2796              	.L95:
1056:../Firmware/GD32VW55x_standard_peripheral/Source/gd32vw55x_rtc.c **** 
1057:../Firmware/GD32VW55x_standard_peripheral/Source/gd32vw55x_rtc.c ****     /* wait until the WTWF flag to be set */
1058:../Firmware/GD32VW55x_standard_peripheral/Source/gd32vw55x_rtc.c ****     do {
1059:../Firmware/GD32VW55x_standard_peripheral/Source/gd32vw55x_rtc.c ****         flag_status = RTC_STAT & RTC_STAT_WTWF;
 2797              		.loc 1 1059 23 discriminator 2
 2798 0036 B7370040 		li	a5,1073754112
 2799 003a 9387C780 		addi	a5,a5,-2036
 2800 003e 9C43     		lw	a5,0(a5)
 2801              		.loc 1 1059 21 discriminator 2
 2802 0040 918B     		andi	a5,a5,4
 2803 0042 2324F4FE 		sw	a5,-24(s0)
1060:../Firmware/GD32VW55x_standard_peripheral/Source/gd32vw55x_rtc.c ****     } while((--time_index > 0U) && ((uint32_t)RESET == flag_status));
 2804              		.loc 1 1060 14 discriminator 2
 2805 0046 832744FE 		lw	a5,-28(s0)
 2806 004a FD17     		addi	a5,a5,-1
 2807              		.loc 1 1060 5 discriminator 2
 2808 004c 2322F4FE 		sw	a5,-28(s0)
 2809 0050 81C7     		beq	a5,zero,.L94
 2810              		.loc 1 1060 33 discriminator 1
 2811 0052 832784FE 		lw	a5,-24(s0)
 2812 0056 E5D3     		beq	a5,zero,.L95
 2813              	.L94:
1061:../Firmware/GD32VW55x_standard_peripheral/Source/gd32vw55x_rtc.c **** 
1062:../Firmware/GD32VW55x_standard_peripheral/Source/gd32vw55x_rtc.c ****     if((uint32_t)RESET == flag_status) {
 2814              		.loc 1 1062 7
 2815 0058 832784FE 		lw	a5,-24(s0)
 2816 005c 81E7     		bne	a5,zero,.L96
1063:../Firmware/GD32VW55x_standard_peripheral/Source/gd32vw55x_rtc.c ****         error_status = ERROR;
 2817              		.loc 1 1063 22
 2818 005e 232604FE 		sw	zero,-20(s0)
 2819 0062 19A8     		j	.L97
 2820              	.L96:
1064:../Firmware/GD32VW55x_standard_peripheral/Source/gd32vw55x_rtc.c ****     } else {
1065:../Firmware/GD32VW55x_standard_peripheral/Source/gd32vw55x_rtc.c ****         RTC_WUT = (uint32_t)wakeup_timer;
 2821              		.loc 1 1065 9
 2822 0064 B7370040 		li	a5,1073754112
 2823 0068 93874781 		addi	a5,a5,-2028
 2824              		.loc 1 1065 19
 2825 006c 0357E4FD 		lhu	a4,-34(s0)
 2826              		.loc 1 1065 17
 2827 0070 98C3     		sw	a4,0(a5)
1066:../Firmware/GD32VW55x_standard_peripheral/Source/gd32vw55x_rtc.c ****         error_status = SUCCESS;
 2828              		.loc 1 1066 22
 2829 0072 8547     		li	a5,1
 2830 0074 2326F4FE 		sw	a5,-20(s0)
 2831              	.L97:
1067:../Firmware/GD32VW55x_standard_peripheral/Source/gd32vw55x_rtc.c ****     }
1068:../Firmware/GD32VW55x_standard_peripheral/Source/gd32vw55x_rtc.c **** 
1069:../Firmware/GD32VW55x_standard_peripheral/Source/gd32vw55x_rtc.c ****     /* enable the write protection */
1070:../Firmware/GD32VW55x_standard_peripheral/Source/gd32vw55x_rtc.c ****     RTC_WPK = RTC_LOCK_KEY;
 2832              		.loc 1 1070 5
 2833 0078 B7370040 		li	a5,1073754112
 2834 007c 93874782 		addi	a5,a5,-2012
 2835              		.loc 1 1070 13
 2836 0080 1307F00F 		li	a4,255
 2837 0084 98C3     		sw	a4,0(a5)
1071:../Firmware/GD32VW55x_standard_peripheral/Source/gd32vw55x_rtc.c **** 
1072:../Firmware/GD32VW55x_standard_peripheral/Source/gd32vw55x_rtc.c ****     return error_status;
 2838              		.loc 1 1072 12
 2839 0086 8327C4FE 		lw	a5,-20(s0)
1073:../Firmware/GD32VW55x_standard_peripheral/Source/gd32vw55x_rtc.c **** }
 2840              		.loc 1 1073 1
 2841 008a 3E85     		mv	a0,a5
 2842 008c 3254     		lw	s0,44(sp)
 2843              		.cfi_restore 8
 2844              		.cfi_def_cfa 2, 48
 2845 008e 4561     		addi	sp,sp,48
 2846              		.cfi_def_cfa_offset 0
 2847 0090 8280     		jr	ra
 2848              		.cfi_endproc
 2849              	.LFE380:
 2851              		.section	.text.rtc_wakeup_timer_get,"ax",@progbits
 2852              		.align	1
 2853              		.globl	rtc_wakeup_timer_get
 2855              	rtc_wakeup_timer_get:
 2856              	.LFB381:
1074:../Firmware/GD32VW55x_standard_peripheral/Source/gd32vw55x_rtc.c **** 
1075:../Firmware/GD32VW55x_standard_peripheral/Source/gd32vw55x_rtc.c **** /*!
1076:../Firmware/GD32VW55x_standard_peripheral/Source/gd32vw55x_rtc.c ****     \brief      get wakeup timer value
1077:../Firmware/GD32VW55x_standard_peripheral/Source/gd32vw55x_rtc.c ****     \param[in]  none
1078:../Firmware/GD32VW55x_standard_peripheral/Source/gd32vw55x_rtc.c ****     \param[out] none
1079:../Firmware/GD32VW55x_standard_peripheral/Source/gd32vw55x_rtc.c ****     \retval     wakeup timer value
1080:../Firmware/GD32VW55x_standard_peripheral/Source/gd32vw55x_rtc.c **** */
1081:../Firmware/GD32VW55x_standard_peripheral/Source/gd32vw55x_rtc.c **** uint16_t rtc_wakeup_timer_get(void)
1082:../Firmware/GD32VW55x_standard_peripheral/Source/gd32vw55x_rtc.c **** {
 2857              		.loc 1 1082 1
 2858              		.cfi_startproc
 2859 0000 4111     		addi	sp,sp,-16
 2860              		.cfi_def_cfa_offset 16
 2861 0002 22C6     		sw	s0,12(sp)
 2862              		.cfi_offset 8, -4
 2863 0004 0008     		addi	s0,sp,16
 2864              		.cfi_def_cfa 8, 0
1083:../Firmware/GD32VW55x_standard_peripheral/Source/gd32vw55x_rtc.c ****     return (uint16_t)RTC_WUT;
 2865              		.loc 1 1083 22
 2866 0006 B7370040 		li	a5,1073754112
 2867 000a 93874781 		addi	a5,a5,-2028
 2868 000e 9C43     		lw	a5,0(a5)
 2869              		.loc 1 1083 12
 2870 0010 C207     		slli	a5,a5,16
 2871 0012 C183     		srli	a5,a5,16
1084:../Firmware/GD32VW55x_standard_peripheral/Source/gd32vw55x_rtc.c **** }
 2872              		.loc 1 1084 1
 2873 0014 3E85     		mv	a0,a5
 2874 0016 3244     		lw	s0,12(sp)
 2875              		.cfi_restore 8
 2876              		.cfi_def_cfa 2, 16
 2877 0018 4101     		addi	sp,sp,16
 2878              		.cfi_def_cfa_offset 0
 2879 001a 8280     		jr	ra
 2880              		.cfi_endproc
 2881              	.LFE381:
 2883              		.section	.text.rtc_smooth_calibration_config,"ax",@progbits
 2884              		.align	1
 2885              		.globl	rtc_smooth_calibration_config
 2887              	rtc_smooth_calibration_config:
 2888              	.LFB382:
1085:../Firmware/GD32VW55x_standard_peripheral/Source/gd32vw55x_rtc.c **** 
1086:../Firmware/GD32VW55x_standard_peripheral/Source/gd32vw55x_rtc.c **** /*!
1087:../Firmware/GD32VW55x_standard_peripheral/Source/gd32vw55x_rtc.c ****     \brief      configure RTC smooth calibration
1088:../Firmware/GD32VW55x_standard_peripheral/Source/gd32vw55x_rtc.c ****     \param[in]  window: select calibration window
1089:../Firmware/GD32VW55x_standard_peripheral/Source/gd32vw55x_rtc.c ****       \arg        RTC_CALIBRATION_WINDOW_32S: 2exp20 RTCCLK cycles, 32s if RTCCLK = 32768 Hz
1090:../Firmware/GD32VW55x_standard_peripheral/Source/gd32vw55x_rtc.c ****       \arg        RTC_CALIBRATION_WINDOW_16S: 2exp19 RTCCLK cycles, 16s if RTCCLK = 32768 Hz
1091:../Firmware/GD32VW55x_standard_peripheral/Source/gd32vw55x_rtc.c ****       \arg        RTC_CALIBRATION_WINDOW_8S: 2exp18 RTCCLK cycles, 8s if RTCCLK = 32768 Hz
1092:../Firmware/GD32VW55x_standard_peripheral/Source/gd32vw55x_rtc.c ****     \param[in]  plus: add RTC clock or not
1093:../Firmware/GD32VW55x_standard_peripheral/Source/gd32vw55x_rtc.c ****       \arg        RTC_CALIBRATION_PLUS_SET: add one RTC clock every 2048 rtc clock
1094:../Firmware/GD32VW55x_standard_peripheral/Source/gd32vw55x_rtc.c ****       \arg        RTC_CALIBRATION_PLUS_RESET: no effect
1095:../Firmware/GD32VW55x_standard_peripheral/Source/gd32vw55x_rtc.c ****     \param[in]  minus: the RTC clock to minus during the calibration window(0x0 - 0x1FF)
1096:../Firmware/GD32VW55x_standard_peripheral/Source/gd32vw55x_rtc.c ****     \param[out] none
1097:../Firmware/GD32VW55x_standard_peripheral/Source/gd32vw55x_rtc.c ****     \retval     ErrStatus: ERROR or SUCCESS
1098:../Firmware/GD32VW55x_standard_peripheral/Source/gd32vw55x_rtc.c **** */
1099:../Firmware/GD32VW55x_standard_peripheral/Source/gd32vw55x_rtc.c **** ErrStatus rtc_smooth_calibration_config(uint32_t window, uint32_t plus, uint32_t minus)
1100:../Firmware/GD32VW55x_standard_peripheral/Source/gd32vw55x_rtc.c **** {
 2889              		.loc 1 1100 1
 2890              		.cfi_startproc
 2891 0000 7971     		addi	sp,sp,-48
 2892              		.cfi_def_cfa_offset 48
 2893 0002 22D6     		sw	s0,44(sp)
 2894              		.cfi_offset 8, -4
 2895 0004 0018     		addi	s0,sp,48
 2896              		.cfi_def_cfa 8, 0
 2897 0006 232EA4FC 		sw	a0,-36(s0)
 2898 000a 232CB4FC 		sw	a1,-40(s0)
 2899 000e 232AC4FC 		sw	a2,-44(s0)
1101:../Firmware/GD32VW55x_standard_peripheral/Source/gd32vw55x_rtc.c ****     volatile uint32_t time_index = RTC_HRFC_TIMEOUT;
 2900              		.loc 1 1101 23
 2901 0012 B7070020 		li	a5,536870912
 2902 0016 2322F4FE 		sw	a5,-28(s0)
1102:../Firmware/GD32VW55x_standard_peripheral/Source/gd32vw55x_rtc.c ****     ErrStatus error_status = ERROR;
 2903              		.loc 1 1102 15
 2904 001a 232604FE 		sw	zero,-20(s0)
1103:../Firmware/GD32VW55x_standard_peripheral/Source/gd32vw55x_rtc.c ****     uint32_t flag_status = RESET;
 2905              		.loc 1 1103 14
 2906 001e 232404FE 		sw	zero,-24(s0)
1104:../Firmware/GD32VW55x_standard_peripheral/Source/gd32vw55x_rtc.c **** 
1105:../Firmware/GD32VW55x_standard_peripheral/Source/gd32vw55x_rtc.c ****     /* disable the write protection */
1106:../Firmware/GD32VW55x_standard_peripheral/Source/gd32vw55x_rtc.c ****     RTC_WPK = RTC_UNLOCK_KEY1;
 2907              		.loc 1 1106 5
 2908 0022 B7370040 		li	a5,1073754112
 2909 0026 93874782 		addi	a5,a5,-2012
 2910              		.loc 1 1106 13
 2911 002a 1307A00C 		li	a4,202
 2912 002e 98C3     		sw	a4,0(a5)
1107:../Firmware/GD32VW55x_standard_peripheral/Source/gd32vw55x_rtc.c ****     RTC_WPK = RTC_UNLOCK_KEY2;
 2913              		.loc 1 1107 5
 2914 0030 B7370040 		li	a5,1073754112
 2915 0034 93874782 		addi	a5,a5,-2012
 2916              		.loc 1 1107 13
 2917 0038 13073005 		li	a4,83
 2918 003c 98C3     		sw	a4,0(a5)
 2919              	.L103:
1108:../Firmware/GD32VW55x_standard_peripheral/Source/gd32vw55x_rtc.c **** 
1109:../Firmware/GD32VW55x_standard_peripheral/Source/gd32vw55x_rtc.c ****     /* check if a smooth calibration operation is ongoing */
1110:../Firmware/GD32VW55x_standard_peripheral/Source/gd32vw55x_rtc.c ****     do {
1111:../Firmware/GD32VW55x_standard_peripheral/Source/gd32vw55x_rtc.c ****         flag_status = RTC_STAT & RTC_STAT_SCPF;
 2920              		.loc 1 1111 23 discriminator 2
 2921 003e B7370040 		li	a5,1073754112
 2922 0042 9387C780 		addi	a5,a5,-2036
 2923 0046 9843     		lw	a4,0(a5)
 2924              		.loc 1 1111 21 discriminator 2
 2925 0048 C167     		li	a5,65536
 2926 004a F98F     		and	a5,a4,a5
 2927 004c 2324F4FE 		sw	a5,-24(s0)
1112:../Firmware/GD32VW55x_standard_peripheral/Source/gd32vw55x_rtc.c ****     } while((--time_index > 0U) && ((uint32_t)RESET != flag_status));
 2928              		.loc 1 1112 14 discriminator 2
 2929 0050 832744FE 		lw	a5,-28(s0)
 2930 0054 FD17     		addi	a5,a5,-1
 2931              		.loc 1 1112 5 discriminator 2
 2932 0056 2322F4FE 		sw	a5,-28(s0)
 2933 005a 81C7     		beq	a5,zero,.L102
 2934              		.loc 1 1112 33 discriminator 1
 2935 005c 832784FE 		lw	a5,-24(s0)
 2936 0060 F9FF     		bne	a5,zero,.L103
 2937              	.L102:
1113:../Firmware/GD32VW55x_standard_peripheral/Source/gd32vw55x_rtc.c **** 
1114:../Firmware/GD32VW55x_standard_peripheral/Source/gd32vw55x_rtc.c ****     if((uint32_t)RESET == flag_status) {
 2938              		.loc 1 1114 7
 2939 0062 832784FE 		lw	a5,-24(s0)
 2940 0066 85E7     		bne	a5,zero,.L104
1115:../Firmware/GD32VW55x_standard_peripheral/Source/gd32vw55x_rtc.c ****         RTC_HRFC = (uint32_t)(window | plus | HRFC_CMSK(minus));
 2941              		.loc 1 1115 38
 2942 0068 0327C4FD 		lw	a4,-36(s0)
 2943 006c 832784FD 		lw	a5,-40(s0)
 2944 0070 B366F700 		or	a3,a4,a5
 2945              		.loc 1 1115 47
 2946 0074 832744FD 		lw	a5,-44(s0)
 2947 0078 13F7F71F 		andi	a4,a5,511
 2948              		.loc 1 1115 9
 2949 007c B7370040 		li	a5,1073754112
 2950 0080 9387C783 		addi	a5,a5,-1988
 2951              		.loc 1 1115 20
 2952 0084 558F     		or	a4,a3,a4
 2953              		.loc 1 1115 18
 2954 0086 98C3     		sw	a4,0(a5)
1116:../Firmware/GD32VW55x_standard_peripheral/Source/gd32vw55x_rtc.c ****         error_status = SUCCESS;
 2955              		.loc 1 1116 22
 2956 0088 8547     		li	a5,1
 2957 008a 2326F4FE 		sw	a5,-20(s0)
 2958              	.L104:
1117:../Firmware/GD32VW55x_standard_peripheral/Source/gd32vw55x_rtc.c ****     }
1118:../Firmware/GD32VW55x_standard_peripheral/Source/gd32vw55x_rtc.c **** 
1119:../Firmware/GD32VW55x_standard_peripheral/Source/gd32vw55x_rtc.c ****     /* enable the write protection */
1120:../Firmware/GD32VW55x_standard_peripheral/Source/gd32vw55x_rtc.c ****     RTC_WPK = RTC_LOCK_KEY;
 2959              		.loc 1 1120 5
 2960 008e B7370040 		li	a5,1073754112
 2961 0092 93874782 		addi	a5,a5,-2012
 2962              		.loc 1 1120 13
 2963 0096 1307F00F 		li	a4,255
 2964 009a 98C3     		sw	a4,0(a5)
1121:../Firmware/GD32VW55x_standard_peripheral/Source/gd32vw55x_rtc.c **** 
1122:../Firmware/GD32VW55x_standard_peripheral/Source/gd32vw55x_rtc.c ****     return error_status;
 2965              		.loc 1 1122 12
 2966 009c 8327C4FE 		lw	a5,-20(s0)
1123:../Firmware/GD32VW55x_standard_peripheral/Source/gd32vw55x_rtc.c **** }
 2967              		.loc 1 1123 1
 2968 00a0 3E85     		mv	a0,a5
 2969 00a2 3254     		lw	s0,44(sp)
 2970              		.cfi_restore 8
 2971              		.cfi_def_cfa 2, 48
 2972 00a4 4561     		addi	sp,sp,48
 2973              		.cfi_def_cfa_offset 0
 2974 00a6 8280     		jr	ra
 2975              		.cfi_endproc
 2976              	.LFE382:
 2978              		.section	.text.rtc_coarse_calibration_enable,"ax",@progbits
 2979              		.align	1
 2980              		.globl	rtc_coarse_calibration_enable
 2982              	rtc_coarse_calibration_enable:
 2983              	.LFB383:
1124:../Firmware/GD32VW55x_standard_peripheral/Source/gd32vw55x_rtc.c **** 
1125:../Firmware/GD32VW55x_standard_peripheral/Source/gd32vw55x_rtc.c **** /*!
1126:../Firmware/GD32VW55x_standard_peripheral/Source/gd32vw55x_rtc.c ****     \brief      enable RTC coarse calibration
1127:../Firmware/GD32VW55x_standard_peripheral/Source/gd32vw55x_rtc.c ****     \param[in]  none
1128:../Firmware/GD32VW55x_standard_peripheral/Source/gd32vw55x_rtc.c ****     \param[out] none
1129:../Firmware/GD32VW55x_standard_peripheral/Source/gd32vw55x_rtc.c ****     \retval     ErrStatus: ERROR or SUCCESS
1130:../Firmware/GD32VW55x_standard_peripheral/Source/gd32vw55x_rtc.c **** */
1131:../Firmware/GD32VW55x_standard_peripheral/Source/gd32vw55x_rtc.c **** ErrStatus rtc_coarse_calibration_enable(void)
1132:../Firmware/GD32VW55x_standard_peripheral/Source/gd32vw55x_rtc.c **** {
 2984              		.loc 1 1132 1
 2985              		.cfi_startproc
 2986 0000 0111     		addi	sp,sp,-32
 2987              		.cfi_def_cfa_offset 32
 2988 0002 06CE     		sw	ra,28(sp)
 2989 0004 22CC     		sw	s0,24(sp)
 2990              		.cfi_offset 1, -4
 2991              		.cfi_offset 8, -8
 2992 0006 0010     		addi	s0,sp,32
 2993              		.cfi_def_cfa 8, 0
1133:../Firmware/GD32VW55x_standard_peripheral/Source/gd32vw55x_rtc.c ****     ErrStatus error_status = ERROR;
 2994              		.loc 1 1133 15
 2995 0008 232604FE 		sw	zero,-20(s0)
1134:../Firmware/GD32VW55x_standard_peripheral/Source/gd32vw55x_rtc.c ****     /* disable the write protection */
1135:../Firmware/GD32VW55x_standard_peripheral/Source/gd32vw55x_rtc.c ****     RTC_WPK = RTC_UNLOCK_KEY1;
 2996              		.loc 1 1135 5
 2997 000c B7370040 		li	a5,1073754112
 2998 0010 93874782 		addi	a5,a5,-2012
 2999              		.loc 1 1135 13
 3000 0014 1307A00C 		li	a4,202
 3001 0018 98C3     		sw	a4,0(a5)
1136:../Firmware/GD32VW55x_standard_peripheral/Source/gd32vw55x_rtc.c ****     RTC_WPK = RTC_UNLOCK_KEY2;
 3002              		.loc 1 1136 5
 3003 001a B7370040 		li	a5,1073754112
 3004 001e 93874782 		addi	a5,a5,-2012
 3005              		.loc 1 1136 13
 3006 0022 13073005 		li	a4,83
 3007 0026 98C3     		sw	a4,0(a5)
1137:../Firmware/GD32VW55x_standard_peripheral/Source/gd32vw55x_rtc.c ****     /* enter init mode */
1138:../Firmware/GD32VW55x_standard_peripheral/Source/gd32vw55x_rtc.c ****     error_status = rtc_init_mode_enter();
 3008              		.loc 1 1138 20
 3009 0028 97000000 		call	rtc_init_mode_enter
 3009      E7800000 
 3010 0030 2326A4FE 		sw	a0,-20(s0)
1139:../Firmware/GD32VW55x_standard_peripheral/Source/gd32vw55x_rtc.c **** 
1140:../Firmware/GD32VW55x_standard_peripheral/Source/gd32vw55x_rtc.c ****     if(ERROR != error_status) {
 3011              		.loc 1 1140 7
 3012 0034 8327C4FE 		lw	a5,-20(s0)
 3013 0038 8DC3     		beq	a5,zero,.L107
1141:../Firmware/GD32VW55x_standard_peripheral/Source/gd32vw55x_rtc.c ****         RTC_CTL |= (uint32_t)RTC_CTL_CCEN;
 3014              		.loc 1 1141 17
 3015 003a B7370040 		li	a5,1073754112
 3016 003e 93878780 		addi	a5,a5,-2040
 3017 0042 9843     		lw	a4,0(a5)
 3018 0044 B7370040 		li	a5,1073754112
 3019 0048 93878780 		addi	a5,a5,-2040
 3020 004c 13670708 		ori	a4,a4,128
 3021 0050 98C3     		sw	a4,0(a5)
1142:../Firmware/GD32VW55x_standard_peripheral/Source/gd32vw55x_rtc.c ****         /* exit init mode */
1143:../Firmware/GD32VW55x_standard_peripheral/Source/gd32vw55x_rtc.c ****         rtc_init_mode_exit();
 3022              		.loc 1 1143 9
 3023 0052 97000000 		call	rtc_init_mode_exit
 3023      E7800000 
 3024              	.L107:
1144:../Firmware/GD32VW55x_standard_peripheral/Source/gd32vw55x_rtc.c ****     }
1145:../Firmware/GD32VW55x_standard_peripheral/Source/gd32vw55x_rtc.c ****     /* enable the write protection */
1146:../Firmware/GD32VW55x_standard_peripheral/Source/gd32vw55x_rtc.c ****     RTC_WPK = RTC_LOCK_KEY;
 3025              		.loc 1 1146 5
 3026 005a B7370040 		li	a5,1073754112
 3027 005e 93874782 		addi	a5,a5,-2012
 3028              		.loc 1 1146 13
 3029 0062 1307F00F 		li	a4,255
 3030 0066 98C3     		sw	a4,0(a5)
1147:../Firmware/GD32VW55x_standard_peripheral/Source/gd32vw55x_rtc.c ****     return error_status;
 3031              		.loc 1 1147 12
 3032 0068 8327C4FE 		lw	a5,-20(s0)
1148:../Firmware/GD32VW55x_standard_peripheral/Source/gd32vw55x_rtc.c **** }
 3033              		.loc 1 1148 1
 3034 006c 3E85     		mv	a0,a5
 3035 006e F240     		lw	ra,28(sp)
 3036              		.cfi_restore 1
 3037 0070 6244     		lw	s0,24(sp)
 3038              		.cfi_restore 8
 3039              		.cfi_def_cfa 2, 32
 3040 0072 0561     		addi	sp,sp,32
 3041              		.cfi_def_cfa_offset 0
 3042 0074 8280     		jr	ra
 3043              		.cfi_endproc
 3044              	.LFE383:
 3046              		.section	.text.rtc_coarse_calibration_disable,"ax",@progbits
 3047              		.align	1
 3048              		.globl	rtc_coarse_calibration_disable
 3050              	rtc_coarse_calibration_disable:
 3051              	.LFB384:
1149:../Firmware/GD32VW55x_standard_peripheral/Source/gd32vw55x_rtc.c **** 
1150:../Firmware/GD32VW55x_standard_peripheral/Source/gd32vw55x_rtc.c **** /*!
1151:../Firmware/GD32VW55x_standard_peripheral/Source/gd32vw55x_rtc.c ****     \brief      disable RTC coarse calibration
1152:../Firmware/GD32VW55x_standard_peripheral/Source/gd32vw55x_rtc.c ****     \param[in]  none
1153:../Firmware/GD32VW55x_standard_peripheral/Source/gd32vw55x_rtc.c ****     \param[out] none
1154:../Firmware/GD32VW55x_standard_peripheral/Source/gd32vw55x_rtc.c ****     \retval     ErrStatus: ERROR or SUCCESS
1155:../Firmware/GD32VW55x_standard_peripheral/Source/gd32vw55x_rtc.c **** */
1156:../Firmware/GD32VW55x_standard_peripheral/Source/gd32vw55x_rtc.c **** ErrStatus rtc_coarse_calibration_disable(void)
1157:../Firmware/GD32VW55x_standard_peripheral/Source/gd32vw55x_rtc.c **** {
 3052              		.loc 1 1157 1
 3053              		.cfi_startproc
 3054 0000 0111     		addi	sp,sp,-32
 3055              		.cfi_def_cfa_offset 32
 3056 0002 06CE     		sw	ra,28(sp)
 3057 0004 22CC     		sw	s0,24(sp)
 3058              		.cfi_offset 1, -4
 3059              		.cfi_offset 8, -8
 3060 0006 0010     		addi	s0,sp,32
 3061              		.cfi_def_cfa 8, 0
1158:../Firmware/GD32VW55x_standard_peripheral/Source/gd32vw55x_rtc.c ****     ErrStatus error_status = ERROR;
 3062              		.loc 1 1158 15
 3063 0008 232604FE 		sw	zero,-20(s0)
1159:../Firmware/GD32VW55x_standard_peripheral/Source/gd32vw55x_rtc.c ****     /* disable the write protection */
1160:../Firmware/GD32VW55x_standard_peripheral/Source/gd32vw55x_rtc.c ****     RTC_WPK = RTC_UNLOCK_KEY1;
 3064              		.loc 1 1160 5
 3065 000c B7370040 		li	a5,1073754112
 3066 0010 93874782 		addi	a5,a5,-2012
 3067              		.loc 1 1160 13
 3068 0014 1307A00C 		li	a4,202
 3069 0018 98C3     		sw	a4,0(a5)
1161:../Firmware/GD32VW55x_standard_peripheral/Source/gd32vw55x_rtc.c ****     RTC_WPK = RTC_UNLOCK_KEY2;
 3070              		.loc 1 1161 5
 3071 001a B7370040 		li	a5,1073754112
 3072 001e 93874782 		addi	a5,a5,-2012
 3073              		.loc 1 1161 13
 3074 0022 13073005 		li	a4,83
 3075 0026 98C3     		sw	a4,0(a5)
1162:../Firmware/GD32VW55x_standard_peripheral/Source/gd32vw55x_rtc.c ****     /* enter init mode */
1163:../Firmware/GD32VW55x_standard_peripheral/Source/gd32vw55x_rtc.c ****     error_status = rtc_init_mode_enter();
 3076              		.loc 1 1163 20
 3077 0028 97000000 		call	rtc_init_mode_enter
 3077      E7800000 
 3078 0030 2326A4FE 		sw	a0,-20(s0)
1164:../Firmware/GD32VW55x_standard_peripheral/Source/gd32vw55x_rtc.c **** 
1165:../Firmware/GD32VW55x_standard_peripheral/Source/gd32vw55x_rtc.c ****     if(ERROR != error_status) {
 3079              		.loc 1 1165 7
 3080 0034 8327C4FE 		lw	a5,-20(s0)
 3081 0038 8DC3     		beq	a5,zero,.L110
1166:../Firmware/GD32VW55x_standard_peripheral/Source/gd32vw55x_rtc.c ****         RTC_CTL &= (uint32_t)~RTC_CTL_CCEN;
 3082              		.loc 1 1166 17
 3083 003a B7370040 		li	a5,1073754112
 3084 003e 93878780 		addi	a5,a5,-2040
 3085 0042 9843     		lw	a4,0(a5)
 3086 0044 B7370040 		li	a5,1073754112
 3087 0048 93878780 		addi	a5,a5,-2040
 3088 004c 1377F7F7 		andi	a4,a4,-129
 3089 0050 98C3     		sw	a4,0(a5)
1167:../Firmware/GD32VW55x_standard_peripheral/Source/gd32vw55x_rtc.c ****         /* exit init mode */
1168:../Firmware/GD32VW55x_standard_peripheral/Source/gd32vw55x_rtc.c ****         rtc_init_mode_exit();
 3090              		.loc 1 1168 9
 3091 0052 97000000 		call	rtc_init_mode_exit
 3091      E7800000 
 3092              	.L110:
1169:../Firmware/GD32VW55x_standard_peripheral/Source/gd32vw55x_rtc.c ****     }
1170:../Firmware/GD32VW55x_standard_peripheral/Source/gd32vw55x_rtc.c **** 
1171:../Firmware/GD32VW55x_standard_peripheral/Source/gd32vw55x_rtc.c ****     /* enable the write protection */
1172:../Firmware/GD32VW55x_standard_peripheral/Source/gd32vw55x_rtc.c ****     RTC_WPK = RTC_LOCK_KEY;
 3093              		.loc 1 1172 5
 3094 005a B7370040 		li	a5,1073754112
 3095 005e 93874782 		addi	a5,a5,-2012
 3096              		.loc 1 1172 13
 3097 0062 1307F00F 		li	a4,255
 3098 0066 98C3     		sw	a4,0(a5)
1173:../Firmware/GD32VW55x_standard_peripheral/Source/gd32vw55x_rtc.c ****     return error_status;
 3099              		.loc 1 1173 12
 3100 0068 8327C4FE 		lw	a5,-20(s0)
1174:../Firmware/GD32VW55x_standard_peripheral/Source/gd32vw55x_rtc.c **** }
 3101              		.loc 1 1174 1
 3102 006c 3E85     		mv	a0,a5
 3103 006e F240     		lw	ra,28(sp)
 3104              		.cfi_restore 1
 3105 0070 6244     		lw	s0,24(sp)
 3106              		.cfi_restore 8
 3107              		.cfi_def_cfa 2, 32
 3108 0072 0561     		addi	sp,sp,32
 3109              		.cfi_def_cfa_offset 0
 3110 0074 8280     		jr	ra
 3111              		.cfi_endproc
 3112              	.LFE384:
 3114              		.section	.text.rtc_coarse_calibration_config,"ax",@progbits
 3115              		.align	1
 3116              		.globl	rtc_coarse_calibration_config
 3118              	rtc_coarse_calibration_config:
 3119              	.LFB385:
1175:../Firmware/GD32VW55x_standard_peripheral/Source/gd32vw55x_rtc.c **** 
1176:../Firmware/GD32VW55x_standard_peripheral/Source/gd32vw55x_rtc.c **** /*!
1177:../Firmware/GD32VW55x_standard_peripheral/Source/gd32vw55x_rtc.c ****     \brief      config coarse calibration direction and step
1178:../Firmware/GD32VW55x_standard_peripheral/Source/gd32vw55x_rtc.c ****     \param[in]  direction: CALIB_INCREASE or CALIB_DECREASE
1179:../Firmware/GD32VW55x_standard_peripheral/Source/gd32vw55x_rtc.c ****     \param[in]  step: 0x00-0x1F
1180:../Firmware/GD32VW55x_standard_peripheral/Source/gd32vw55x_rtc.c ****                 COSD=0:
1181:../Firmware/GD32VW55x_standard_peripheral/Source/gd32vw55x_rtc.c ****                   0x00:+0 PPM
1182:../Firmware/GD32VW55x_standard_peripheral/Source/gd32vw55x_rtc.c ****                   0x01:+4 PPM
1183:../Firmware/GD32VW55x_standard_peripheral/Source/gd32vw55x_rtc.c ****                   0x02:+8 PPM
1184:../Firmware/GD32VW55x_standard_peripheral/Source/gd32vw55x_rtc.c ****                   ....
1185:../Firmware/GD32VW55x_standard_peripheral/Source/gd32vw55x_rtc.c ****                   0x1F:+126 PPM
1186:../Firmware/GD32VW55x_standard_peripheral/Source/gd32vw55x_rtc.c ****                 COSD=1:
1187:../Firmware/GD32VW55x_standard_peripheral/Source/gd32vw55x_rtc.c ****                   0x00:-0 PPM
1188:../Firmware/GD32VW55x_standard_peripheral/Source/gd32vw55x_rtc.c ****                   0x01:-2 PPM
1189:../Firmware/GD32VW55x_standard_peripheral/Source/gd32vw55x_rtc.c ****                   0x02:-4 PPM
1190:../Firmware/GD32VW55x_standard_peripheral/Source/gd32vw55x_rtc.c ****                   ....
1191:../Firmware/GD32VW55x_standard_peripheral/Source/gd32vw55x_rtc.c ****                   0x1F:-63 PPM
1192:../Firmware/GD32VW55x_standard_peripheral/Source/gd32vw55x_rtc.c ****     \param[out] none
1193:../Firmware/GD32VW55x_standard_peripheral/Source/gd32vw55x_rtc.c ****     \retval     ErrStatus: ERROR or SUCCESS
1194:../Firmware/GD32VW55x_standard_peripheral/Source/gd32vw55x_rtc.c **** */
1195:../Firmware/GD32VW55x_standard_peripheral/Source/gd32vw55x_rtc.c **** ErrStatus rtc_coarse_calibration_config(uint8_t direction, uint8_t step)
1196:../Firmware/GD32VW55x_standard_peripheral/Source/gd32vw55x_rtc.c **** {
 3120              		.loc 1 1196 1
 3121              		.cfi_startproc
 3122 0000 7971     		addi	sp,sp,-48
 3123              		.cfi_def_cfa_offset 48
 3124 0002 06D6     		sw	ra,44(sp)
 3125 0004 22D4     		sw	s0,40(sp)
 3126              		.cfi_offset 1, -4
 3127              		.cfi_offset 8, -8
 3128 0006 0018     		addi	s0,sp,48
 3129              		.cfi_def_cfa 8, 0
 3130 0008 AA87     		mv	a5,a0
 3131 000a 2E87     		mv	a4,a1
 3132 000c A30FF4FC 		sb	a5,-33(s0)
 3133 0010 BA87     		mv	a5,a4
 3134 0012 230FF4FC 		sb	a5,-34(s0)
1197:../Firmware/GD32VW55x_standard_peripheral/Source/gd32vw55x_rtc.c ****     ErrStatus error_status = ERROR;
 3135              		.loc 1 1197 15
 3136 0016 232604FE 		sw	zero,-20(s0)
1198:../Firmware/GD32VW55x_standard_peripheral/Source/gd32vw55x_rtc.c ****     /* disable the write protection */
1199:../Firmware/GD32VW55x_standard_peripheral/Source/gd32vw55x_rtc.c ****     RTC_WPK = RTC_UNLOCK_KEY1;
 3137              		.loc 1 1199 5
 3138 001a B7370040 		li	a5,1073754112
