   1              		.file	"gd32vw55x_i2c.c"
   2              		.option nopic
   3              		.attribute arch, "rv32i2p0_m2p0_a2p0_c2p0"
   4              		.attribute unaligned_access, 0
   5              		.attribute stack_align, 16
   6              		.text
   7              	.Ltext0:
   8              		.cfi_sections	.debug_frame
   9              		.section	.text.i2c_deinit,"ax",@progbits
  10              		.align	1
  11              		.globl	i2c_deinit
  13              	i2c_deinit:
  14              	.LFB347:
  15              		.file 1 "../Firmware/GD32VW55x_standard_peripheral/Source/gd32vw55x_i2c.c"
   1:../Firmware/GD32VW55x_standard_peripheral/Source/gd32vw55x_i2c.c **** /*!
   2:../Firmware/GD32VW55x_standard_peripheral/Source/gd32vw55x_i2c.c ****     \file    gd32vw55x_i2c.c
   3:../Firmware/GD32VW55x_standard_peripheral/Source/gd32vw55x_i2c.c ****     \brief   I2C driver
   4:../Firmware/GD32VW55x_standard_peripheral/Source/gd32vw55x_i2c.c **** 
   5:../Firmware/GD32VW55x_standard_peripheral/Source/gd32vw55x_i2c.c ****     \version 2025-01-16, V1.4.0, firmware for GD32VW55x
   6:../Firmware/GD32VW55x_standard_peripheral/Source/gd32vw55x_i2c.c **** */
   7:../Firmware/GD32VW55x_standard_peripheral/Source/gd32vw55x_i2c.c **** 
   8:../Firmware/GD32VW55x_standard_peripheral/Source/gd32vw55x_i2c.c **** /*
   9:../Firmware/GD32VW55x_standard_peripheral/Source/gd32vw55x_i2c.c ****     Copyright (c) 2025, GigaDevice Semiconductor Inc.
  10:../Firmware/GD32VW55x_standard_peripheral/Source/gd32vw55x_i2c.c **** 
  11:../Firmware/GD32VW55x_standard_peripheral/Source/gd32vw55x_i2c.c ****     Redistribution and use in source and binary forms, with or without modification,
  12:../Firmware/GD32VW55x_standard_peripheral/Source/gd32vw55x_i2c.c **** are permitted provided that the following conditions are met:
  13:../Firmware/GD32VW55x_standard_peripheral/Source/gd32vw55x_i2c.c **** 
  14:../Firmware/GD32VW55x_standard_peripheral/Source/gd32vw55x_i2c.c ****     1. Redistributions of source code must retain the above copyright notice, this
  15:../Firmware/GD32VW55x_standard_peripheral/Source/gd32vw55x_i2c.c ****        list of conditions and the following disclaimer.
  16:../Firmware/GD32VW55x_standard_peripheral/Source/gd32vw55x_i2c.c ****     2. Redistributions in binary form must reproduce the above copyright notice,
  17:../Firmware/GD32VW55x_standard_peripheral/Source/gd32vw55x_i2c.c ****        this list of conditions and the following disclaimer in the documentation
  18:../Firmware/GD32VW55x_standard_peripheral/Source/gd32vw55x_i2c.c ****        and/or other materials provided with the distribution.
  19:../Firmware/GD32VW55x_standard_peripheral/Source/gd32vw55x_i2c.c ****     3. Neither the name of the copyright holder nor the names of its contributors
  20:../Firmware/GD32VW55x_standard_peripheral/Source/gd32vw55x_i2c.c ****        may be used to endorse or promote products derived from this software without
  21:../Firmware/GD32VW55x_standard_peripheral/Source/gd32vw55x_i2c.c ****        specific prior written permission.
  22:../Firmware/GD32VW55x_standard_peripheral/Source/gd32vw55x_i2c.c **** 
  23:../Firmware/GD32VW55x_standard_peripheral/Source/gd32vw55x_i2c.c ****     THIS SOFTWARE IS PROVIDED BY THE COPYRIGHT HOLDERS AND CONTRIBUTORS "AS IS"
  24:../Firmware/GD32VW55x_standard_peripheral/Source/gd32vw55x_i2c.c **** AND ANY EXPRESS OR IMPLIED WARRANTIES, INCLUDING, BUT NOT LIMITED TO, THE IMPLIED
  25:../Firmware/GD32VW55x_standard_peripheral/Source/gd32vw55x_i2c.c **** WARRANTIES OF MERCHANTABILITY AND FITNESS FOR A PARTICULAR PURPOSE ARE DISCLAIMED.
  26:../Firmware/GD32VW55x_standard_peripheral/Source/gd32vw55x_i2c.c **** IN NO EVENT SHALL THE COPYRIGHT HOLDER OR CONTRIBUTORS BE LIABLE FOR ANY DIRECT,
  27:../Firmware/GD32VW55x_standard_peripheral/Source/gd32vw55x_i2c.c **** INDIRECT, INCIDENTAL, SPECIAL, EXEMPLARY, OR CONSEQUENTIAL DAMAGES (INCLUDING, BUT
  28:../Firmware/GD32VW55x_standard_peripheral/Source/gd32vw55x_i2c.c **** NOT LIMITED TO, PROCUREMENT OF SUBSTITUTE GOODS OR SERVICES; LOSS OF USE, DATA, OR
  29:../Firmware/GD32VW55x_standard_peripheral/Source/gd32vw55x_i2c.c **** PROFITS; OR BUSINESS INTERRUPTION) HOWEVER CAUSED AND ON ANY THEORY OF LIABILITY,
  30:../Firmware/GD32VW55x_standard_peripheral/Source/gd32vw55x_i2c.c **** WHETHER IN CONTRACT, STRICT LIABILITY, OR TORT (INCLUDING NEGLIGENCE OR OTHERWISE)
  31:../Firmware/GD32VW55x_standard_peripheral/Source/gd32vw55x_i2c.c **** ARISING IN ANY WAY OUT OF THE USE OF THIS SOFTWARE, EVEN IF ADVISED OF THE POSSIBILITY
  32:../Firmware/GD32VW55x_standard_peripheral/Source/gd32vw55x_i2c.c **** OF SUCH DAMAGE.
  33:../Firmware/GD32VW55x_standard_peripheral/Source/gd32vw55x_i2c.c **** */
  34:../Firmware/GD32VW55x_standard_peripheral/Source/gd32vw55x_i2c.c **** 
  35:../Firmware/GD32VW55x_standard_peripheral/Source/gd32vw55x_i2c.c **** #include "gd32vw55x_i2c.h"
  36:../Firmware/GD32VW55x_standard_peripheral/Source/gd32vw55x_i2c.c **** 
  37:../Firmware/GD32VW55x_standard_peripheral/Source/gd32vw55x_i2c.c **** /* I2C register bit mask */
  38:../Firmware/GD32VW55x_standard_peripheral/Source/gd32vw55x_i2c.c **** #define I2C_ADDRESS_MASK              ((uint32_t)0x000003FFU)               /*!< i2c address mask *
  39:../Firmware/GD32VW55x_standard_peripheral/Source/gd32vw55x_i2c.c **** #define I2C_ADDRESS2_MASK             ((uint32_t)0x000000FEU)               /*!< the second i2c add
  40:../Firmware/GD32VW55x_standard_peripheral/Source/gd32vw55x_i2c.c **** 
  41:../Firmware/GD32VW55x_standard_peripheral/Source/gd32vw55x_i2c.c **** /* I2C register bit offset */
  42:../Firmware/GD32VW55x_standard_peripheral/Source/gd32vw55x_i2c.c **** #define CTL0_DNF_OFFSET               ((uint32_t)0x00000008U)               /*!< bit offset of DNF 
  43:../Firmware/GD32VW55x_standard_peripheral/Source/gd32vw55x_i2c.c **** #define CTL1_BYTENUM_OFFSET           ((uint32_t)0x00000010U)               /*!< bit offset of BYTE
  44:../Firmware/GD32VW55x_standard_peripheral/Source/gd32vw55x_i2c.c **** #define STAT_READDR_OFFSET            ((uint32_t)0x00000011U)               /*!< bit offset of READ
  45:../Firmware/GD32VW55x_standard_peripheral/Source/gd32vw55x_i2c.c **** #define TIMING_SCLL_OFFSET            ((uint32_t)0x00000000U)               /*!< bit offset of SCLL
  46:../Firmware/GD32VW55x_standard_peripheral/Source/gd32vw55x_i2c.c **** #define TIMING_SCLH_OFFSET            ((uint32_t)0x00000008U)               /*!< bit offset of SCLH
  47:../Firmware/GD32VW55x_standard_peripheral/Source/gd32vw55x_i2c.c **** #define TIMING_SDADELY_OFFSET         ((uint32_t)0x00000010U)               /*!< bit offset of SDAD
  48:../Firmware/GD32VW55x_standard_peripheral/Source/gd32vw55x_i2c.c **** #define TIMING_SCLDELY_OFFSET         ((uint32_t)0x00000014U)               /*!< bit offset of SCLD
  49:../Firmware/GD32VW55x_standard_peripheral/Source/gd32vw55x_i2c.c **** #define TIMING_PSC_OFFSET             ((uint32_t)0x0000001CU)               /*!< bit offset of PSC 
  50:../Firmware/GD32VW55x_standard_peripheral/Source/gd32vw55x_i2c.c **** #define SADDR1_ADDMSK_OFFSET          ((uint32_t)0x00000008U)               /*!< bit offset of ADDM
  51:../Firmware/GD32VW55x_standard_peripheral/Source/gd32vw55x_i2c.c **** #define TIMEOUT_BUSTOB_OFFSET         ((uint32_t)0x00000010U)               /*!< bit offset of BUST
  52:../Firmware/GD32VW55x_standard_peripheral/Source/gd32vw55x_i2c.c **** 
  53:../Firmware/GD32VW55x_standard_peripheral/Source/gd32vw55x_i2c.c **** /*!
  54:../Firmware/GD32VW55x_standard_peripheral/Source/gd32vw55x_i2c.c ****     \brief      reset I2C
  55:../Firmware/GD32VW55x_standard_peripheral/Source/gd32vw55x_i2c.c ****     \param[in]  i2c_periph: I2Cx(x=0,1)
  56:../Firmware/GD32VW55x_standard_peripheral/Source/gd32vw55x_i2c.c ****     \param[out] none
  57:../Firmware/GD32VW55x_standard_peripheral/Source/gd32vw55x_i2c.c ****     \retval     none
  58:../Firmware/GD32VW55x_standard_peripheral/Source/gd32vw55x_i2c.c **** */
  59:../Firmware/GD32VW55x_standard_peripheral/Source/gd32vw55x_i2c.c **** void i2c_deinit(uint32_t i2c_periph)
  60:../Firmware/GD32VW55x_standard_peripheral/Source/gd32vw55x_i2c.c **** {
  16              		.loc 1 60 1
  17              		.cfi_startproc
  18 0000 0111     		addi	sp,sp,-32
  19              		.cfi_def_cfa_offset 32
  20 0002 06CE     		sw	ra,28(sp)
  21 0004 22CC     		sw	s0,24(sp)
  22              		.cfi_offset 1, -4
  23              		.cfi_offset 8, -8
  24 0006 0010     		addi	s0,sp,32
  25              		.cfi_def_cfa 8, 0
  26 0008 2326A4FE 		sw	a0,-20(s0)
  61:../Firmware/GD32VW55x_standard_peripheral/Source/gd32vw55x_i2c.c ****     switch(i2c_periph){
  27              		.loc 1 61 5
  28 000c 0327C4FE 		lw	a4,-20(s0)
  29 0010 B7570040 		li	a5,1073762304
  30 0014 93870740 		addi	a5,a5,1024
  31 0018 630BF700 		beq	a4,a5,.L2
  32 001c 0327C4FE 		lw	a4,-20(s0)
  33 0020 B7670040 		li	a5,1073766400
  34 0024 93870780 		addi	a5,a5,-2048
  35 0028 6302F702 		beq	a4,a5,.L3
  62:../Firmware/GD32VW55x_standard_peripheral/Source/gd32vw55x_i2c.c ****     case I2C0:
  63:../Firmware/GD32VW55x_standard_peripheral/Source/gd32vw55x_i2c.c ****         /* reset I2C0 */
  64:../Firmware/GD32VW55x_standard_peripheral/Source/gd32vw55x_i2c.c ****         rcu_periph_reset_enable(RCU_I2C0RST);
  65:../Firmware/GD32VW55x_standard_peripheral/Source/gd32vw55x_i2c.c ****         rcu_periph_reset_disable(RCU_I2C0RST);
  66:../Firmware/GD32VW55x_standard_peripheral/Source/gd32vw55x_i2c.c ****         break;
  67:../Firmware/GD32VW55x_standard_peripheral/Source/gd32vw55x_i2c.c ****     case I2C1:
  68:../Firmware/GD32VW55x_standard_peripheral/Source/gd32vw55x_i2c.c ****         /* reset I2C1 */
  69:../Firmware/GD32VW55x_standard_peripheral/Source/gd32vw55x_i2c.c ****         rcu_periph_reset_enable(RCU_I2C1RST);
  70:../Firmware/GD32VW55x_standard_peripheral/Source/gd32vw55x_i2c.c ****         rcu_periph_reset_disable(RCU_I2C1RST);
  71:../Firmware/GD32VW55x_standard_peripheral/Source/gd32vw55x_i2c.c ****         break;
  72:../Firmware/GD32VW55x_standard_peripheral/Source/gd32vw55x_i2c.c ****     default:
  73:../Firmware/GD32VW55x_standard_peripheral/Source/gd32vw55x_i2c.c ****         break;
  36              		.loc 1 73 9
  37 002c 3DA8     		j	.L5
  38              	.L2:
  64:../Firmware/GD32VW55x_standard_peripheral/Source/gd32vw55x_i2c.c ****         rcu_periph_reset_disable(RCU_I2C0RST);
  39              		.loc 1 64 9
  40 002e 8567     		li	a5,4096
  41 0030 13855781 		addi	a0,a5,-2027
  42 0034 97000000 		call	rcu_periph_reset_enable
  42      E7800000 
  65:../Firmware/GD32VW55x_standard_peripheral/Source/gd32vw55x_i2c.c ****         break;
  43              		.loc 1 65 9
  44 003c 8567     		li	a5,4096
  45 003e 13855781 		addi	a0,a5,-2027
  46 0042 97000000 		call	rcu_periph_reset_disable
  46      E7800000 
  66:../Firmware/GD32VW55x_standard_peripheral/Source/gd32vw55x_i2c.c ****     case I2C1:
  47              		.loc 1 66 9
  48 004a 05A0     		j	.L5
  49              	.L3:
  69:../Firmware/GD32VW55x_standard_peripheral/Source/gd32vw55x_i2c.c ****         rcu_periph_reset_disable(RCU_I2C1RST);
  50              		.loc 1 69 9
  51 004c 8567     		li	a5,4096
  52 004e 13856781 		addi	a0,a5,-2026
  53 0052 97000000 		call	rcu_periph_reset_enable
  53      E7800000 
  70:../Firmware/GD32VW55x_standard_peripheral/Source/gd32vw55x_i2c.c ****         break;
  54              		.loc 1 70 9
  55 005a 8567     		li	a5,4096
  56 005c 13856781 		addi	a0,a5,-2026
  57 0060 97000000 		call	rcu_periph_reset_disable
  57      E7800000 
  71:../Firmware/GD32VW55x_standard_peripheral/Source/gd32vw55x_i2c.c ****     default:
  58              		.loc 1 71 9
  59 0068 0100     		nop
  60              	.L5:
  74:../Firmware/GD32VW55x_standard_peripheral/Source/gd32vw55x_i2c.c ****     }
  75:../Firmware/GD32VW55x_standard_peripheral/Source/gd32vw55x_i2c.c **** }
  61              		.loc 1 75 1
  62 006a 0100     		nop
  63 006c F240     		lw	ra,28(sp)
  64              		.cfi_restore 1
  65 006e 6244     		lw	s0,24(sp)
  66              		.cfi_restore 8
  67              		.cfi_def_cfa 2, 32
  68 0070 0561     		addi	sp,sp,32
  69              		.cfi_def_cfa_offset 0
  70 0072 8280     		jr	ra
  71              		.cfi_endproc
  72              	.LFE347:
  74              		.section	.text.i2c_timing_config,"ax",@progbits
  75              		.align	1
  76              		.globl	i2c_timing_config
  78              	i2c_timing_config:
  79              	.LFB348:
  76:../Firmware/GD32VW55x_standard_peripheral/Source/gd32vw55x_i2c.c **** 
  77:../Firmware/GD32VW55x_standard_peripheral/Source/gd32vw55x_i2c.c **** /*!
  78:../Firmware/GD32VW55x_standard_peripheral/Source/gd32vw55x_i2c.c ****     \brief      configure the timing parameters
  79:../Firmware/GD32VW55x_standard_peripheral/Source/gd32vw55x_i2c.c ****     \param[in]  i2c_periph: I2Cx(x=0,1)
  80:../Firmware/GD32VW55x_standard_peripheral/Source/gd32vw55x_i2c.c ****     \param[in]  psc: 0-0x0000000F, timing prescaler
  81:../Firmware/GD32VW55x_standard_peripheral/Source/gd32vw55x_i2c.c ****     \param[in]  scl_dely: 0-0x0000000F, data setup time
  82:../Firmware/GD32VW55x_standard_peripheral/Source/gd32vw55x_i2c.c ****     \param[in]  sda_dely: 0-0x0000000F, data hold time
  83:../Firmware/GD32VW55x_standard_peripheral/Source/gd32vw55x_i2c.c ****     \param[out] none
  84:../Firmware/GD32VW55x_standard_peripheral/Source/gd32vw55x_i2c.c ****     \retval     none
  85:../Firmware/GD32VW55x_standard_peripheral/Source/gd32vw55x_i2c.c **** */
  86:../Firmware/GD32VW55x_standard_peripheral/Source/gd32vw55x_i2c.c **** void i2c_timing_config(uint32_t i2c_periph, uint32_t psc, uint32_t scl_dely, uint32_t sda_dely)
  87:../Firmware/GD32VW55x_standard_peripheral/Source/gd32vw55x_i2c.c **** {
  80              		.loc 1 87 1
  81              		.cfi_startproc
  82 0000 0111     		addi	sp,sp,-32
  83              		.cfi_def_cfa_offset 32
  84 0002 22CE     		sw	s0,28(sp)
  85              		.cfi_offset 8, -4
  86 0004 0010     		addi	s0,sp,32
  87              		.cfi_def_cfa 8, 0
  88 0006 2326A4FE 		sw	a0,-20(s0)
  89 000a 2324B4FE 		sw	a1,-24(s0)
  90 000e 2322C4FE 		sw	a2,-28(s0)
  91 0012 2320D4FE 		sw	a3,-32(s0)
  88:../Firmware/GD32VW55x_standard_peripheral/Source/gd32vw55x_i2c.c ****     /* clear PSC, SCLDELY, SDADELY bits in I2C_TIMING register */
  89:../Firmware/GD32VW55x_standard_peripheral/Source/gd32vw55x_i2c.c ****     I2C_TIMING(i2c_periph) &= ~I2C_TIMING_PSC;
  92              		.loc 1 89 28
  93 0016 8327C4FE 		lw	a5,-20(s0)
  94 001a C107     		addi	a5,a5,16
  95 001c 9843     		lw	a4,0(a5)
  96 001e 8327C4FE 		lw	a5,-20(s0)
  97 0022 C107     		addi	a5,a5,16
  98 0024 BE86     		mv	a3,a5
  99 0026 B7070010 		li	a5,268435456
 100 002a FD17     		addi	a5,a5,-1
 101 002c F98F     		and	a5,a4,a5
 102 002e 9CC2     		sw	a5,0(a3)
  90:../Firmware/GD32VW55x_standard_peripheral/Source/gd32vw55x_i2c.c ****     I2C_TIMING(i2c_periph) &= ~I2C_TIMING_SCLDELY;
 103              		.loc 1 90 28
 104 0030 8327C4FE 		lw	a5,-20(s0)
 105 0034 C107     		addi	a5,a5,16
 106 0036 9843     		lw	a4,0(a5)
 107 0038 8327C4FE 		lw	a5,-20(s0)
 108 003c C107     		addi	a5,a5,16
 109 003e BE86     		mv	a3,a5
 110 0040 B70710FF 		li	a5,-15728640
 111 0044 FD17     		addi	a5,a5,-1
 112 0046 F98F     		and	a5,a4,a5
 113 0048 9CC2     		sw	a5,0(a3)
  91:../Firmware/GD32VW55x_standard_peripheral/Source/gd32vw55x_i2c.c ****     I2C_TIMING(i2c_periph) &= ~I2C_TIMING_SDADELY;
 114              		.loc 1 91 28
 115 004a 8327C4FE 		lw	a5,-20(s0)
 116 004e C107     		addi	a5,a5,16
 117 0050 9843     		lw	a4,0(a5)
 118 0052 8327C4FE 		lw	a5,-20(s0)
 119 0056 C107     		addi	a5,a5,16
 120 0058 BE86     		mv	a3,a5
 121 005a B707F1FF 		li	a5,-983040
 122 005e FD17     		addi	a5,a5,-1
 123 0060 F98F     		and	a5,a4,a5
 124 0062 9CC2     		sw	a5,0(a3)
  92:../Firmware/GD32VW55x_standard_peripheral/Source/gd32vw55x_i2c.c ****     /* mask PSC, SCLDELY, SDADELY bits in I2C_TIMING register */
  93:../Firmware/GD32VW55x_standard_peripheral/Source/gd32vw55x_i2c.c ****     psc = (uint32_t)(psc << TIMING_PSC_OFFSET) & I2C_TIMING_PSC;
 125              		.loc 1 93 9
 126 0064 832784FE 		lw	a5,-24(s0)
 127 0068 F207     		slli	a5,a5,28
 128 006a 2324F4FE 		sw	a5,-24(s0)
  94:../Firmware/GD32VW55x_standard_peripheral/Source/gd32vw55x_i2c.c ****     scl_dely = (uint32_t)(scl_dely << TIMING_SCLDELY_OFFSET) & I2C_TIMING_SCLDELY;
 129              		.loc 1 94 36
 130 006e 832744FE 		lw	a5,-28(s0)
 131 0072 13974701 		slli	a4,a5,20
 132              		.loc 1 94 14
 133 0076 B707F000 		li	a5,15728640
 134 007a F98F     		and	a5,a4,a5
 135 007c 2322F4FE 		sw	a5,-28(s0)
  95:../Firmware/GD32VW55x_standard_peripheral/Source/gd32vw55x_i2c.c ****     sda_dely = (uint32_t)(sda_dely << TIMING_SDADELY_OFFSET) & I2C_TIMING_SDADELY;
 136              		.loc 1 95 36
 137 0080 832704FE 		lw	a5,-32(s0)
 138 0084 13970701 		slli	a4,a5,16
 139              		.loc 1 95 14
 140 0088 B7070F00 		li	a5,983040
 141 008c F98F     		and	a5,a4,a5
 142 008e 2320F4FE 		sw	a5,-32(s0)
  96:../Firmware/GD32VW55x_standard_peripheral/Source/gd32vw55x_i2c.c ****     /* write PSC, SCLDELY, SDADELY bits in I2C_TIMING register */
  97:../Firmware/GD32VW55x_standard_peripheral/Source/gd32vw55x_i2c.c ****     I2C_TIMING(i2c_periph) |= (psc | scl_dely |sda_dely);
 143              		.loc 1 97 28
 144 0092 8327C4FE 		lw	a5,-20(s0)
 145 0096 C107     		addi	a5,a5,16
 146 0098 9843     		lw	a4,0(a5)
 147              		.loc 1 97 36
 148 009a 832684FE 		lw	a3,-24(s0)
 149 009e 832744FE 		lw	a5,-28(s0)
 150 00a2 DD8E     		or	a3,a3,a5
 151              		.loc 1 97 47
 152 00a4 832704FE 		lw	a5,-32(s0)
 153 00a8 D58F     		or	a5,a3,a5
 154              		.loc 1 97 28
 155 00aa 8326C4FE 		lw	a3,-20(s0)
 156 00ae C106     		addi	a3,a3,16
 157 00b0 D98F     		or	a5,a4,a5
 158 00b2 9CC2     		sw	a5,0(a3)
  98:../Firmware/GD32VW55x_standard_peripheral/Source/gd32vw55x_i2c.c **** }
 159              		.loc 1 98 1
 160 00b4 0100     		nop
 161 00b6 7244     		lw	s0,28(sp)
 162              		.cfi_restore 8
 163              		.cfi_def_cfa 2, 32
 164 00b8 0561     		addi	sp,sp,32
 165              		.cfi_def_cfa_offset 0
 166 00ba 8280     		jr	ra
 167              		.cfi_endproc
 168              	.LFE348:
 170              		.section	.text.i2c_digital_noise_filter_config,"ax",@progbits
 171              		.align	1
 172              		.globl	i2c_digital_noise_filter_config
 174              	i2c_digital_noise_filter_config:
 175              	.LFB349:
  99:../Firmware/GD32VW55x_standard_peripheral/Source/gd32vw55x_i2c.c **** 
 100:../Firmware/GD32VW55x_standard_peripheral/Source/gd32vw55x_i2c.c **** /*!
 101:../Firmware/GD32VW55x_standard_peripheral/Source/gd32vw55x_i2c.c ****     \brief      configure digital noise filter
 102:../Firmware/GD32VW55x_standard_peripheral/Source/gd32vw55x_i2c.c ****     \param[in]  i2c_periph: I2Cx(x=0,1)
 103:../Firmware/GD32VW55x_standard_peripheral/Source/gd32vw55x_i2c.c ****     \param[in]  filter_length: the length of filter spikes
 104:../Firmware/GD32VW55x_standard_peripheral/Source/gd32vw55x_i2c.c ****                 only one parameter can be selected which is shown as below:
 105:../Firmware/GD32VW55x_standard_peripheral/Source/gd32vw55x_i2c.c ****       \arg        FILTER_DISABLE: digital filter is disabled
 106:../Firmware/GD32VW55x_standard_peripheral/Source/gd32vw55x_i2c.c ****       \arg        FILTER_LENGTH_1: digital filter is enabled and filter spikes with a length of up 
 107:../Firmware/GD32VW55x_standard_peripheral/Source/gd32vw55x_i2c.c ****       \arg        FILTER_LENGTH_2: digital filter is enabled and filter spikes with a length of up 
 108:../Firmware/GD32VW55x_standard_peripheral/Source/gd32vw55x_i2c.c ****       \arg        FILTER_LENGTH_3: digital filter is enabled and filter spikes with a length of up 
 109:../Firmware/GD32VW55x_standard_peripheral/Source/gd32vw55x_i2c.c ****       \arg        FILTER_LENGTH_4: digital filter is enabled and filter spikes with a length of up 
 110:../Firmware/GD32VW55x_standard_peripheral/Source/gd32vw55x_i2c.c ****       \arg        FILTER_LENGTH_5: digital filter is enabled and filter spikes with a length of up 
 111:../Firmware/GD32VW55x_standard_peripheral/Source/gd32vw55x_i2c.c ****       \arg        FILTER_LENGTH_6: digital filter is enabled and filter spikes with a length of up 
 112:../Firmware/GD32VW55x_standard_peripheral/Source/gd32vw55x_i2c.c ****       \arg        FILTER_LENGTH_7: digital filter is enabled and filter spikes with a length of up 
 113:../Firmware/GD32VW55x_standard_peripheral/Source/gd32vw55x_i2c.c ****       \arg        FILTER_LENGTH_8: digital filter is enabled and filter spikes with a length of up 
 114:../Firmware/GD32VW55x_standard_peripheral/Source/gd32vw55x_i2c.c ****       \arg        FILTER_LENGTH_9: digital filter is enabled and filter spikes with a length of up 
 115:../Firmware/GD32VW55x_standard_peripheral/Source/gd32vw55x_i2c.c ****       \arg        FILTER_LENGTH_10: digital filter is enabled and filter spikes with a length of up
 116:../Firmware/GD32VW55x_standard_peripheral/Source/gd32vw55x_i2c.c ****       \arg        FILTER_LENGTH_11: digital filter is enabled and filter spikes with a length of up
 117:../Firmware/GD32VW55x_standard_peripheral/Source/gd32vw55x_i2c.c ****       \arg        FILTER_LENGTH_12: digital filter is enabled and filter spikes with a length of up
 118:../Firmware/GD32VW55x_standard_peripheral/Source/gd32vw55x_i2c.c ****       \arg        FILTER_LENGTH_13: digital filter is enabled and filter spikes with a length of up
 119:../Firmware/GD32VW55x_standard_peripheral/Source/gd32vw55x_i2c.c ****       \arg        FILTER_LENGTH_14: digital filter is enabled and filter spikes with a length of up
 120:../Firmware/GD32VW55x_standard_peripheral/Source/gd32vw55x_i2c.c ****       \arg        FILTER_LENGTH_15: digital filter is enabled and filter spikes with a length of up
 121:../Firmware/GD32VW55x_standard_peripheral/Source/gd32vw55x_i2c.c ****     \param[out] none
 122:../Firmware/GD32VW55x_standard_peripheral/Source/gd32vw55x_i2c.c ****     \retval     none
 123:../Firmware/GD32VW55x_standard_peripheral/Source/gd32vw55x_i2c.c **** */
 124:../Firmware/GD32VW55x_standard_peripheral/Source/gd32vw55x_i2c.c **** void i2c_digital_noise_filter_config(uint32_t i2c_periph, uint32_t filter_length)
 125:../Firmware/GD32VW55x_standard_peripheral/Source/gd32vw55x_i2c.c **** {
 176              		.loc 1 125 1
 177              		.cfi_startproc
 178 0000 0111     		addi	sp,sp,-32
 179              		.cfi_def_cfa_offset 32
 180 0002 22CE     		sw	s0,28(sp)
 181              		.cfi_offset 8, -4
 182 0004 0010     		addi	s0,sp,32
 183              		.cfi_def_cfa 8, 0
 184 0006 2326A4FE 		sw	a0,-20(s0)
 185 000a 2324B4FE 		sw	a1,-24(s0)
 126:../Firmware/GD32VW55x_standard_peripheral/Source/gd32vw55x_i2c.c ****     I2C_CTL0(i2c_periph) &= (uint32_t)(~I2C_CTL0_DNF);
 186              		.loc 1 126 26
 187 000e 8327C4FE 		lw	a5,-20(s0)
 188 0012 9443     		lw	a3,0(a5)
 189 0014 8327C4FE 		lw	a5,-20(s0)
 190 0018 7D77     		li	a4,-4096
 191 001a 1307F70F 		addi	a4,a4,255
 192 001e 758F     		and	a4,a3,a4
 193 0020 98C3     		sw	a4,0(a5)
 127:../Firmware/GD32VW55x_standard_peripheral/Source/gd32vw55x_i2c.c ****     I2C_CTL0(i2c_periph) |= (uint32_t)(filter_length << CTL0_DNF_OFFSET);
 194              		.loc 1 127 26
 195 0022 8327C4FE 		lw	a5,-20(s0)
 196 0026 9443     		lw	a3,0(a5)
 197              		.loc 1 127 54
 198 0028 832784FE 		lw	a5,-24(s0)
 199 002c 13978700 		slli	a4,a5,8
 200              		.loc 1 127 26
 201 0030 8327C4FE 		lw	a5,-20(s0)
 202 0034 558F     		or	a4,a3,a4
 203 0036 98C3     		sw	a4,0(a5)
 128:../Firmware/GD32VW55x_standard_peripheral/Source/gd32vw55x_i2c.c **** }
 204              		.loc 1 128 1
 205 0038 0100     		nop
 206 003a 7244     		lw	s0,28(sp)
 207              		.cfi_restore 8
 208              		.cfi_def_cfa 2, 32
 209 003c 0561     		addi	sp,sp,32
 210              		.cfi_def_cfa_offset 0
 211 003e 8280     		jr	ra
 212              		.cfi_endproc
 213              	.LFE349:
 215              		.section	.text.i2c_analog_noise_filter_enable,"ax",@progbits
 216              		.align	1
 217              		.globl	i2c_analog_noise_filter_enable
 219              	i2c_analog_noise_filter_enable:
 220              	.LFB350:
 129:../Firmware/GD32VW55x_standard_peripheral/Source/gd32vw55x_i2c.c **** 
 130:../Firmware/GD32VW55x_standard_peripheral/Source/gd32vw55x_i2c.c **** /*!
 131:../Firmware/GD32VW55x_standard_peripheral/Source/gd32vw55x_i2c.c ****     \brief      enable analog noise filter
 132:../Firmware/GD32VW55x_standard_peripheral/Source/gd32vw55x_i2c.c ****     \param[in]  i2c_periph: I2Cx(x=0,1)
 133:../Firmware/GD32VW55x_standard_peripheral/Source/gd32vw55x_i2c.c ****     \param[out] none
 134:../Firmware/GD32VW55x_standard_peripheral/Source/gd32vw55x_i2c.c ****     \retval     none
 135:../Firmware/GD32VW55x_standard_peripheral/Source/gd32vw55x_i2c.c **** */
 136:../Firmware/GD32VW55x_standard_peripheral/Source/gd32vw55x_i2c.c **** void i2c_analog_noise_filter_enable(uint32_t i2c_periph)
 137:../Firmware/GD32VW55x_standard_peripheral/Source/gd32vw55x_i2c.c **** {
 221              		.loc 1 137 1
 222              		.cfi_startproc
 223 0000 0111     		addi	sp,sp,-32
 224              		.cfi_def_cfa_offset 32
 225 0002 22CE     		sw	s0,28(sp)
 226              		.cfi_offset 8, -4
 227 0004 0010     		addi	s0,sp,32
 228              		.cfi_def_cfa 8, 0
 229 0006 2326A4FE 		sw	a0,-20(s0)
 138:../Firmware/GD32VW55x_standard_peripheral/Source/gd32vw55x_i2c.c ****     I2C_CTL0(i2c_periph) &= ~I2C_CTL0_ANOFF;
 230              		.loc 1 138 26
 231 000a 8327C4FE 		lw	a5,-20(s0)
 232 000e 9443     		lw	a3,0(a5)
 233 0010 8327C4FE 		lw	a5,-20(s0)
 234 0014 7D77     		li	a4,-4096
 235 0016 7D17     		addi	a4,a4,-1
 236 0018 758F     		and	a4,a3,a4
 237 001a 98C3     		sw	a4,0(a5)
 139:../Firmware/GD32VW55x_standard_peripheral/Source/gd32vw55x_i2c.c **** }
 238              		.loc 1 139 1
 239 001c 0100     		nop
 240 001e 7244     		lw	s0,28(sp)
 241              		.cfi_restore 8
 242              		.cfi_def_cfa 2, 32
 243 0020 0561     		addi	sp,sp,32
 244              		.cfi_def_cfa_offset 0
 245 0022 8280     		jr	ra
 246              		.cfi_endproc
 247              	.LFE350:
 249              		.section	.text.i2c_analog_noise_filter_disable,"ax",@progbits
 250              		.align	1
 251              		.globl	i2c_analog_noise_filter_disable
 253              	i2c_analog_noise_filter_disable:
 254              	.LFB351:
 140:../Firmware/GD32VW55x_standard_peripheral/Source/gd32vw55x_i2c.c **** 
 141:../Firmware/GD32VW55x_standard_peripheral/Source/gd32vw55x_i2c.c **** /*!
 142:../Firmware/GD32VW55x_standard_peripheral/Source/gd32vw55x_i2c.c ****     \brief      disable analog noise filter
 143:../Firmware/GD32VW55x_standard_peripheral/Source/gd32vw55x_i2c.c ****     \param[in]  i2c_periph: I2Cx(x=0,1)
 144:../Firmware/GD32VW55x_standard_peripheral/Source/gd32vw55x_i2c.c ****     \param[out] none
 145:../Firmware/GD32VW55x_standard_peripheral/Source/gd32vw55x_i2c.c ****     \retval     none
 146:../Firmware/GD32VW55x_standard_peripheral/Source/gd32vw55x_i2c.c **** */
 147:../Firmware/GD32VW55x_standard_peripheral/Source/gd32vw55x_i2c.c **** void i2c_analog_noise_filter_disable(uint32_t i2c_periph)
 148:../Firmware/GD32VW55x_standard_peripheral/Source/gd32vw55x_i2c.c **** {
 255              		.loc 1 148 1
 256              		.cfi_startproc
 257 0000 0111     		addi	sp,sp,-32
 258              		.cfi_def_cfa_offset 32
 259 0002 22CE     		sw	s0,28(sp)
 260              		.cfi_offset 8, -4
 261 0004 0010     		addi	s0,sp,32
 262              		.cfi_def_cfa 8, 0
 263 0006 2326A4FE 		sw	a0,-20(s0)
 149:../Firmware/GD32VW55x_standard_peripheral/Source/gd32vw55x_i2c.c ****     I2C_CTL0(i2c_periph) |= I2C_CTL0_ANOFF;
 264              		.loc 1 149 26
 265 000a 8327C4FE 		lw	a5,-20(s0)
 266 000e 9443     		lw	a3,0(a5)
 267 0010 8327C4FE 		lw	a5,-20(s0)
 268 0014 0567     		li	a4,4096
 269 0016 558F     		or	a4,a3,a4
 270 0018 98C3     		sw	a4,0(a5)
 150:../Firmware/GD32VW55x_standard_peripheral/Source/gd32vw55x_i2c.c **** }
 271              		.loc 1 150 1
 272 001a 0100     		nop
 273 001c 7244     		lw	s0,28(sp)
 274              		.cfi_restore 8
 275              		.cfi_def_cfa 2, 32
 276 001e 0561     		addi	sp,sp,32
 277              		.cfi_def_cfa_offset 0
 278 0020 8280     		jr	ra
 279              		.cfi_endproc
 280              	.LFE351:
 282              		.section	.text.i2c_master_clock_config,"ax",@progbits
 283              		.align	1
 284              		.globl	i2c_master_clock_config
 286              	i2c_master_clock_config:
 287              	.LFB352:
 151:../Firmware/GD32VW55x_standard_peripheral/Source/gd32vw55x_i2c.c **** 
 152:../Firmware/GD32VW55x_standard_peripheral/Source/gd32vw55x_i2c.c **** /*!
 153:../Firmware/GD32VW55x_standard_peripheral/Source/gd32vw55x_i2c.c ****     \brief      configure the SCL high and low period of clock in master mode
 154:../Firmware/GD32VW55x_standard_peripheral/Source/gd32vw55x_i2c.c ****     \param[in]  i2c_periph: I2Cx(x=0,1)
 155:../Firmware/GD32VW55x_standard_peripheral/Source/gd32vw55x_i2c.c ****     \param[in]  sclh: 0-0x000000FF, SCL high period
 156:../Firmware/GD32VW55x_standard_peripheral/Source/gd32vw55x_i2c.c ****     \param[in]  scll: 0-0x000000FF, SCL low period
 157:../Firmware/GD32VW55x_standard_peripheral/Source/gd32vw55x_i2c.c ****     \param[out] none
 158:../Firmware/GD32VW55x_standard_peripheral/Source/gd32vw55x_i2c.c ****     \retval     none
 159:../Firmware/GD32VW55x_standard_peripheral/Source/gd32vw55x_i2c.c **** */
 160:../Firmware/GD32VW55x_standard_peripheral/Source/gd32vw55x_i2c.c **** void i2c_master_clock_config(uint32_t i2c_periph, uint32_t sclh, uint32_t scll)
 161:../Firmware/GD32VW55x_standard_peripheral/Source/gd32vw55x_i2c.c **** {
 288              		.loc 1 161 1
 289              		.cfi_startproc
 290 0000 0111     		addi	sp,sp,-32
 291              		.cfi_def_cfa_offset 32
 292 0002 22CE     		sw	s0,28(sp)
 293              		.cfi_offset 8, -4
 294 0004 0010     		addi	s0,sp,32
 295              		.cfi_def_cfa 8, 0
 296 0006 2326A4FE 		sw	a0,-20(s0)
 297 000a 2324B4FE 		sw	a1,-24(s0)
 298 000e 2322C4FE 		sw	a2,-28(s0)
 162:../Firmware/GD32VW55x_standard_peripheral/Source/gd32vw55x_i2c.c ****     /* clear SCLH, SCLL bits in I2C_TIMING register */
 163:../Firmware/GD32VW55x_standard_peripheral/Source/gd32vw55x_i2c.c ****     I2C_TIMING(i2c_periph) &= ~I2C_TIMING_SCLH;
 299              		.loc 1 163 28
 300 0012 8327C4FE 		lw	a5,-20(s0)
 301 0016 C107     		addi	a5,a5,16
 302 0018 9843     		lw	a4,0(a5)
 303 001a 8327C4FE 		lw	a5,-20(s0)
 304 001e C107     		addi	a5,a5,16
 305 0020 BE86     		mv	a3,a5
 306 0022 C177     		li	a5,-65536
 307 0024 9387F70F 		addi	a5,a5,255
 308 0028 F98F     		and	a5,a4,a5
 309 002a 9CC2     		sw	a5,0(a3)
 164:../Firmware/GD32VW55x_standard_peripheral/Source/gd32vw55x_i2c.c ****     I2C_TIMING(i2c_periph) &= ~I2C_TIMING_SCLL;
 310              		.loc 1 164 28
 311 002c 8327C4FE 		lw	a5,-20(s0)
 312 0030 C107     		addi	a5,a5,16
 313 0032 9C43     		lw	a5,0(a5)
 314 0034 0327C4FE 		lw	a4,-20(s0)
 315 0038 4107     		addi	a4,a4,16
 316 003a 93F707F0 		andi	a5,a5,-256
 317 003e 1CC3     		sw	a5,0(a4)
 165:../Firmware/GD32VW55x_standard_peripheral/Source/gd32vw55x_i2c.c ****     /* mask SCLH, SCLL bits in I2C_TIMING register */
 166:../Firmware/GD32VW55x_standard_peripheral/Source/gd32vw55x_i2c.c ****     sclh = (uint32_t)(sclh << TIMING_SCLH_OFFSET) & I2C_TIMING_SCLH;
 318              		.loc 1 166 28
 319 0040 832784FE 		lw	a5,-24(s0)
 320 0044 13978700 		slli	a4,a5,8
 321              		.loc 1 166 10
 322 0048 C167     		li	a5,65536
 323 004a FD17     		addi	a5,a5,-1
 324 004c F98F     		and	a5,a4,a5
 325 004e 2324F4FE 		sw	a5,-24(s0)
 167:../Firmware/GD32VW55x_standard_peripheral/Source/gd32vw55x_i2c.c ****     scll = (uint32_t)(scll << TIMING_SCLL_OFFSET) & I2C_TIMING_SCLL;
 326              		.loc 1 167 10
 327 0052 832744FE 		lw	a5,-28(s0)
 328 0056 93F7F70F 		andi	a5,a5,255
 329 005a 2322F4FE 		sw	a5,-28(s0)
 168:../Firmware/GD32VW55x_standard_peripheral/Source/gd32vw55x_i2c.c ****     /* write SCLH, SCLL bits in I2C_TIMING register */
 169:../Firmware/GD32VW55x_standard_peripheral/Source/gd32vw55x_i2c.c ****     I2C_TIMING(i2c_periph) |= (sclh | scll);
 330              		.loc 1 169 28
 331 005e 8327C4FE 		lw	a5,-20(s0)
 332 0062 C107     		addi	a5,a5,16
 333 0064 9843     		lw	a4,0(a5)
 334              		.loc 1 169 37
 335 0066 832684FE 		lw	a3,-24(s0)
 336 006a 832744FE 		lw	a5,-28(s0)
 337 006e D58F     		or	a5,a3,a5
 338              		.loc 1 169 28
 339 0070 8326C4FE 		lw	a3,-20(s0)
 340 0074 C106     		addi	a3,a3,16
 341 0076 D98F     		or	a5,a4,a5
 342 0078 9CC2     		sw	a5,0(a3)
 170:../Firmware/GD32VW55x_standard_peripheral/Source/gd32vw55x_i2c.c **** }
 343              		.loc 1 170 1
 344 007a 0100     		nop
 345 007c 7244     		lw	s0,28(sp)
 346              		.cfi_restore 8
 347              		.cfi_def_cfa 2, 32
 348 007e 0561     		addi	sp,sp,32
 349              		.cfi_def_cfa_offset 0
 350 0080 8280     		jr	ra
 351              		.cfi_endproc
 352              	.LFE352:
 354              		.section	.text.i2c_master_addressing,"ax",@progbits
 355              		.align	1
 356              		.globl	i2c_master_addressing
 358              	i2c_master_addressing:
 359              	.LFB353:
 171:../Firmware/GD32VW55x_standard_peripheral/Source/gd32vw55x_i2c.c **** 
 172:../Firmware/GD32VW55x_standard_peripheral/Source/gd32vw55x_i2c.c **** /*!
 173:../Firmware/GD32VW55x_standard_peripheral/Source/gd32vw55x_i2c.c ****     \brief      configure I2C slave address and transfer direction in master mode
 174:../Firmware/GD32VW55x_standard_peripheral/Source/gd32vw55x_i2c.c ****     \param[in]  i2c_periph: I2Cx(x=0,1)
 175:../Firmware/GD32VW55x_standard_peripheral/Source/gd32vw55x_i2c.c ****     \param[in]  address: 0-0x3FF except reserved address, I2C slave address to be sent
 176:../Firmware/GD32VW55x_standard_peripheral/Source/gd32vw55x_i2c.c ****     \param[in]  trans_direction: I2C transfer direction in master mode
 177:../Firmware/GD32VW55x_standard_peripheral/Source/gd32vw55x_i2c.c ****                 only one parameter can be selected which is shown as below:
 178:../Firmware/GD32VW55x_standard_peripheral/Source/gd32vw55x_i2c.c ****       \arg        I2C_MASTER_TRANSMIT: master transmit
 179:../Firmware/GD32VW55x_standard_peripheral/Source/gd32vw55x_i2c.c ****       \arg        I2C_MASTER_RECEIVE: master receive
 180:../Firmware/GD32VW55x_standard_peripheral/Source/gd32vw55x_i2c.c ****     \param[out] none
 181:../Firmware/GD32VW55x_standard_peripheral/Source/gd32vw55x_i2c.c ****     \retval     none
 182:../Firmware/GD32VW55x_standard_peripheral/Source/gd32vw55x_i2c.c **** */
 183:../Firmware/GD32VW55x_standard_peripheral/Source/gd32vw55x_i2c.c **** void i2c_master_addressing(uint32_t i2c_periph, uint32_t address, uint32_t trans_direction)
 184:../Firmware/GD32VW55x_standard_peripheral/Source/gd32vw55x_i2c.c **** {
 360              		.loc 1 184 1
 361              		.cfi_startproc
 362 0000 0111     		addi	sp,sp,-32
 363              		.cfi_def_cfa_offset 32
 364 0002 22CE     		sw	s0,28(sp)
 365              		.cfi_offset 8, -4
 366 0004 0010     		addi	s0,sp,32
 367              		.cfi_def_cfa 8, 0
 368 0006 2326A4FE 		sw	a0,-20(s0)
 369 000a 2324B4FE 		sw	a1,-24(s0)
 370 000e 2322C4FE 		sw	a2,-28(s0)
 185:../Firmware/GD32VW55x_standard_peripheral/Source/gd32vw55x_i2c.c ****     /* configure slave address */
 186:../Firmware/GD32VW55x_standard_peripheral/Source/gd32vw55x_i2c.c ****     I2C_CTL1(i2c_periph) &= ~I2C_CTL1_SADDRESS;
 371              		.loc 1 186 26
 372 0012 8327C4FE 		lw	a5,-20(s0)
 373 0016 9107     		addi	a5,a5,4
 374 0018 9C43     		lw	a5,0(a5)
 375 001a 0327C4FE 		lw	a4,-20(s0)
 376 001e 1107     		addi	a4,a4,4
 377 0020 93F707C0 		andi	a5,a5,-1024
 378 0024 1CC3     		sw	a5,0(a4)
 187:../Firmware/GD32VW55x_standard_peripheral/Source/gd32vw55x_i2c.c ****     I2C_CTL1(i2c_periph) |= address;
 379              		.loc 1 187 26
 380 0026 8327C4FE 		lw	a5,-20(s0)
 381 002a 9107     		addi	a5,a5,4
 382 002c 9843     		lw	a4,0(a5)
 383 002e 8327C4FE 		lw	a5,-20(s0)
 384 0032 9107     		addi	a5,a5,4
 385 0034 BE86     		mv	a3,a5
 386 0036 832784FE 		lw	a5,-24(s0)
 387 003a D98F     		or	a5,a4,a5
 388 003c 9CC2     		sw	a5,0(a3)
 188:../Firmware/GD32VW55x_standard_peripheral/Source/gd32vw55x_i2c.c ****     /* configure transfer direction */
 189:../Firmware/GD32VW55x_standard_peripheral/Source/gd32vw55x_i2c.c ****     I2C_CTL1(i2c_periph) &= ~I2C_CTL1_TRDIR;
 389              		.loc 1 189 26
 390 003e 8327C4FE 		lw	a5,-20(s0)
 391 0042 9107     		addi	a5,a5,4
 392 0044 9C43     		lw	a5,0(a5)
 393 0046 0327C4FE 		lw	a4,-20(s0)
 394 004a 1107     		addi	a4,a4,4
 395 004c 93F7F7BF 		andi	a5,a5,-1025
 396 0050 1CC3     		sw	a5,0(a4)
 190:../Firmware/GD32VW55x_standard_peripheral/Source/gd32vw55x_i2c.c ****     I2C_CTL1(i2c_periph) |= trans_direction;
 397              		.loc 1 190 26
 398 0052 8327C4FE 		lw	a5,-20(s0)
 399 0056 9107     		addi	a5,a5,4
 400 0058 9843     		lw	a4,0(a5)
 401 005a 8327C4FE 		lw	a5,-20(s0)
 402 005e 9107     		addi	a5,a5,4
 403 0060 BE86     		mv	a3,a5
 404 0062 832744FE 		lw	a5,-28(s0)
 405 0066 D98F     		or	a5,a4,a5
 406 0068 9CC2     		sw	a5,0(a3)
 191:../Firmware/GD32VW55x_standard_peripheral/Source/gd32vw55x_i2c.c **** }
 407              		.loc 1 191 1
 408 006a 0100     		nop
 409 006c 7244     		lw	s0,28(sp)
 410              		.cfi_restore 8
 411              		.cfi_def_cfa 2, 32
 412 006e 0561     		addi	sp,sp,32
 413              		.cfi_def_cfa_offset 0
 414 0070 8280     		jr	ra
 415              		.cfi_endproc
 416              	.LFE353:
 418              		.section	.text.i2c_address10_header_enable,"ax",@progbits
 419              		.align	1
 420              		.globl	i2c_address10_header_enable
 422              	i2c_address10_header_enable:
 423              	.LFB354:
 192:../Firmware/GD32VW55x_standard_peripheral/Source/gd32vw55x_i2c.c **** 
 193:../Firmware/GD32VW55x_standard_peripheral/Source/gd32vw55x_i2c.c **** /*!
 194:../Firmware/GD32VW55x_standard_peripheral/Source/gd32vw55x_i2c.c ****     \brief      10-bit address header executes read direction only in master receive mode
 195:../Firmware/GD32VW55x_standard_peripheral/Source/gd32vw55x_i2c.c ****     \param[in]  i2c_periph: I2Cx(x=0,1)
 196:../Firmware/GD32VW55x_standard_peripheral/Source/gd32vw55x_i2c.c ****     \param[out] none
 197:../Firmware/GD32VW55x_standard_peripheral/Source/gd32vw55x_i2c.c ****     \retval     none
 198:../Firmware/GD32VW55x_standard_peripheral/Source/gd32vw55x_i2c.c **** */
 199:../Firmware/GD32VW55x_standard_peripheral/Source/gd32vw55x_i2c.c **** void i2c_address10_header_enable(uint32_t i2c_periph)
 200:../Firmware/GD32VW55x_standard_peripheral/Source/gd32vw55x_i2c.c **** {
 424              		.loc 1 200 1
 425              		.cfi_startproc
 426 0000 0111     		addi	sp,sp,-32
 427              		.cfi_def_cfa_offset 32
 428 0002 22CE     		sw	s0,28(sp)
 429              		.cfi_offset 8, -4
 430 0004 0010     		addi	s0,sp,32
 431              		.cfi_def_cfa 8, 0
 432 0006 2326A4FE 		sw	a0,-20(s0)
 201:../Firmware/GD32VW55x_standard_peripheral/Source/gd32vw55x_i2c.c ****     I2C_CTL1(i2c_periph) |= I2C_CTL1_HEAD10R;
 433              		.loc 1 201 26
 434 000a 8327C4FE 		lw	a5,-20(s0)
 435 000e 9107     		addi	a5,a5,4
 436 0010 9843     		lw	a4,0(a5)
 437 0012 8327C4FE 		lw	a5,-20(s0)
 438 0016 9107     		addi	a5,a5,4
 439 0018 BE86     		mv	a3,a5
 440 001a 8567     		li	a5,4096
 441 001c D98F     		or	a5,a4,a5
 442 001e 9CC2     		sw	a5,0(a3)
 202:../Firmware/GD32VW55x_standard_peripheral/Source/gd32vw55x_i2c.c **** }
 443              		.loc 1 202 1
 444 0020 0100     		nop
 445 0022 7244     		lw	s0,28(sp)
 446              		.cfi_restore 8
 447              		.cfi_def_cfa 2, 32
 448 0024 0561     		addi	sp,sp,32
 449              		.cfi_def_cfa_offset 0
 450 0026 8280     		jr	ra
 451              		.cfi_endproc
 452              	.LFE354:
 454              		.section	.text.i2c_address10_header_disable,"ax",@progbits
 455              		.align	1
 456              		.globl	i2c_address10_header_disable
 458              	i2c_address10_header_disable:
 459              	.LFB355:
 203:../Firmware/GD32VW55x_standard_peripheral/Source/gd32vw55x_i2c.c **** 
 204:../Firmware/GD32VW55x_standard_peripheral/Source/gd32vw55x_i2c.c **** /*!
 205:../Firmware/GD32VW55x_standard_peripheral/Source/gd32vw55x_i2c.c ****     \brief      10-bit address header executes complete sequence in master receive mode
 206:../Firmware/GD32VW55x_standard_peripheral/Source/gd32vw55x_i2c.c ****     \param[in]  i2c_periph: I2Cx(x=0,1)
 207:../Firmware/GD32VW55x_standard_peripheral/Source/gd32vw55x_i2c.c ****     \param[out] none
 208:../Firmware/GD32VW55x_standard_peripheral/Source/gd32vw55x_i2c.c ****     \retval     none
 209:../Firmware/GD32VW55x_standard_peripheral/Source/gd32vw55x_i2c.c **** */
 210:../Firmware/GD32VW55x_standard_peripheral/Source/gd32vw55x_i2c.c **** void i2c_address10_header_disable(uint32_t i2c_periph)
 211:../Firmware/GD32VW55x_standard_peripheral/Source/gd32vw55x_i2c.c **** {
 460              		.loc 1 211 1
 461              		.cfi_startproc
 462 0000 0111     		addi	sp,sp,-32
 463              		.cfi_def_cfa_offset 32
 464 0002 22CE     		sw	s0,28(sp)
 465              		.cfi_offset 8, -4
 466 0004 0010     		addi	s0,sp,32
 467              		.cfi_def_cfa 8, 0
 468 0006 2326A4FE 		sw	a0,-20(s0)
 212:../Firmware/GD32VW55x_standard_peripheral/Source/gd32vw55x_i2c.c ****     I2C_CTL1(i2c_periph) &= ~I2C_CTL1_HEAD10R;
 469              		.loc 1 212 26
 470 000a 8327C4FE 		lw	a5,-20(s0)
 471 000e 9107     		addi	a5,a5,4
 472 0010 9843     		lw	a4,0(a5)
 473 0012 8327C4FE 		lw	a5,-20(s0)
 474 0016 9107     		addi	a5,a5,4
 475 0018 BE86     		mv	a3,a5
 476 001a FD77     		li	a5,-4096
 477 001c FD17     		addi	a5,a5,-1
 478 001e F98F     		and	a5,a4,a5
 479 0020 9CC2     		sw	a5,0(a3)
 213:../Firmware/GD32VW55x_standard_peripheral/Source/gd32vw55x_i2c.c **** }
 480              		.loc 1 213 1
 481 0022 0100     		nop
 482 0024 7244     		lw	s0,28(sp)
 483              		.cfi_restore 8
 484              		.cfi_def_cfa 2, 32
 485 0026 0561     		addi	sp,sp,32
 486              		.cfi_def_cfa_offset 0
 487 0028 8280     		jr	ra
 488              		.cfi_endproc
 489              	.LFE355:
 491              		.section	.text.i2c_address10_enable,"ax",@progbits
 492              		.align	1
 493              		.globl	i2c_address10_enable
 495              	i2c_address10_enable:
 496              	.LFB356:
 214:../Firmware/GD32VW55x_standard_peripheral/Source/gd32vw55x_i2c.c **** 
 215:../Firmware/GD32VW55x_standard_peripheral/Source/gd32vw55x_i2c.c **** /*!
 216:../Firmware/GD32VW55x_standard_peripheral/Source/gd32vw55x_i2c.c ****     \brief      enable 10-bit addressing mode in master mode
 217:../Firmware/GD32VW55x_standard_peripheral/Source/gd32vw55x_i2c.c ****     \param[in]  i2c_periph: I2Cx(x=0,1)
 218:../Firmware/GD32VW55x_standard_peripheral/Source/gd32vw55x_i2c.c ****     \param[out] none
 219:../Firmware/GD32VW55x_standard_peripheral/Source/gd32vw55x_i2c.c ****     \retval     none
 220:../Firmware/GD32VW55x_standard_peripheral/Source/gd32vw55x_i2c.c **** */
 221:../Firmware/GD32VW55x_standard_peripheral/Source/gd32vw55x_i2c.c **** void i2c_address10_enable(uint32_t i2c_periph)
 222:../Firmware/GD32VW55x_standard_peripheral/Source/gd32vw55x_i2c.c **** {
 497              		.loc 1 222 1
 498              		.cfi_startproc
 499 0000 0111     		addi	sp,sp,-32
 500              		.cfi_def_cfa_offset 32
 501 0002 22CE     		sw	s0,28(sp)
 502              		.cfi_offset 8, -4
 503 0004 0010     		addi	s0,sp,32
 504              		.cfi_def_cfa 8, 0
 505 0006 2326A4FE 		sw	a0,-20(s0)
 223:../Firmware/GD32VW55x_standard_peripheral/Source/gd32vw55x_i2c.c ****     I2C_CTL1(i2c_periph) |= I2C_CTL1_ADD10EN;
 506              		.loc 1 223 26
 507 000a 8327C4FE 		lw	a5,-20(s0)
 508 000e 9107     		addi	a5,a5,4
 509 0010 9843     		lw	a4,0(a5)
 510 0012 8327C4FE 		lw	a5,-20(s0)
 511 0016 9107     		addi	a5,a5,4
 512 0018 BE86     		mv	a3,a5
 513 001a 8567     		li	a5,4096
 514 001c 93870780 		addi	a5,a5,-2048
 515 0020 D98F     		or	a5,a4,a5
 516 0022 9CC2     		sw	a5,0(a3)
 224:../Firmware/GD32VW55x_standard_peripheral/Source/gd32vw55x_i2c.c **** }
 517              		.loc 1 224 1
 518 0024 0100     		nop
 519 0026 7244     		lw	s0,28(sp)
 520              		.cfi_restore 8
 521              		.cfi_def_cfa 2, 32
 522 0028 0561     		addi	sp,sp,32
 523              		.cfi_def_cfa_offset 0
 524 002a 8280     		jr	ra
 525              		.cfi_endproc
 526              	.LFE356:
 528              		.section	.text.i2c_address10_disable,"ax",@progbits
 529              		.align	1
 530              		.globl	i2c_address10_disable
 532              	i2c_address10_disable:
 533              	.LFB357:
 225:../Firmware/GD32VW55x_standard_peripheral/Source/gd32vw55x_i2c.c **** 
 226:../Firmware/GD32VW55x_standard_peripheral/Source/gd32vw55x_i2c.c **** /*!
 227:../Firmware/GD32VW55x_standard_peripheral/Source/gd32vw55x_i2c.c ****     \brief      disable 10-bit addressing mode in master mode
 228:../Firmware/GD32VW55x_standard_peripheral/Source/gd32vw55x_i2c.c ****     \param[in]  i2c_periph: I2Cx(x=0,1)
 229:../Firmware/GD32VW55x_standard_peripheral/Source/gd32vw55x_i2c.c ****     \param[out] none
 230:../Firmware/GD32VW55x_standard_peripheral/Source/gd32vw55x_i2c.c ****     \retval     none
 231:../Firmware/GD32VW55x_standard_peripheral/Source/gd32vw55x_i2c.c **** */
 232:../Firmware/GD32VW55x_standard_peripheral/Source/gd32vw55x_i2c.c **** void i2c_address10_disable(uint32_t i2c_periph)
 233:../Firmware/GD32VW55x_standard_peripheral/Source/gd32vw55x_i2c.c **** {
 534              		.loc 1 233 1
 535              		.cfi_startproc
 536 0000 0111     		addi	sp,sp,-32
 537              		.cfi_def_cfa_offset 32
 538 0002 22CE     		sw	s0,28(sp)
 539              		.cfi_offset 8, -4
 540 0004 0010     		addi	s0,sp,32
 541              		.cfi_def_cfa 8, 0
 542 0006 2326A4FE 		sw	a0,-20(s0)
 234:../Firmware/GD32VW55x_standard_peripheral/Source/gd32vw55x_i2c.c ****     I2C_CTL1(i2c_periph) &= ~I2C_CTL1_ADD10EN;
 543              		.loc 1 234 26
 544 000a 8327C4FE 		lw	a5,-20(s0)
 545 000e 9107     		addi	a5,a5,4
 546 0010 9843     		lw	a4,0(a5)
 547 0012 8327C4FE 		lw	a5,-20(s0)
 548 0016 9107     		addi	a5,a5,4
 549 0018 BE86     		mv	a3,a5
 550 001a FD77     		li	a5,-4096
 551 001c 9387F77F 		addi	a5,a5,2047
 552 0020 F98F     		and	a5,a4,a5
 553 0022 9CC2     		sw	a5,0(a3)
 235:../Firmware/GD32VW55x_standard_peripheral/Source/gd32vw55x_i2c.c **** }
 554              		.loc 1 235 1
 555 0024 0100     		nop
 556 0026 7244     		lw	s0,28(sp)
 557              		.cfi_restore 8
 558              		.cfi_def_cfa 2, 32
 559 0028 0561     		addi	sp,sp,32
 560              		.cfi_def_cfa_offset 0
 561 002a 8280     		jr	ra
 562              		.cfi_endproc
 563              	.LFE357:
 565              		.section	.text.i2c_automatic_end_enable,"ax",@progbits
 566              		.align	1
 567              		.globl	i2c_automatic_end_enable
 569              	i2c_automatic_end_enable:
 570              	.LFB358:
 236:../Firmware/GD32VW55x_standard_peripheral/Source/gd32vw55x_i2c.c **** 
 237:../Firmware/GD32VW55x_standard_peripheral/Source/gd32vw55x_i2c.c **** /*!
 238:../Firmware/GD32VW55x_standard_peripheral/Source/gd32vw55x_i2c.c ****     \brief      enable I2C automatic end mode in master mode
 239:../Firmware/GD32VW55x_standard_peripheral/Source/gd32vw55x_i2c.c ****     \param[in]  i2c_periph: I2Cx(x=0,1)
 240:../Firmware/GD32VW55x_standard_peripheral/Source/gd32vw55x_i2c.c ****     \param[out] none
 241:../Firmware/GD32VW55x_standard_peripheral/Source/gd32vw55x_i2c.c ****     \retval     none
 242:../Firmware/GD32VW55x_standard_peripheral/Source/gd32vw55x_i2c.c **** */
 243:../Firmware/GD32VW55x_standard_peripheral/Source/gd32vw55x_i2c.c **** void i2c_automatic_end_enable(uint32_t i2c_periph)
 244:../Firmware/GD32VW55x_standard_peripheral/Source/gd32vw55x_i2c.c **** {
 571              		.loc 1 244 1
 572              		.cfi_startproc
 573 0000 0111     		addi	sp,sp,-32
 574              		.cfi_def_cfa_offset 32
 575 0002 22CE     		sw	s0,28(sp)
 576              		.cfi_offset 8, -4
 577 0004 0010     		addi	s0,sp,32
 578              		.cfi_def_cfa 8, 0
 579 0006 2326A4FE 		sw	a0,-20(s0)
 245:../Firmware/GD32VW55x_standard_peripheral/Source/gd32vw55x_i2c.c ****     I2C_CTL1(i2c_periph) |= I2C_CTL1_AUTOEND;
 580              		.loc 1 245 26
 581 000a 8327C4FE 		lw	a5,-20(s0)
 582 000e 9107     		addi	a5,a5,4
 583 0010 9843     		lw	a4,0(a5)
 584 0012 8327C4FE 		lw	a5,-20(s0)
 585 0016 9107     		addi	a5,a5,4
 586 0018 BE86     		mv	a3,a5
 587 001a B7070002 		li	a5,33554432
 588 001e D98F     		or	a5,a4,a5
 589 0020 9CC2     		sw	a5,0(a3)
 246:../Firmware/GD32VW55x_standard_peripheral/Source/gd32vw55x_i2c.c **** }
 590              		.loc 1 246 1
 591 0022 0100     		nop
 592 0024 7244     		lw	s0,28(sp)
 593              		.cfi_restore 8
 594              		.cfi_def_cfa 2, 32
 595 0026 0561     		addi	sp,sp,32
 596              		.cfi_def_cfa_offset 0
 597 0028 8280     		jr	ra
 598              		.cfi_endproc
 599              	.LFE358:
 601              		.section	.text.i2c_automatic_end_disable,"ax",@progbits
 602              		.align	1
 603              		.globl	i2c_automatic_end_disable
 605              	i2c_automatic_end_disable:
 606              	.LFB359:
 247:../Firmware/GD32VW55x_standard_peripheral/Source/gd32vw55x_i2c.c **** 
 248:../Firmware/GD32VW55x_standard_peripheral/Source/gd32vw55x_i2c.c **** /*!
 249:../Firmware/GD32VW55x_standard_peripheral/Source/gd32vw55x_i2c.c ****     \brief      disable I2C automatic end mode in master mode
 250:../Firmware/GD32VW55x_standard_peripheral/Source/gd32vw55x_i2c.c ****     \param[in]  i2c_periph: I2Cx(x=0,1)
 251:../Firmware/GD32VW55x_standard_peripheral/Source/gd32vw55x_i2c.c ****     \param[out] none
 252:../Firmware/GD32VW55x_standard_peripheral/Source/gd32vw55x_i2c.c ****     \retval     none
 253:../Firmware/GD32VW55x_standard_peripheral/Source/gd32vw55x_i2c.c **** */
 254:../Firmware/GD32VW55x_standard_peripheral/Source/gd32vw55x_i2c.c **** void i2c_automatic_end_disable(uint32_t i2c_periph)
 255:../Firmware/GD32VW55x_standard_peripheral/Source/gd32vw55x_i2c.c **** {
 607              		.loc 1 255 1
 608              		.cfi_startproc
 609 0000 0111     		addi	sp,sp,-32
 610              		.cfi_def_cfa_offset 32
 611 0002 22CE     		sw	s0,28(sp)
 612              		.cfi_offset 8, -4
 613 0004 0010     		addi	s0,sp,32
 614              		.cfi_def_cfa 8, 0
 615 0006 2326A4FE 		sw	a0,-20(s0)
 256:../Firmware/GD32VW55x_standard_peripheral/Source/gd32vw55x_i2c.c ****     I2C_CTL1(i2c_periph) &= ~I2C_CTL1_AUTOEND;
 616              		.loc 1 256 26
 617 000a 8327C4FE 		lw	a5,-20(s0)
 618 000e 9107     		addi	a5,a5,4
 619 0010 9843     		lw	a4,0(a5)
 620 0012 8327C4FE 		lw	a5,-20(s0)
 621 0016 9107     		addi	a5,a5,4
 622 0018 BE86     		mv	a3,a5
 623 001a B70700FE 		li	a5,-33554432
 624 001e FD17     		addi	a5,a5,-1
 625 0020 F98F     		and	a5,a4,a5
 626 0022 9CC2     		sw	a5,0(a3)
 257:../Firmware/GD32VW55x_standard_peripheral/Source/gd32vw55x_i2c.c **** }
 627              		.loc 1 257 1
 628 0024 0100     		nop
 629 0026 7244     		lw	s0,28(sp)
 630              		.cfi_restore 8
 631              		.cfi_def_cfa 2, 32
 632 0028 0561     		addi	sp,sp,32
 633              		.cfi_def_cfa_offset 0
 634 002a 8280     		jr	ra
 635              		.cfi_endproc
 636              	.LFE359:
 638              		.section	.text.i2c_slave_response_to_gcall_enable,"ax",@progbits
 639              		.align	1
 640              		.globl	i2c_slave_response_to_gcall_enable
 642              	i2c_slave_response_to_gcall_enable:
 643              	.LFB360:
 258:../Firmware/GD32VW55x_standard_peripheral/Source/gd32vw55x_i2c.c **** 
 259:../Firmware/GD32VW55x_standard_peripheral/Source/gd32vw55x_i2c.c **** /*!
 260:../Firmware/GD32VW55x_standard_peripheral/Source/gd32vw55x_i2c.c ****     \brief      enable the response to a general call
 261:../Firmware/GD32VW55x_standard_peripheral/Source/gd32vw55x_i2c.c ****     \param[in]  i2c_periph: I2Cx(x=0,1)
 262:../Firmware/GD32VW55x_standard_peripheral/Source/gd32vw55x_i2c.c ****     \param[out] none
 263:../Firmware/GD32VW55x_standard_peripheral/Source/gd32vw55x_i2c.c ****     \retval     none
 264:../Firmware/GD32VW55x_standard_peripheral/Source/gd32vw55x_i2c.c **** */
 265:../Firmware/GD32VW55x_standard_peripheral/Source/gd32vw55x_i2c.c **** void i2c_slave_response_to_gcall_enable(uint32_t i2c_periph)
 266:../Firmware/GD32VW55x_standard_peripheral/Source/gd32vw55x_i2c.c **** {
 644              		.loc 1 266 1
 645              		.cfi_startproc
 646 0000 0111     		addi	sp,sp,-32
 647              		.cfi_def_cfa_offset 32
 648 0002 22CE     		sw	s0,28(sp)
 649              		.cfi_offset 8, -4
 650 0004 0010     		addi	s0,sp,32
 651              		.cfi_def_cfa 8, 0
 652 0006 2326A4FE 		sw	a0,-20(s0)
 267:../Firmware/GD32VW55x_standard_peripheral/Source/gd32vw55x_i2c.c ****     I2C_CTL0(i2c_periph) |= I2C_CTL0_GCEN;
 653              		.loc 1 267 26
 654 000a 8327C4FE 		lw	a5,-20(s0)
 655 000e 9443     		lw	a3,0(a5)
 656 0010 8327C4FE 		lw	a5,-20(s0)
 657 0014 37070800 		li	a4,524288
 658 0018 558F     		or	a4,a3,a4
 659 001a 98C3     		sw	a4,0(a5)
 268:../Firmware/GD32VW55x_standard_peripheral/Source/gd32vw55x_i2c.c **** }
 660              		.loc 1 268 1
 661 001c 0100     		nop
 662 001e 7244     		lw	s0,28(sp)
 663              		.cfi_restore 8
 664              		.cfi_def_cfa 2, 32
 665 0020 0561     		addi	sp,sp,32
 666              		.cfi_def_cfa_offset 0
 667 0022 8280     		jr	ra
 668              		.cfi_endproc
 669              	.LFE360:
 671              		.section	.text.i2c_slave_response_to_gcall_disable,"ax",@progbits
 672              		.align	1
 673              		.globl	i2c_slave_response_to_gcall_disable
 675              	i2c_slave_response_to_gcall_disable:
 676              	.LFB361:
 269:../Firmware/GD32VW55x_standard_peripheral/Source/gd32vw55x_i2c.c **** 
 270:../Firmware/GD32VW55x_standard_peripheral/Source/gd32vw55x_i2c.c **** /*!
 271:../Firmware/GD32VW55x_standard_peripheral/Source/gd32vw55x_i2c.c ****     \brief      disable the response to a general call
 272:../Firmware/GD32VW55x_standard_peripheral/Source/gd32vw55x_i2c.c ****     \param[in]  i2c_periph: I2Cx(x=0,1)
 273:../Firmware/GD32VW55x_standard_peripheral/Source/gd32vw55x_i2c.c ****     \param[out] none
 274:../Firmware/GD32VW55x_standard_peripheral/Source/gd32vw55x_i2c.c ****     \retval     none
 275:../Firmware/GD32VW55x_standard_peripheral/Source/gd32vw55x_i2c.c **** */
 276:../Firmware/GD32VW55x_standard_peripheral/Source/gd32vw55x_i2c.c **** void i2c_slave_response_to_gcall_disable(uint32_t i2c_periph)
 277:../Firmware/GD32VW55x_standard_peripheral/Source/gd32vw55x_i2c.c **** {
 677              		.loc 1 277 1
 678              		.cfi_startproc
 679 0000 0111     		addi	sp,sp,-32
 680              		.cfi_def_cfa_offset 32
 681 0002 22CE     		sw	s0,28(sp)
 682              		.cfi_offset 8, -4
 683 0004 0010     		addi	s0,sp,32
 684              		.cfi_def_cfa 8, 0
 685 0006 2326A4FE 		sw	a0,-20(s0)
 278:../Firmware/GD32VW55x_standard_peripheral/Source/gd32vw55x_i2c.c ****     I2C_CTL0(i2c_periph) &= ~I2C_CTL0_GCEN;
 686              		.loc 1 278 26
 687 000a 8327C4FE 		lw	a5,-20(s0)
 688 000e 9443     		lw	a3,0(a5)
 689 0010 8327C4FE 		lw	a5,-20(s0)
 690 0014 3707F8FF 		li	a4,-524288
 691 0018 7D17     		addi	a4,a4,-1
 692 001a 758F     		and	a4,a3,a4
 693 001c 98C3     		sw	a4,0(a5)
 279:../Firmware/GD32VW55x_standard_peripheral/Source/gd32vw55x_i2c.c **** }
 694              		.loc 1 279 1
 695 001e 0100     		nop
 696 0020 7244     		lw	s0,28(sp)
 697              		.cfi_restore 8
 698              		.cfi_def_cfa 2, 32
 699 0022 0561     		addi	sp,sp,32
 700              		.cfi_def_cfa_offset 0
 701 0024 8280     		jr	ra
 702              		.cfi_endproc
 703              	.LFE361:
 705              		.section	.text.i2c_stretch_scl_low_enable,"ax",@progbits
 706              		.align	1
 707              		.globl	i2c_stretch_scl_low_enable
 709              	i2c_stretch_scl_low_enable:
 710              	.LFB362:
 280:../Firmware/GD32VW55x_standard_peripheral/Source/gd32vw55x_i2c.c **** 
 281:../Firmware/GD32VW55x_standard_peripheral/Source/gd32vw55x_i2c.c **** /*!
 282:../Firmware/GD32VW55x_standard_peripheral/Source/gd32vw55x_i2c.c ****     \brief      enable to stretch SCL low when data is not ready in slave mode
 283:../Firmware/GD32VW55x_standard_peripheral/Source/gd32vw55x_i2c.c ****     \param[in]  i2c_periph: I2Cx(x=0,1)
 284:../Firmware/GD32VW55x_standard_peripheral/Source/gd32vw55x_i2c.c ****     \param[out] none
 285:../Firmware/GD32VW55x_standard_peripheral/Source/gd32vw55x_i2c.c ****     \retval     none
 286:../Firmware/GD32VW55x_standard_peripheral/Source/gd32vw55x_i2c.c **** */
 287:../Firmware/GD32VW55x_standard_peripheral/Source/gd32vw55x_i2c.c **** void i2c_stretch_scl_low_enable(uint32_t i2c_periph)
 288:../Firmware/GD32VW55x_standard_peripheral/Source/gd32vw55x_i2c.c **** {
 711              		.loc 1 288 1
 712              		.cfi_startproc
 713 0000 0111     		addi	sp,sp,-32
 714              		.cfi_def_cfa_offset 32
 715 0002 22CE     		sw	s0,28(sp)
 716              		.cfi_offset 8, -4
 717 0004 0010     		addi	s0,sp,32
 718              		.cfi_def_cfa 8, 0
 719 0006 2326A4FE 		sw	a0,-20(s0)
 289:../Firmware/GD32VW55x_standard_peripheral/Source/gd32vw55x_i2c.c ****     I2C_CTL0(i2c_periph) &= ~I2C_CTL0_SS;
 720              		.loc 1 289 26
 721 000a 8327C4FE 		lw	a5,-20(s0)
 722 000e 9443     		lw	a3,0(a5)
 723 0010 8327C4FE 		lw	a5,-20(s0)
 724 0014 0177     		li	a4,-131072
 725 0016 7D17     		addi	a4,a4,-1
 726 0018 758F     		and	a4,a3,a4
 727 001a 98C3     		sw	a4,0(a5)
 290:../Firmware/GD32VW55x_standard_peripheral/Source/gd32vw55x_i2c.c **** }
 728              		.loc 1 290 1
 729 001c 0100     		nop
 730 001e 7244     		lw	s0,28(sp)
 731              		.cfi_restore 8
 732              		.cfi_def_cfa 2, 32
 733 0020 0561     		addi	sp,sp,32
 734              		.cfi_def_cfa_offset 0
 735 0022 8280     		jr	ra
 736              		.cfi_endproc
 737              	.LFE362:
 739              		.section	.text.i2c_stretch_scl_low_disable,"ax",@progbits
 740              		.align	1
 741              		.globl	i2c_stretch_scl_low_disable
 743              	i2c_stretch_scl_low_disable:
 744              	.LFB363:
 291:../Firmware/GD32VW55x_standard_peripheral/Source/gd32vw55x_i2c.c **** 
 292:../Firmware/GD32VW55x_standard_peripheral/Source/gd32vw55x_i2c.c **** /*!
 293:../Firmware/GD32VW55x_standard_peripheral/Source/gd32vw55x_i2c.c ****     \brief      disable to stretch SCL low when data is not ready in slave mode
 294:../Firmware/GD32VW55x_standard_peripheral/Source/gd32vw55x_i2c.c ****     \param[in]  i2c_periph: I2Cx(x=0,1)
 295:../Firmware/GD32VW55x_standard_peripheral/Source/gd32vw55x_i2c.c ****     \param[out] none
 296:../Firmware/GD32VW55x_standard_peripheral/Source/gd32vw55x_i2c.c ****     \retval     none
 297:../Firmware/GD32VW55x_standard_peripheral/Source/gd32vw55x_i2c.c **** */
 298:../Firmware/GD32VW55x_standard_peripheral/Source/gd32vw55x_i2c.c **** void i2c_stretch_scl_low_disable(uint32_t i2c_periph)
 299:../Firmware/GD32VW55x_standard_peripheral/Source/gd32vw55x_i2c.c **** {
 745              		.loc 1 299 1
 746              		.cfi_startproc
 747 0000 0111     		addi	sp,sp,-32
 748              		.cfi_def_cfa_offset 32
 749 0002 22CE     		sw	s0,28(sp)
 750              		.cfi_offset 8, -4
 751 0004 0010     		addi	s0,sp,32
 752              		.cfi_def_cfa 8, 0
 753 0006 2326A4FE 		sw	a0,-20(s0)
 300:../Firmware/GD32VW55x_standard_peripheral/Source/gd32vw55x_i2c.c ****     I2C_CTL0(i2c_periph) |= I2C_CTL0_SS;
 754              		.loc 1 300 26
 755 000a 8327C4FE 		lw	a5,-20(s0)
 756 000e 9443     		lw	a3,0(a5)
 757 0010 8327C4FE 		lw	a5,-20(s0)
 758 0014 37070200 		li	a4,131072
 759 0018 558F     		or	a4,a3,a4
 760 001a 98C3     		sw	a4,0(a5)
 301:../Firmware/GD32VW55x_standard_peripheral/Source/gd32vw55x_i2c.c **** }
 761              		.loc 1 301 1
 762 001c 0100     		nop
 763 001e 7244     		lw	s0,28(sp)
 764              		.cfi_restore 8
 765              		.cfi_def_cfa 2, 32
 766 0020 0561     		addi	sp,sp,32
 767              		.cfi_def_cfa_offset 0
 768 0022 8280     		jr	ra
 769              		.cfi_endproc
 770              	.LFE363:
 772              		.section	.text.i2c_address_config,"ax",@progbits
 773              		.align	1
 774              		.globl	i2c_address_config
 776              	i2c_address_config:
 777              	.LFB364:
 302:../Firmware/GD32VW55x_standard_peripheral/Source/gd32vw55x_i2c.c **** 
 303:../Firmware/GD32VW55x_standard_peripheral/Source/gd32vw55x_i2c.c **** /*!
 304:../Firmware/GD32VW55x_standard_peripheral/Source/gd32vw55x_i2c.c ****     \brief      configure I2C slave address
 305:../Firmware/GD32VW55x_standard_peripheral/Source/gd32vw55x_i2c.c ****     \param[in]  i2c_periph: I2Cx(x=0,1)
 306:../Firmware/GD32VW55x_standard_peripheral/Source/gd32vw55x_i2c.c ****     \param[in]  address: I2C address
 307:../Firmware/GD32VW55x_standard_peripheral/Source/gd32vw55x_i2c.c ****     \param[in]  addr_format: 7bits or 10bits
 308:../Firmware/GD32VW55x_standard_peripheral/Source/gd32vw55x_i2c.c ****                 only one parameter can be selected which is shown as below:
 309:../Firmware/GD32VW55x_standard_peripheral/Source/gd32vw55x_i2c.c ****       \arg        I2C_ADDFORMAT_7BITS: address format is 7 bits
 310:../Firmware/GD32VW55x_standard_peripheral/Source/gd32vw55x_i2c.c ****       \arg        I2C_ADDFORMAT_10BITS: address format is 10 bits
 311:../Firmware/GD32VW55x_standard_peripheral/Source/gd32vw55x_i2c.c ****     \param[out] none
 312:../Firmware/GD32VW55x_standard_peripheral/Source/gd32vw55x_i2c.c ****     \retval     none
 313:../Firmware/GD32VW55x_standard_peripheral/Source/gd32vw55x_i2c.c **** */
 314:../Firmware/GD32VW55x_standard_peripheral/Source/gd32vw55x_i2c.c **** void i2c_address_config(uint32_t i2c_periph, uint32_t address, uint32_t addr_format)
 315:../Firmware/GD32VW55x_standard_peripheral/Source/gd32vw55x_i2c.c **** {
 778              		.loc 1 315 1
 779              		.cfi_startproc
 780 0000 0111     		addi	sp,sp,-32
 781              		.cfi_def_cfa_offset 32
 782 0002 22CE     		sw	s0,28(sp)
 783              		.cfi_offset 8, -4
 784 0004 0010     		addi	s0,sp,32
 785              		.cfi_def_cfa 8, 0
 786 0006 2326A4FE 		sw	a0,-20(s0)
 787 000a 2324B4FE 		sw	a1,-24(s0)
 788 000e 2322C4FE 		sw	a2,-28(s0)
 316:../Firmware/GD32VW55x_standard_peripheral/Source/gd32vw55x_i2c.c ****     /* configure ADDRESS[7:1] and address format */
 317:../Firmware/GD32VW55x_standard_peripheral/Source/gd32vw55x_i2c.c ****     address = address & I2C_ADDRESS_MASK;
 789              		.loc 1 317 13
 790 0012 832784FE 		lw	a5,-24(s0)
 791 0016 93F7F73F 		andi	a5,a5,1023
 792 001a 2324F4FE 		sw	a5,-24(s0)
 318:../Firmware/GD32VW55x_standard_peripheral/Source/gd32vw55x_i2c.c ****     I2C_SADDR0(i2c_periph) = (addr_format | address);
 793              		.loc 1 318 5
 794 001e 8327C4FE 		lw	a5,-20(s0)
 795 0022 A107     		addi	a5,a5,8
 796 0024 BE86     		mv	a3,a5
 797              		.loc 1 318 43
 798 0026 032744FE 		lw	a4,-28(s0)
 799 002a 832784FE 		lw	a5,-24(s0)
 800 002e D98F     		or	a5,a4,a5
 801              		.loc 1 318 28
 802 0030 9CC2     		sw	a5,0(a3)
 319:../Firmware/GD32VW55x_standard_peripheral/Source/gd32vw55x_i2c.c ****     /* enable I2C address in slave mode */
 320:../Firmware/GD32VW55x_standard_peripheral/Source/gd32vw55x_i2c.c ****     I2C_SADDR0(i2c_periph) |= I2C_SADDR0_ADDRESSEN;
 803              		.loc 1 320 28
 804 0032 8327C4FE 		lw	a5,-20(s0)
 805 0036 A107     		addi	a5,a5,8
 806 0038 9843     		lw	a4,0(a5)
 807 003a 8327C4FE 		lw	a5,-20(s0)
 808 003e A107     		addi	a5,a5,8
 809 0040 BE86     		mv	a3,a5
 810 0042 A167     		li	a5,32768
 811 0044 D98F     		or	a5,a4,a5
 812 0046 9CC2     		sw	a5,0(a3)
 321:../Firmware/GD32VW55x_standard_peripheral/Source/gd32vw55x_i2c.c **** }
 813              		.loc 1 321 1
 814 0048 0100     		nop
 815 004a 7244     		lw	s0,28(sp)
 816              		.cfi_restore 8
 817              		.cfi_def_cfa 2, 32
 818 004c 0561     		addi	sp,sp,32
 819              		.cfi_def_cfa_offset 0
 820 004e 8280     		jr	ra
 821              		.cfi_endproc
 822              	.LFE364:
 824              		.section	.text.i2c_address_bit_compare_config,"ax",@progbits
 825              		.align	1
 826              		.globl	i2c_address_bit_compare_config
 828              	i2c_address_bit_compare_config:
 829              	.LFB365:
 322:../Firmware/GD32VW55x_standard_peripheral/Source/gd32vw55x_i2c.c **** 
 323:../Firmware/GD32VW55x_standard_peripheral/Source/gd32vw55x_i2c.c **** /*!
 324:../Firmware/GD32VW55x_standard_peripheral/Source/gd32vw55x_i2c.c ****     \brief      define which bits of ADDRESS[7:1] need to compare with the incoming address byte
 325:../Firmware/GD32VW55x_standard_peripheral/Source/gd32vw55x_i2c.c ****     \param[in]  i2c_periph: I2Cx(x=0,1)
 326:../Firmware/GD32VW55x_standard_peripheral/Source/gd32vw55x_i2c.c ****     \param[in]  compare_bits: the bits need to compare
 327:../Firmware/GD32VW55x_standard_peripheral/Source/gd32vw55x_i2c.c ****                 one or more parameters can be selected which are shown as below:
 328:../Firmware/GD32VW55x_standard_peripheral/Source/gd32vw55x_i2c.c ****                 ADDRESS_NO_BIT_COMPARE: all the address bits are masked
 329:../Firmware/GD32VW55x_standard_peripheral/Source/gd32vw55x_i2c.c ****                 ADDRESS_BIT1_COMPARE: address bit1 needs compare
 330:../Firmware/GD32VW55x_standard_peripheral/Source/gd32vw55x_i2c.c ****                 ADDRESS_BIT2_COMPARE: address bit2 needs compare
 331:../Firmware/GD32VW55x_standard_peripheral/Source/gd32vw55x_i2c.c ****                 ADDRESS_BIT3_COMPARE: address bit3 needs compare
 332:../Firmware/GD32VW55x_standard_peripheral/Source/gd32vw55x_i2c.c ****                 ADDRESS_BIT4_COMPARE: address bit4 needs compare
 333:../Firmware/GD32VW55x_standard_peripheral/Source/gd32vw55x_i2c.c ****                 ADDRESS_BIT5_COMPARE: address bit5 needs compare
 334:../Firmware/GD32VW55x_standard_peripheral/Source/gd32vw55x_i2c.c ****                 ADDRESS_BIT6_COMPARE: address bit6 needs compare
 335:../Firmware/GD32VW55x_standard_peripheral/Source/gd32vw55x_i2c.c ****                 ADDRESS_BIT7_COMPARE: address bit7 needs compare
 336:../Firmware/GD32VW55x_standard_peripheral/Source/gd32vw55x_i2c.c ****                 ADDRESS_ALL_BITS_COMPARE: all the bits must be compared
 337:../Firmware/GD32VW55x_standard_peripheral/Source/gd32vw55x_i2c.c ****     \param[out] none
 338:../Firmware/GD32VW55x_standard_peripheral/Source/gd32vw55x_i2c.c ****     \retval     none
 339:../Firmware/GD32VW55x_standard_peripheral/Source/gd32vw55x_i2c.c **** */
 340:../Firmware/GD32VW55x_standard_peripheral/Source/gd32vw55x_i2c.c **** void i2c_address_bit_compare_config(uint32_t i2c_periph, uint32_t compare_bits)
 341:../Firmware/GD32VW55x_standard_peripheral/Source/gd32vw55x_i2c.c **** {
 830              		.loc 1 341 1
 831              		.cfi_startproc
 832 0000 0111     		addi	sp,sp,-32
 833              		.cfi_def_cfa_offset 32
 834 0002 22CE     		sw	s0,28(sp)
 835              		.cfi_offset 8, -4
 836 0004 0010     		addi	s0,sp,32
 837              		.cfi_def_cfa 8, 0
 838 0006 2326A4FE 		sw	a0,-20(s0)
 839 000a 2324B4FE 		sw	a1,-24(s0)
 342:../Firmware/GD32VW55x_standard_peripheral/Source/gd32vw55x_i2c.c ****     I2C_CTL2(i2c_periph) &= ~I2C_CTL2_ADDM;
 840              		.loc 1 342 26
 841 000e 8327C4FE 		lw	a5,-20(s0)
 842 0012 93870709 		addi	a5,a5,144
 843 0016 9843     		lw	a4,0(a5)
 844 0018 8327C4FE 		lw	a5,-20(s0)
 845 001c 93870709 		addi	a5,a5,144
 846 0020 BE86     		mv	a3,a5
 847 0022 C177     		li	a5,-65536
 848 0024 9387F71F 		addi	a5,a5,511
 849 0028 F98F     		and	a5,a4,a5
 850 002a 9CC2     		sw	a5,0(a3)
 343:../Firmware/GD32VW55x_standard_peripheral/Source/gd32vw55x_i2c.c ****     I2C_CTL2(i2c_periph) |= compare_bits;
 851              		.loc 1 343 26
 852 002c 8327C4FE 		lw	a5,-20(s0)
 853 0030 93870709 		addi	a5,a5,144
 854 0034 9843     		lw	a4,0(a5)
 855 0036 8327C4FE 		lw	a5,-20(s0)
 856 003a 93870709 		addi	a5,a5,144
 857 003e BE86     		mv	a3,a5
 858 0040 832784FE 		lw	a5,-24(s0)
 859 0044 D98F     		or	a5,a4,a5
 860 0046 9CC2     		sw	a5,0(a3)
 344:../Firmware/GD32VW55x_standard_peripheral/Source/gd32vw55x_i2c.c **** }
 861              		.loc 1 344 1
 862 0048 0100     		nop
 863 004a 7244     		lw	s0,28(sp)
 864              		.cfi_restore 8
 865              		.cfi_def_cfa 2, 32
 866 004c 0561     		addi	sp,sp,32
 867              		.cfi_def_cfa_offset 0
 868 004e 8280     		jr	ra
 869              		.cfi_endproc
 870              	.LFE365:
 872              		.section	.text.i2c_address_disable,"ax",@progbits
 873              		.align	1
 874              		.globl	i2c_address_disable
 876              	i2c_address_disable:
 877              	.LFB366:
 345:../Firmware/GD32VW55x_standard_peripheral/Source/gd32vw55x_i2c.c **** 
 346:../Firmware/GD32VW55x_standard_peripheral/Source/gd32vw55x_i2c.c **** /*!
 347:../Firmware/GD32VW55x_standard_peripheral/Source/gd32vw55x_i2c.c ****     \brief      disable I2C address in slave mode
 348:../Firmware/GD32VW55x_standard_peripheral/Source/gd32vw55x_i2c.c ****     \param[in]  i2c_periph: I2Cx(x=0,1)
 349:../Firmware/GD32VW55x_standard_peripheral/Source/gd32vw55x_i2c.c ****     \param[out] none
 350:../Firmware/GD32VW55x_standard_peripheral/Source/gd32vw55x_i2c.c ****     \retval     none
 351:../Firmware/GD32VW55x_standard_peripheral/Source/gd32vw55x_i2c.c **** */
 352:../Firmware/GD32VW55x_standard_peripheral/Source/gd32vw55x_i2c.c **** void i2c_address_disable(uint32_t i2c_periph)
 353:../Firmware/GD32VW55x_standard_peripheral/Source/gd32vw55x_i2c.c **** {
 878              		.loc 1 353 1
 879              		.cfi_startproc
 880 0000 0111     		addi	sp,sp,-32
 881              		.cfi_def_cfa_offset 32
 882 0002 22CE     		sw	s0,28(sp)
 883              		.cfi_offset 8, -4
 884 0004 0010     		addi	s0,sp,32
 885              		.cfi_def_cfa 8, 0
 886 0006 2326A4FE 		sw	a0,-20(s0)
 354:../Firmware/GD32VW55x_standard_peripheral/Source/gd32vw55x_i2c.c ****     I2C_SADDR0(i2c_periph) &= ~I2C_SADDR0_ADDRESSEN;
 887              		.loc 1 354 28
 888 000a 8327C4FE 		lw	a5,-20(s0)
 889 000e A107     		addi	a5,a5,8
 890 0010 9843     		lw	a4,0(a5)
 891 0012 8327C4FE 		lw	a5,-20(s0)
 892 0016 A107     		addi	a5,a5,8
 893 0018 BE86     		mv	a3,a5
 894 001a E177     		li	a5,-32768
 895 001c FD17     		addi	a5,a5,-1
 896 001e F98F     		and	a5,a4,a5
 897 0020 9CC2     		sw	a5,0(a3)
 355:../Firmware/GD32VW55x_standard_peripheral/Source/gd32vw55x_i2c.c **** }
 898              		.loc 1 355 1
 899 0022 0100     		nop
 900 0024 7244     		lw	s0,28(sp)
 901              		.cfi_restore 8
 902              		.cfi_def_cfa 2, 32
 903 0026 0561     		addi	sp,sp,32
 904              		.cfi_def_cfa_offset 0
 905 0028 8280     		jr	ra
 906              		.cfi_endproc
 907              	.LFE366:
 909              		.section	.text.i2c_second_address_config,"ax",@progbits
 910              		.align	1
 911              		.globl	i2c_second_address_config
 913              	i2c_second_address_config:
 914              	.LFB367:
 356:../Firmware/GD32VW55x_standard_peripheral/Source/gd32vw55x_i2c.c **** 
 357:../Firmware/GD32VW55x_standard_peripheral/Source/gd32vw55x_i2c.c **** /*!
 358:../Firmware/GD32VW55x_standard_peripheral/Source/gd32vw55x_i2c.c ****     \brief      configure I2C second slave address
 359:../Firmware/GD32VW55x_standard_peripheral/Source/gd32vw55x_i2c.c ****     \param[in]  i2c_periph: I2Cx(x=0,1)
 360:../Firmware/GD32VW55x_standard_peripheral/Source/gd32vw55x_i2c.c ****     \param[in]  address: I2C address
 361:../Firmware/GD32VW55x_standard_peripheral/Source/gd32vw55x_i2c.c ****     \param[in]  addr_mask: the bits not need to compare
 362:../Firmware/GD32VW55x_standard_peripheral/Source/gd32vw55x_i2c.c ****                 one or more parameters can be selected which are shown as below:
 363:../Firmware/GD32VW55x_standard_peripheral/Source/gd32vw55x_i2c.c ****       \arg        ADDRESS2_NO_MASK: no mask, all the bits must be compared
 364:../Firmware/GD32VW55x_standard_peripheral/Source/gd32vw55x_i2c.c ****       \arg        ADDRESS2_MASK_BIT1: ADDRESS2[1] is masked, only ADDRESS2[7:2] are compared
 365:../Firmware/GD32VW55x_standard_peripheral/Source/gd32vw55x_i2c.c ****       \arg        ADDRESS2_MASK_BIT1_2: ADDRESS2[2:1] is masked, only ADDRESS2[7:3] are compared
 366:../Firmware/GD32VW55x_standard_peripheral/Source/gd32vw55x_i2c.c ****       \arg        ADDRESS2_MASK_BIT1_3: ADDRESS2[3:1] is masked, only ADDRESS2[7:4] are compared
 367:../Firmware/GD32VW55x_standard_peripheral/Source/gd32vw55x_i2c.c ****       \arg        ADDRESS2_MASK_BIT1_4: ADDRESS2[4:1] is masked, only ADDRESS2[7:5] are compared
 368:../Firmware/GD32VW55x_standard_peripheral/Source/gd32vw55x_i2c.c ****       \arg        ADDRESS2_MASK_BIT1_5: ADDRESS2[5:1] is masked, only ADDRESS2[7:6] are compared
 369:../Firmware/GD32VW55x_standard_peripheral/Source/gd32vw55x_i2c.c ****       \arg        ADDRESS2_MASK_BIT1_6: ADDRESS2[6:1] is masked, only ADDRESS2[7] are compared
 370:../Firmware/GD32VW55x_standard_peripheral/Source/gd32vw55x_i2c.c ****       \arg        ADDRESS2_MASK_ALL: all the ADDRESS2[7:1] bits are masked
 371:../Firmware/GD32VW55x_standard_peripheral/Source/gd32vw55x_i2c.c ****     \param[out] none
 372:../Firmware/GD32VW55x_standard_peripheral/Source/gd32vw55x_i2c.c ****     \retval     none
 373:../Firmware/GD32VW55x_standard_peripheral/Source/gd32vw55x_i2c.c **** */
 374:../Firmware/GD32VW55x_standard_peripheral/Source/gd32vw55x_i2c.c **** void i2c_second_address_config(uint32_t i2c_periph, uint32_t address, uint32_t addr_mask)
 375:../Firmware/GD32VW55x_standard_peripheral/Source/gd32vw55x_i2c.c **** {
 915              		.loc 1 375 1
 916              		.cfi_startproc
 917 0000 0111     		addi	sp,sp,-32
 918              		.cfi_def_cfa_offset 32
 919 0002 22CE     		sw	s0,28(sp)
 920              		.cfi_offset 8, -4
 921 0004 0010     		addi	s0,sp,32
 922              		.cfi_def_cfa 8, 0
 923 0006 2326A4FE 		sw	a0,-20(s0)
 924 000a 2324B4FE 		sw	a1,-24(s0)
 925 000e 2322C4FE 		sw	a2,-28(s0)
 376:../Firmware/GD32VW55x_standard_peripheral/Source/gd32vw55x_i2c.c ****     /* configure ADDRESS2[7:1] */
 377:../Firmware/GD32VW55x_standard_peripheral/Source/gd32vw55x_i2c.c ****     address = address & I2C_ADDRESS2_MASK;
 926              		.loc 1 377 13
 927 0012 832784FE 		lw	a5,-24(s0)
 928 0016 93F7E70F 		andi	a5,a5,254
 929 001a 2324F4FE 		sw	a5,-24(s0)
 378:../Firmware/GD32VW55x_standard_peripheral/Source/gd32vw55x_i2c.c ****     I2C_SADDR1(i2c_periph) |= address;
 930              		.loc 1 378 28
 931 001e 8327C4FE 		lw	a5,-20(s0)
 932 0022 B107     		addi	a5,a5,12
 933 0024 9843     		lw	a4,0(a5)
 934 0026 8327C4FE 		lw	a5,-20(s0)
 935 002a B107     		addi	a5,a5,12
 936 002c BE86     		mv	a3,a5
 937 002e 832784FE 		lw	a5,-24(s0)
 938 0032 D98F     		or	a5,a4,a5
 939 0034 9CC2     		sw	a5,0(a3)
 379:../Firmware/GD32VW55x_standard_peripheral/Source/gd32vw55x_i2c.c ****     /* configure ADDRESS2[7:1] mask */
 380:../Firmware/GD32VW55x_standard_peripheral/Source/gd32vw55x_i2c.c ****     I2C_SADDR1(i2c_periph) &= ~I2C_SADDR1_ADDMSK2;
 940              		.loc 1 380 28
 941 0036 8327C4FE 		lw	a5,-20(s0)
 942 003a B107     		addi	a5,a5,12
 943 003c 9C43     		lw	a5,0(a5)
 944 003e 0327C4FE 		lw	a4,-20(s0)
 945 0042 3107     		addi	a4,a4,12
 946 0044 93F7F78F 		andi	a5,a5,-1793
 947 0048 1CC3     		sw	a5,0(a4)
 381:../Firmware/GD32VW55x_standard_peripheral/Source/gd32vw55x_i2c.c ****     I2C_SADDR1(i2c_periph) |= (uint32_t)(addr_mask << SADDR1_ADDMSK_OFFSET);
 948              		.loc 1 381 28
 949 004a 8327C4FE 		lw	a5,-20(s0)
 950 004e B107     		addi	a5,a5,12
 951 0050 9843     		lw	a4,0(a5)
 952              		.loc 1 381 52
 953 0052 832744FE 		lw	a5,-28(s0)
 954 0056 A207     		slli	a5,a5,8
 955              		.loc 1 381 28
 956 0058 8326C4FE 		lw	a3,-20(s0)
 957 005c B106     		addi	a3,a3,12
 958 005e D98F     		or	a5,a4,a5
 959 0060 9CC2     		sw	a5,0(a3)
 382:../Firmware/GD32VW55x_standard_peripheral/Source/gd32vw55x_i2c.c ****     /* enable i2c second address in slave mode */
 383:../Firmware/GD32VW55x_standard_peripheral/Source/gd32vw55x_i2c.c ****     I2C_SADDR1(i2c_periph) |= I2C_SADDR1_ADDRESS2EN;
 960              		.loc 1 383 28
 961 0062 8327C4FE 		lw	a5,-20(s0)
 962 0066 B107     		addi	a5,a5,12
 963 0068 9843     		lw	a4,0(a5)
 964 006a 8327C4FE 		lw	a5,-20(s0)
 965 006e B107     		addi	a5,a5,12
 966 0070 BE86     		mv	a3,a5
 967 0072 A167     		li	a5,32768
 968 0074 D98F     		or	a5,a4,a5
 969 0076 9CC2     		sw	a5,0(a3)
 384:../Firmware/GD32VW55x_standard_peripheral/Source/gd32vw55x_i2c.c **** }
 970              		.loc 1 384 1
 971 0078 0100     		nop
 972 007a 7244     		lw	s0,28(sp)
 973              		.cfi_restore 8
 974              		.cfi_def_cfa 2, 32
 975 007c 0561     		addi	sp,sp,32
 976              		.cfi_def_cfa_offset 0
 977 007e 8280     		jr	ra
 978              		.cfi_endproc
 979              	.LFE367:
 981              		.section	.text.i2c_second_address_disable,"ax",@progbits
 982              		.align	1
 983              		.globl	i2c_second_address_disable
 985              	i2c_second_address_disable:
 986              	.LFB368:
 385:../Firmware/GD32VW55x_standard_peripheral/Source/gd32vw55x_i2c.c **** 
 386:../Firmware/GD32VW55x_standard_peripheral/Source/gd32vw55x_i2c.c **** /*!
 387:../Firmware/GD32VW55x_standard_peripheral/Source/gd32vw55x_i2c.c ****     \brief      disable I2C second address in slave mode
 388:../Firmware/GD32VW55x_standard_peripheral/Source/gd32vw55x_i2c.c ****     \param[in]  i2c_periph: I2Cx(x=0,1)
 389:../Firmware/GD32VW55x_standard_peripheral/Source/gd32vw55x_i2c.c ****     \param[out] none
 390:../Firmware/GD32VW55x_standard_peripheral/Source/gd32vw55x_i2c.c ****     \retval     none
 391:../Firmware/GD32VW55x_standard_peripheral/Source/gd32vw55x_i2c.c **** */
 392:../Firmware/GD32VW55x_standard_peripheral/Source/gd32vw55x_i2c.c **** void i2c_second_address_disable(uint32_t i2c_periph)
 393:../Firmware/GD32VW55x_standard_peripheral/Source/gd32vw55x_i2c.c **** {
 987              		.loc 1 393 1
 988              		.cfi_startproc
 989 0000 0111     		addi	sp,sp,-32
 990              		.cfi_def_cfa_offset 32
 991 0002 22CE     		sw	s0,28(sp)
 992              		.cfi_offset 8, -4
 993 0004 0010     		addi	s0,sp,32
 994              		.cfi_def_cfa 8, 0
 995 0006 2326A4FE 		sw	a0,-20(s0)
 394:../Firmware/GD32VW55x_standard_peripheral/Source/gd32vw55x_i2c.c ****     I2C_SADDR1(i2c_periph) &= ~I2C_SADDR1_ADDRESS2EN;
 996              		.loc 1 394 28
 997 000a 8327C4FE 		lw	a5,-20(s0)
 998 000e B107     		addi	a5,a5,12
 999 0010 9843     		lw	a4,0(a5)
 1000 0012 8327C4FE 		lw	a5,-20(s0)
 1001 0016 B107     		addi	a5,a5,12
 1002 0018 BE86     		mv	a3,a5
 1003 001a E177     		li	a5,-32768
 1004 001c FD17     		addi	a5,a5,-1
 1005 001e F98F     		and	a5,a4,a5
 1006 0020 9CC2     		sw	a5,0(a3)
 395:../Firmware/GD32VW55x_standard_peripheral/Source/gd32vw55x_i2c.c **** }
 1007              		.loc 1 395 1
 1008 0022 0100     		nop
 1009 0024 7244     		lw	s0,28(sp)
 1010              		.cfi_restore 8
 1011              		.cfi_def_cfa 2, 32
 1012 0026 0561     		addi	sp,sp,32
 1013              		.cfi_def_cfa_offset 0
 1014 0028 8280     		jr	ra
 1015              		.cfi_endproc
 1016              	.LFE368:
 1018              		.section	.text.i2c_recevied_address_get,"ax",@progbits
 1019              		.align	1
 1020              		.globl	i2c_recevied_address_get
 1022              	i2c_recevied_address_get:
 1023              	.LFB369:
 396:../Firmware/GD32VW55x_standard_peripheral/Source/gd32vw55x_i2c.c **** 
 397:../Firmware/GD32VW55x_standard_peripheral/Source/gd32vw55x_i2c.c **** /*!
 398:../Firmware/GD32VW55x_standard_peripheral/Source/gd32vw55x_i2c.c ****     \brief      get received match address in slave mode
 399:../Firmware/GD32VW55x_standard_peripheral/Source/gd32vw55x_i2c.c ****     \param[in]  i2c_periph: I2Cx(x=0,1)
 400:../Firmware/GD32VW55x_standard_peripheral/Source/gd32vw55x_i2c.c ****     \param[out] none
 401:../Firmware/GD32VW55x_standard_peripheral/Source/gd32vw55x_i2c.c ****     \retval     received match address
 402:../Firmware/GD32VW55x_standard_peripheral/Source/gd32vw55x_i2c.c **** */
 403:../Firmware/GD32VW55x_standard_peripheral/Source/gd32vw55x_i2c.c **** uint32_t i2c_recevied_address_get(uint32_t i2c_periph)
 404:../Firmware/GD32VW55x_standard_peripheral/Source/gd32vw55x_i2c.c **** {
 1024              		.loc 1 404 1
 1025              		.cfi_startproc
 1026 0000 0111     		addi	sp,sp,-32
 1027              		.cfi_def_cfa_offset 32
 1028 0002 22CE     		sw	s0,28(sp)
 1029              		.cfi_offset 8, -4
 1030 0004 0010     		addi	s0,sp,32
 1031              		.cfi_def_cfa 8, 0
 1032 0006 2326A4FE 		sw	a0,-20(s0)
 405:../Firmware/GD32VW55x_standard_peripheral/Source/gd32vw55x_i2c.c ****     return (uint32_t)((I2C_STAT(i2c_periph) & I2C_STAT_READDR) >> STAT_READDR_OFFSET);
 1033              		.loc 1 405 24
 1034 000a 8327C4FE 		lw	a5,-20(s0)
 1035 000e E107     		addi	a5,a5,24
 1036 0010 9C43     		lw	a5,0(a5)
 1037              		.loc 1 405 12
 1038 0012 C583     		srli	a5,a5,17
 1039 0014 93F7F707 		andi	a5,a5,127
 406:../Firmware/GD32VW55x_standard_peripheral/Source/gd32vw55x_i2c.c **** }
 1040              		.loc 1 406 1
 1041 0018 3E85     		mv	a0,a5
 1042 001a 7244     		lw	s0,28(sp)
 1043              		.cfi_restore 8
 1044              		.cfi_def_cfa 2, 32
 1045 001c 0561     		addi	sp,sp,32
 1046              		.cfi_def_cfa_offset 0
 1047 001e 8280     		jr	ra
 1048              		.cfi_endproc
 1049              	.LFE369:
 1051              		.section	.text.i2c_slave_byte_control_enable,"ax",@progbits
 1052              		.align	1
 1053              		.globl	i2c_slave_byte_control_enable
 1055              	i2c_slave_byte_control_enable:
 1056              	.LFB370:
 407:../Firmware/GD32VW55x_standard_peripheral/Source/gd32vw55x_i2c.c **** 
 408:../Firmware/GD32VW55x_standard_peripheral/Source/gd32vw55x_i2c.c **** /*!
 409:../Firmware/GD32VW55x_standard_peripheral/Source/gd32vw55x_i2c.c ****     \brief      enable slave byte control
 410:../Firmware/GD32VW55x_standard_peripheral/Source/gd32vw55x_i2c.c ****     \param[in]  i2c_periph: I2Cx(x=0,1)
 411:../Firmware/GD32VW55x_standard_peripheral/Source/gd32vw55x_i2c.c ****     \param[out] none
 412:../Firmware/GD32VW55x_standard_peripheral/Source/gd32vw55x_i2c.c ****     \retval     none
 413:../Firmware/GD32VW55x_standard_peripheral/Source/gd32vw55x_i2c.c **** */
 414:../Firmware/GD32VW55x_standard_peripheral/Source/gd32vw55x_i2c.c **** void i2c_slave_byte_control_enable(uint32_t i2c_periph)
 415:../Firmware/GD32VW55x_standard_peripheral/Source/gd32vw55x_i2c.c **** {
 1057              		.loc 1 415 1
 1058              		.cfi_startproc
 1059 0000 0111     		addi	sp,sp,-32
 1060              		.cfi_def_cfa_offset 32
 1061 0002 22CE     		sw	s0,28(sp)
 1062              		.cfi_offset 8, -4
 1063 0004 0010     		addi	s0,sp,32
 1064              		.cfi_def_cfa 8, 0
 1065 0006 2326A4FE 		sw	a0,-20(s0)
 416:../Firmware/GD32VW55x_standard_peripheral/Source/gd32vw55x_i2c.c ****     I2C_CTL0(i2c_periph) |= I2C_CTL0_SBCTL;
 1066              		.loc 1 416 26
 1067 000a 8327C4FE 		lw	a5,-20(s0)
 1068 000e 9443     		lw	a3,0(a5)
 1069 0010 8327C4FE 		lw	a5,-20(s0)
 1070 0014 4167     		li	a4,65536
 1071 0016 558F     		or	a4,a3,a4
 1072 0018 98C3     		sw	a4,0(a5)
 417:../Firmware/GD32VW55x_standard_peripheral/Source/gd32vw55x_i2c.c **** }
 1073              		.loc 1 417 1
 1074 001a 0100     		nop
 1075 001c 7244     		lw	s0,28(sp)
 1076              		.cfi_restore 8
 1077              		.cfi_def_cfa 2, 32
 1078 001e 0561     		addi	sp,sp,32
 1079              		.cfi_def_cfa_offset 0
 1080 0020 8280     		jr	ra
 1081              		.cfi_endproc
 1082              	.LFE370:
 1084              		.section	.text.i2c_slave_byte_control_disable,"ax",@progbits
 1085              		.align	1
 1086              		.globl	i2c_slave_byte_control_disable
 1088              	i2c_slave_byte_control_disable:
 1089              	.LFB371:
 418:../Firmware/GD32VW55x_standard_peripheral/Source/gd32vw55x_i2c.c **** 
 419:../Firmware/GD32VW55x_standard_peripheral/Source/gd32vw55x_i2c.c **** /*!
 420:../Firmware/GD32VW55x_standard_peripheral/Source/gd32vw55x_i2c.c ****     \brief      disable slave byte control
 421:../Firmware/GD32VW55x_standard_peripheral/Source/gd32vw55x_i2c.c ****     \param[in]  i2c_periph: I2Cx(x=0,1)
 422:../Firmware/GD32VW55x_standard_peripheral/Source/gd32vw55x_i2c.c ****     \param[out] none
 423:../Firmware/GD32VW55x_standard_peripheral/Source/gd32vw55x_i2c.c ****     \retval     none
 424:../Firmware/GD32VW55x_standard_peripheral/Source/gd32vw55x_i2c.c **** */
 425:../Firmware/GD32VW55x_standard_peripheral/Source/gd32vw55x_i2c.c **** void i2c_slave_byte_control_disable(uint32_t i2c_periph)
 426:../Firmware/GD32VW55x_standard_peripheral/Source/gd32vw55x_i2c.c **** {
 1090              		.loc 1 426 1
 1091              		.cfi_startproc
 1092 0000 0111     		addi	sp,sp,-32
 1093              		.cfi_def_cfa_offset 32
 1094 0002 22CE     		sw	s0,28(sp)
 1095              		.cfi_offset 8, -4
 1096 0004 0010     		addi	s0,sp,32
 1097              		.cfi_def_cfa 8, 0
 1098 0006 2326A4FE 		sw	a0,-20(s0)
 427:../Firmware/GD32VW55x_standard_peripheral/Source/gd32vw55x_i2c.c ****     I2C_CTL0(i2c_periph) &= ~I2C_CTL0_SBCTL;
 1099              		.loc 1 427 26
 1100 000a 8327C4FE 		lw	a5,-20(s0)
 1101 000e 9443     		lw	a3,0(a5)
 1102 0010 8327C4FE 		lw	a5,-20(s0)
 1103 0014 4177     		li	a4,-65536
 1104 0016 7D17     		addi	a4,a4,-1
 1105 0018 758F     		and	a4,a3,a4
 1106 001a 98C3     		sw	a4,0(a5)
 428:../Firmware/GD32VW55x_standard_peripheral/Source/gd32vw55x_i2c.c **** }
 1107              		.loc 1 428 1
 1108 001c 0100     		nop
 1109 001e 7244     		lw	s0,28(sp)
 1110              		.cfi_restore 8
 1111              		.cfi_def_cfa 2, 32
 1112 0020 0561     		addi	sp,sp,32
 1113              		.cfi_def_cfa_offset 0
 1114 0022 8280     		jr	ra
 1115              		.cfi_endproc
 1116              	.LFE371:
 1118              		.section	.text.i2c_nack_enable,"ax",@progbits
 1119              		.align	1
 1120              		.globl	i2c_nack_enable
 1122              	i2c_nack_enable:
 1123              	.LFB372:
 429:../Firmware/GD32VW55x_standard_peripheral/Source/gd32vw55x_i2c.c **** 
 430:../Firmware/GD32VW55x_standard_peripheral/Source/gd32vw55x_i2c.c **** /*!
 431:../Firmware/GD32VW55x_standard_peripheral/Source/gd32vw55x_i2c.c ****     \brief      generate a NACK in slave mode
 432:../Firmware/GD32VW55x_standard_peripheral/Source/gd32vw55x_i2c.c ****     \param[in]  i2c_periph: I2Cx(x=0,1)
 433:../Firmware/GD32VW55x_standard_peripheral/Source/gd32vw55x_i2c.c ****     \param[out] none
 434:../Firmware/GD32VW55x_standard_peripheral/Source/gd32vw55x_i2c.c ****     \retval     none
 435:../Firmware/GD32VW55x_standard_peripheral/Source/gd32vw55x_i2c.c **** */
 436:../Firmware/GD32VW55x_standard_peripheral/Source/gd32vw55x_i2c.c **** void i2c_nack_enable(uint32_t i2c_periph)
 437:../Firmware/GD32VW55x_standard_peripheral/Source/gd32vw55x_i2c.c **** {
 1124              		.loc 1 437 1
 1125              		.cfi_startproc
 1126 0000 0111     		addi	sp,sp,-32
 1127              		.cfi_def_cfa_offset 32
 1128 0002 22CE     		sw	s0,28(sp)
 1129              		.cfi_offset 8, -4
 1130 0004 0010     		addi	s0,sp,32
 1131              		.cfi_def_cfa 8, 0
 1132 0006 2326A4FE 		sw	a0,-20(s0)
 438:../Firmware/GD32VW55x_standard_peripheral/Source/gd32vw55x_i2c.c ****     I2C_CTL1(i2c_periph) |= I2C_CTL1_NACKEN;
 1133              		.loc 1 438 26
 1134 000a 8327C4FE 		lw	a5,-20(s0)
 1135 000e 9107     		addi	a5,a5,4
 1136 0010 9843     		lw	a4,0(a5)
 1137 0012 8327C4FE 		lw	a5,-20(s0)
 1138 0016 9107     		addi	a5,a5,4
 1139 0018 BE86     		mv	a3,a5
 1140 001a A167     		li	a5,32768
 1141 001c D98F     		or	a5,a4,a5
 1142 001e 9CC2     		sw	a5,0(a3)
 439:../Firmware/GD32VW55x_standard_peripheral/Source/gd32vw55x_i2c.c **** }
 1143              		.loc 1 439 1
 1144 0020 0100     		nop
 1145 0022 7244     		lw	s0,28(sp)
 1146              		.cfi_restore 8
 1147              		.cfi_def_cfa 2, 32
 1148 0024 0561     		addi	sp,sp,32
 1149              		.cfi_def_cfa_offset 0
 1150 0026 8280     		jr	ra
 1151              		.cfi_endproc
 1152              	.LFE372:
 1154              		.section	.text.i2c_nack_disable,"ax",@progbits
 1155              		.align	1
 1156              		.globl	i2c_nack_disable
 1158              	i2c_nack_disable:
 1159              	.LFB373:
 440:../Firmware/GD32VW55x_standard_peripheral/Source/gd32vw55x_i2c.c **** 
 441:../Firmware/GD32VW55x_standard_peripheral/Source/gd32vw55x_i2c.c **** /*!
 442:../Firmware/GD32VW55x_standard_peripheral/Source/gd32vw55x_i2c.c ****     \brief      generate an ACK in slave mode
 443:../Firmware/GD32VW55x_standard_peripheral/Source/gd32vw55x_i2c.c ****     \param[in]  i2c_periph: I2Cx(x=0,1)
 444:../Firmware/GD32VW55x_standard_peripheral/Source/gd32vw55x_i2c.c ****     \param[out] none
 445:../Firmware/GD32VW55x_standard_peripheral/Source/gd32vw55x_i2c.c ****     \retval     none
 446:../Firmware/GD32VW55x_standard_peripheral/Source/gd32vw55x_i2c.c **** */
 447:../Firmware/GD32VW55x_standard_peripheral/Source/gd32vw55x_i2c.c **** void i2c_nack_disable(uint32_t i2c_periph)
 448:../Firmware/GD32VW55x_standard_peripheral/Source/gd32vw55x_i2c.c **** {
 1160              		.loc 1 448 1
 1161              		.cfi_startproc
 1162 0000 0111     		addi	sp,sp,-32
 1163              		.cfi_def_cfa_offset 32
 1164 0002 22CE     		sw	s0,28(sp)
 1165              		.cfi_offset 8, -4
 1166 0004 0010     		addi	s0,sp,32
 1167              		.cfi_def_cfa 8, 0
 1168 0006 2326A4FE 		sw	a0,-20(s0)
 449:../Firmware/GD32VW55x_standard_peripheral/Source/gd32vw55x_i2c.c ****     I2C_CTL1(i2c_periph) &= ~I2C_CTL1_NACKEN;
 1169              		.loc 1 449 26
 1170 000a 8327C4FE 		lw	a5,-20(s0)
 1171 000e 9107     		addi	a5,a5,4
 1172 0010 9843     		lw	a4,0(a5)
 1173 0012 8327C4FE 		lw	a5,-20(s0)
 1174 0016 9107     		addi	a5,a5,4
 1175 0018 BE86     		mv	a3,a5
 1176 001a E177     		li	a5,-32768
 1177 001c FD17     		addi	a5,a5,-1
 1178 001e F98F     		and	a5,a4,a5
 1179 0020 9CC2     		sw	a5,0(a3)
 450:../Firmware/GD32VW55x_standard_peripheral/Source/gd32vw55x_i2c.c **** }
 1180              		.loc 1 450 1
 1181 0022 0100     		nop
 1182 0024 7244     		lw	s0,28(sp)
 1183              		.cfi_restore 8
 1184              		.cfi_def_cfa 2, 32
 1185 0026 0561     		addi	sp,sp,32
 1186              		.cfi_def_cfa_offset 0
 1187 0028 8280     		jr	ra
 1188              		.cfi_endproc
 1189              	.LFE373:
 1191              		.section	.text.i2c_wakeup_from_deepsleep_enable,"ax",@progbits
 1192              		.align	1
 1193              		.globl	i2c_wakeup_from_deepsleep_enable
 1195              	i2c_wakeup_from_deepsleep_enable:
 1196              	.LFB374:
 451:../Firmware/GD32VW55x_standard_peripheral/Source/gd32vw55x_i2c.c **** 
 452:../Firmware/GD32VW55x_standard_peripheral/Source/gd32vw55x_i2c.c **** /*!
 453:../Firmware/GD32VW55x_standard_peripheral/Source/gd32vw55x_i2c.c ****     \brief      enable wakeup from deep-sleep mode
 454:../Firmware/GD32VW55x_standard_peripheral/Source/gd32vw55x_i2c.c ****     \param[in]  i2c_periph: I2Cx(x=0)
 455:../Firmware/GD32VW55x_standard_peripheral/Source/gd32vw55x_i2c.c ****     \param[out] none
 456:../Firmware/GD32VW55x_standard_peripheral/Source/gd32vw55x_i2c.c ****     \retval     none
 457:../Firmware/GD32VW55x_standard_peripheral/Source/gd32vw55x_i2c.c **** */
 458:../Firmware/GD32VW55x_standard_peripheral/Source/gd32vw55x_i2c.c **** void i2c_wakeup_from_deepsleep_enable(uint32_t i2c_periph)
 459:../Firmware/GD32VW55x_standard_peripheral/Source/gd32vw55x_i2c.c **** {
 1197              		.loc 1 459 1
 1198              		.cfi_startproc
 1199 0000 0111     		addi	sp,sp,-32
 1200              		.cfi_def_cfa_offset 32
 1201 0002 22CE     		sw	s0,28(sp)
 1202              		.cfi_offset 8, -4
 1203 0004 0010     		addi	s0,sp,32
 1204              		.cfi_def_cfa 8, 0
 1205 0006 2326A4FE 		sw	a0,-20(s0)
 460:../Firmware/GD32VW55x_standard_peripheral/Source/gd32vw55x_i2c.c ****     I2C_CTL0(i2c_periph) |= I2C_CTL0_WUEN;
 1206              		.loc 1 460 26
 1207 000a 8327C4FE 		lw	a5,-20(s0)
 1208 000e 9443     		lw	a3,0(a5)
 1209 0010 8327C4FE 		lw	a5,-20(s0)
 1210 0014 37070400 		li	a4,262144
 1211 0018 558F     		or	a4,a3,a4
 1212 001a 98C3     		sw	a4,0(a5)
 461:../Firmware/GD32VW55x_standard_peripheral/Source/gd32vw55x_i2c.c **** }
 1213              		.loc 1 461 1
 1214 001c 0100     		nop
 1215 001e 7244     		lw	s0,28(sp)
 1216              		.cfi_restore 8
 1217              		.cfi_def_cfa 2, 32
 1218 0020 0561     		addi	sp,sp,32
 1219              		.cfi_def_cfa_offset 0
 1220 0022 8280     		jr	ra
 1221              		.cfi_endproc
 1222              	.LFE374:
 1224              		.section	.text.i2c_wakeup_from_deepsleep_disable,"ax",@progbits
 1225              		.align	1
 1226              		.globl	i2c_wakeup_from_deepsleep_disable
 1228              	i2c_wakeup_from_deepsleep_disable:
 1229              	.LFB375:
 462:../Firmware/GD32VW55x_standard_peripheral/Source/gd32vw55x_i2c.c **** 
 463:../Firmware/GD32VW55x_standard_peripheral/Source/gd32vw55x_i2c.c **** /*!
 464:../Firmware/GD32VW55x_standard_peripheral/Source/gd32vw55x_i2c.c ****     \brief      disable wakeup from deep-sleep mode
 465:../Firmware/GD32VW55x_standard_peripheral/Source/gd32vw55x_i2c.c ****     \param[in]  i2c_periph: I2Cx(x=0)
 466:../Firmware/GD32VW55x_standard_peripheral/Source/gd32vw55x_i2c.c ****     \param[out] none
 467:../Firmware/GD32VW55x_standard_peripheral/Source/gd32vw55x_i2c.c ****     \retval     none
 468:../Firmware/GD32VW55x_standard_peripheral/Source/gd32vw55x_i2c.c **** */
 469:../Firmware/GD32VW55x_standard_peripheral/Source/gd32vw55x_i2c.c **** void i2c_wakeup_from_deepsleep_disable(uint32_t i2c_periph)
 470:../Firmware/GD32VW55x_standard_peripheral/Source/gd32vw55x_i2c.c **** {
 1230              		.loc 1 470 1
 1231              		.cfi_startproc
 1232 0000 0111     		addi	sp,sp,-32
 1233              		.cfi_def_cfa_offset 32
 1234 0002 22CE     		sw	s0,28(sp)
 1235              		.cfi_offset 8, -4
 1236 0004 0010     		addi	s0,sp,32
 1237              		.cfi_def_cfa 8, 0
 1238 0006 2326A4FE 		sw	a0,-20(s0)
 471:../Firmware/GD32VW55x_standard_peripheral/Source/gd32vw55x_i2c.c ****     I2C_CTL0(i2c_periph) &= ~I2C_CTL0_WUEN;
 1239              		.loc 1 471 26
 1240 000a 8327C4FE 		lw	a5,-20(s0)
 1241 000e 9443     		lw	a3,0(a5)
 1242 0010 8327C4FE 		lw	a5,-20(s0)
 1243 0014 3707FCFF 		li	a4,-262144
 1244 0018 7D17     		addi	a4,a4,-1
 1245 001a 758F     		and	a4,a3,a4
 1246 001c 98C3     		sw	a4,0(a5)
 472:../Firmware/GD32VW55x_standard_peripheral/Source/gd32vw55x_i2c.c **** }
 1247              		.loc 1 472 1
 1248 001e 0100     		nop
 1249 0020 7244     		lw	s0,28(sp)
 1250              		.cfi_restore 8
 1251              		.cfi_def_cfa 2, 32
 1252 0022 0561     		addi	sp,sp,32
 1253              		.cfi_def_cfa_offset 0
 1254 0024 8280     		jr	ra
 1255              		.cfi_endproc
 1256              	.LFE375:
 1258              		.section	.text.i2c_enable,"ax",@progbits
 1259              		.align	1
 1260              		.globl	i2c_enable
 1262              	i2c_enable:
 1263              	.LFB376:
 473:../Firmware/GD32VW55x_standard_peripheral/Source/gd32vw55x_i2c.c **** 
 474:../Firmware/GD32VW55x_standard_peripheral/Source/gd32vw55x_i2c.c **** /*!
 475:../Firmware/GD32VW55x_standard_peripheral/Source/gd32vw55x_i2c.c ****     \brief      enable I2C
 476:../Firmware/GD32VW55x_standard_peripheral/Source/gd32vw55x_i2c.c ****     \param[in]  i2c_periph: I2Cx(x=0,1)
 477:../Firmware/GD32VW55x_standard_peripheral/Source/gd32vw55x_i2c.c ****     \param[out] none
 478:../Firmware/GD32VW55x_standard_peripheral/Source/gd32vw55x_i2c.c ****     \retval     none
 479:../Firmware/GD32VW55x_standard_peripheral/Source/gd32vw55x_i2c.c **** */
 480:../Firmware/GD32VW55x_standard_peripheral/Source/gd32vw55x_i2c.c **** void i2c_enable(uint32_t i2c_periph)
 481:../Firmware/GD32VW55x_standard_peripheral/Source/gd32vw55x_i2c.c **** {
 1264              		.loc 1 481 1
 1265              		.cfi_startproc
 1266 0000 0111     		addi	sp,sp,-32
 1267              		.cfi_def_cfa_offset 32
 1268 0002 22CE     		sw	s0,28(sp)
 1269              		.cfi_offset 8, -4
 1270 0004 0010     		addi	s0,sp,32
 1271              		.cfi_def_cfa 8, 0
 1272 0006 2326A4FE 		sw	a0,-20(s0)
 482:../Firmware/GD32VW55x_standard_peripheral/Source/gd32vw55x_i2c.c ****     I2C_CTL0(i2c_periph) |= I2C_CTL0_I2CEN;
 1273              		.loc 1 482 26
 1274 000a 8327C4FE 		lw	a5,-20(s0)
 1275 000e 9843     		lw	a4,0(a5)
 1276 0010 8327C4FE 		lw	a5,-20(s0)
 1277 0014 13671700 		ori	a4,a4,1
 1278 0018 98C3     		sw	a4,0(a5)
 483:../Firmware/GD32VW55x_standard_peripheral/Source/gd32vw55x_i2c.c **** }
 1279              		.loc 1 483 1
 1280 001a 0100     		nop
 1281 001c 7244     		lw	s0,28(sp)
 1282              		.cfi_restore 8
 1283              		.cfi_def_cfa 2, 32
 1284 001e 0561     		addi	sp,sp,32
 1285              		.cfi_def_cfa_offset 0
 1286 0020 8280     		jr	ra
 1287              		.cfi_endproc
 1288              	.LFE376:
 1290              		.section	.text.i2c_disable,"ax",@progbits
 1291              		.align	1
 1292              		.globl	i2c_disable
 1294              	i2c_disable:
 1295              	.LFB377:
 484:../Firmware/GD32VW55x_standard_peripheral/Source/gd32vw55x_i2c.c **** 
 485:../Firmware/GD32VW55x_standard_peripheral/Source/gd32vw55x_i2c.c **** /*!
 486:../Firmware/GD32VW55x_standard_peripheral/Source/gd32vw55x_i2c.c ****     \brief      disable I2C
 487:../Firmware/GD32VW55x_standard_peripheral/Source/gd32vw55x_i2c.c ****     \param[in]  i2c_periph: I2Cx(x=0,1)
 488:../Firmware/GD32VW55x_standard_peripheral/Source/gd32vw55x_i2c.c ****     \param[out] none
 489:../Firmware/GD32VW55x_standard_peripheral/Source/gd32vw55x_i2c.c ****     \retval     none
 490:../Firmware/GD32VW55x_standard_peripheral/Source/gd32vw55x_i2c.c **** */
 491:../Firmware/GD32VW55x_standard_peripheral/Source/gd32vw55x_i2c.c **** void i2c_disable(uint32_t i2c_periph)
 492:../Firmware/GD32VW55x_standard_peripheral/Source/gd32vw55x_i2c.c **** {
 1296              		.loc 1 492 1
 1297              		.cfi_startproc
 1298 0000 0111     		addi	sp,sp,-32
 1299              		.cfi_def_cfa_offset 32
 1300 0002 22CE     		sw	s0,28(sp)
 1301              		.cfi_offset 8, -4
 1302 0004 0010     		addi	s0,sp,32
 1303              		.cfi_def_cfa 8, 0
 1304 0006 2326A4FE 		sw	a0,-20(s0)
 493:../Firmware/GD32VW55x_standard_peripheral/Source/gd32vw55x_i2c.c ****     I2C_CTL0(i2c_periph) &= ~I2C_CTL0_I2CEN;
 1305              		.loc 1 493 26
 1306 000a 8327C4FE 		lw	a5,-20(s0)
 1307 000e 9843     		lw	a4,0(a5)
 1308 0010 8327C4FE 		lw	a5,-20(s0)
 1309 0014 799B     		andi	a4,a4,-2
 1310 0016 98C3     		sw	a4,0(a5)
 494:../Firmware/GD32VW55x_standard_peripheral/Source/gd32vw55x_i2c.c **** }
 1311              		.loc 1 494 1
 1312 0018 0100     		nop
 1313 001a 7244     		lw	s0,28(sp)
 1314              		.cfi_restore 8
 1315              		.cfi_def_cfa 2, 32
 1316 001c 0561     		addi	sp,sp,32
 1317              		.cfi_def_cfa_offset 0
 1318 001e 8280     		jr	ra
 1319              		.cfi_endproc
 1320              	.LFE377:
 1322              		.section	.text.i2c_start_on_bus,"ax",@progbits
 1323              		.align	1
 1324              		.globl	i2c_start_on_bus
 1326              	i2c_start_on_bus:
 1327              	.LFB378:
 495:../Firmware/GD32VW55x_standard_peripheral/Source/gd32vw55x_i2c.c **** 
 496:../Firmware/GD32VW55x_standard_peripheral/Source/gd32vw55x_i2c.c **** /*!
 497:../Firmware/GD32VW55x_standard_peripheral/Source/gd32vw55x_i2c.c ****     \brief      generate a START condition on I2C bus
 498:../Firmware/GD32VW55x_standard_peripheral/Source/gd32vw55x_i2c.c ****     \param[in]  i2c_periph: I2Cx(x=0,1)
 499:../Firmware/GD32VW55x_standard_peripheral/Source/gd32vw55x_i2c.c ****     \param[out] none
 500:../Firmware/GD32VW55x_standard_peripheral/Source/gd32vw55x_i2c.c ****     \retval     none
 501:../Firmware/GD32VW55x_standard_peripheral/Source/gd32vw55x_i2c.c **** */
 502:../Firmware/GD32VW55x_standard_peripheral/Source/gd32vw55x_i2c.c **** void i2c_start_on_bus(uint32_t i2c_periph)
 503:../Firmware/GD32VW55x_standard_peripheral/Source/gd32vw55x_i2c.c **** {
 1328              		.loc 1 503 1
 1329              		.cfi_startproc
 1330 0000 0111     		addi	sp,sp,-32
 1331              		.cfi_def_cfa_offset 32
 1332 0002 22CE     		sw	s0,28(sp)
 1333              		.cfi_offset 8, -4
 1334 0004 0010     		addi	s0,sp,32
 1335              		.cfi_def_cfa 8, 0
 1336 0006 2326A4FE 		sw	a0,-20(s0)
 504:../Firmware/GD32VW55x_standard_peripheral/Source/gd32vw55x_i2c.c ****     I2C_CTL1(i2c_periph) |= I2C_CTL1_START;
 1337              		.loc 1 504 26
 1338 000a 8327C4FE 		lw	a5,-20(s0)
 1339 000e 9107     		addi	a5,a5,4
 1340 0010 9843     		lw	a4,0(a5)
 1341 0012 8327C4FE 		lw	a5,-20(s0)
 1342 0016 9107     		addi	a5,a5,4
 1343 0018 BE86     		mv	a3,a5
 1344 001a 8967     		li	a5,8192
 1345 001c D98F     		or	a5,a4,a5
 1346 001e 9CC2     		sw	a5,0(a3)
 505:../Firmware/GD32VW55x_standard_peripheral/Source/gd32vw55x_i2c.c **** }
 1347              		.loc 1 505 1
 1348 0020 0100     		nop
 1349 0022 7244     		lw	s0,28(sp)
 1350              		.cfi_restore 8
 1351              		.cfi_def_cfa 2, 32
 1352 0024 0561     		addi	sp,sp,32
 1353              		.cfi_def_cfa_offset 0
 1354 0026 8280     		jr	ra
 1355              		.cfi_endproc
 1356              	.LFE378:
 1358              		.section	.text.i2c_stop_on_bus,"ax",@progbits
 1359              		.align	1
 1360              		.globl	i2c_stop_on_bus
 1362              	i2c_stop_on_bus:
 1363              	.LFB379:
 506:../Firmware/GD32VW55x_standard_peripheral/Source/gd32vw55x_i2c.c **** 
 507:../Firmware/GD32VW55x_standard_peripheral/Source/gd32vw55x_i2c.c **** /*!
 508:../Firmware/GD32VW55x_standard_peripheral/Source/gd32vw55x_i2c.c ****     \brief      generate a STOP condition on I2C bus
 509:../Firmware/GD32VW55x_standard_peripheral/Source/gd32vw55x_i2c.c ****     \param[in]  i2c_periph: I2Cx(x=0,1)
 510:../Firmware/GD32VW55x_standard_peripheral/Source/gd32vw55x_i2c.c ****     \param[out] none
 511:../Firmware/GD32VW55x_standard_peripheral/Source/gd32vw55x_i2c.c ****     \retval     none
 512:../Firmware/GD32VW55x_standard_peripheral/Source/gd32vw55x_i2c.c **** */
 513:../Firmware/GD32VW55x_standard_peripheral/Source/gd32vw55x_i2c.c **** void i2c_stop_on_bus(uint32_t i2c_periph)
 514:../Firmware/GD32VW55x_standard_peripheral/Source/gd32vw55x_i2c.c **** {
 1364              		.loc 1 514 1
 1365              		.cfi_startproc
 1366 0000 0111     		addi	sp,sp,-32
 1367              		.cfi_def_cfa_offset 32
 1368 0002 22CE     		sw	s0,28(sp)
 1369              		.cfi_offset 8, -4
 1370 0004 0010     		addi	s0,sp,32
 1371              		.cfi_def_cfa 8, 0
 1372 0006 2326A4FE 		sw	a0,-20(s0)
 515:../Firmware/GD32VW55x_standard_peripheral/Source/gd32vw55x_i2c.c ****     I2C_CTL1(i2c_periph) |= I2C_CTL1_STOP;
 1373              		.loc 1 515 26
 1374 000a 8327C4FE 		lw	a5,-20(s0)
 1375 000e 9107     		addi	a5,a5,4
 1376 0010 9843     		lw	a4,0(a5)
 1377 0012 8327C4FE 		lw	a5,-20(s0)
 1378 0016 9107     		addi	a5,a5,4
 1379 0018 BE86     		mv	a3,a5
 1380 001a 9167     		li	a5,16384
 1381 001c D98F     		or	a5,a4,a5
 1382 001e 9CC2     		sw	a5,0(a3)
 516:../Firmware/GD32VW55x_standard_peripheral/Source/gd32vw55x_i2c.c **** }
 1383              		.loc 1 516 1
 1384 0020 0100     		nop
 1385 0022 7244     		lw	s0,28(sp)
 1386              		.cfi_restore 8
 1387              		.cfi_def_cfa 2, 32
 1388 0024 0561     		addi	sp,sp,32
 1389              		.cfi_def_cfa_offset 0
 1390 0026 8280     		jr	ra
 1391              		.cfi_endproc
 1392              	.LFE379:
 1394              		.section	.text.i2c_data_transmit,"ax",@progbits
 1395              		.align	1
 1396              		.globl	i2c_data_transmit
 1398              	i2c_data_transmit:
 1399              	.LFB380:
 517:../Firmware/GD32VW55x_standard_peripheral/Source/gd32vw55x_i2c.c **** 
 518:../Firmware/GD32VW55x_standard_peripheral/Source/gd32vw55x_i2c.c **** /*!
 519:../Firmware/GD32VW55x_standard_peripheral/Source/gd32vw55x_i2c.c ****     \brief      I2C transmit data
 520:../Firmware/GD32VW55x_standard_peripheral/Source/gd32vw55x_i2c.c ****     \param[in]  i2c_periph: I2Cx(x=0,1)
 521:../Firmware/GD32VW55x_standard_peripheral/Source/gd32vw55x_i2c.c ****     \param[in]  data: data to be transmitted
 522:../Firmware/GD32VW55x_standard_peripheral/Source/gd32vw55x_i2c.c ****     \param[out] none
 523:../Firmware/GD32VW55x_standard_peripheral/Source/gd32vw55x_i2c.c ****     \retval     none
 524:../Firmware/GD32VW55x_standard_peripheral/Source/gd32vw55x_i2c.c **** */
 525:../Firmware/GD32VW55x_standard_peripheral/Source/gd32vw55x_i2c.c **** void i2c_data_transmit(uint32_t i2c_periph, uint32_t data)
 526:../Firmware/GD32VW55x_standard_peripheral/Source/gd32vw55x_i2c.c **** {
 1400              		.loc 1 526 1
 1401              		.cfi_startproc
 1402 0000 0111     		addi	sp,sp,-32
 1403              		.cfi_def_cfa_offset 32
 1404 0002 22CE     		sw	s0,28(sp)
 1405              		.cfi_offset 8, -4
 1406 0004 0010     		addi	s0,sp,32
 1407              		.cfi_def_cfa 8, 0
 1408 0006 2326A4FE 		sw	a0,-20(s0)
 1409 000a 2324B4FE 		sw	a1,-24(s0)
 527:../Firmware/GD32VW55x_standard_peripheral/Source/gd32vw55x_i2c.c ****     I2C_TDATA(i2c_periph) = (I2C_TDATA_TDATA & data);
 1410              		.loc 1 527 5
 1411 000e 8327C4FE 		lw	a5,-20(s0)
 1412 0012 93878702 		addi	a5,a5,40
 1413 0016 3E87     		mv	a4,a5
 1414              		.loc 1 527 46
 1415 0018 832784FE 		lw	a5,-24(s0)
 1416 001c 93F7F70F 		andi	a5,a5,255
 1417              		.loc 1 527 27
 1418 0020 1CC3     		sw	a5,0(a4)
 528:../Firmware/GD32VW55x_standard_peripheral/Source/gd32vw55x_i2c.c **** }
 1419              		.loc 1 528 1
 1420 0022 0100     		nop
 1421 0024 7244     		lw	s0,28(sp)
 1422              		.cfi_restore 8
 1423              		.cfi_def_cfa 2, 32
 1424 0026 0561     		addi	sp,sp,32
 1425              		.cfi_def_cfa_offset 0
 1426 0028 8280     		jr	ra
 1427              		.cfi_endproc
 1428              	.LFE380:
 1430              		.section	.text.i2c_data_receive,"ax",@progbits
 1431              		.align	1
 1432              		.globl	i2c_data_receive
 1434              	i2c_data_receive:
 1435              	.LFB381:
 529:../Firmware/GD32VW55x_standard_peripheral/Source/gd32vw55x_i2c.c **** 
 530:../Firmware/GD32VW55x_standard_peripheral/Source/gd32vw55x_i2c.c **** /*!
 531:../Firmware/GD32VW55x_standard_peripheral/Source/gd32vw55x_i2c.c ****     \brief      I2C receive data
 532:../Firmware/GD32VW55x_standard_peripheral/Source/gd32vw55x_i2c.c ****     \param[in]  i2c_periph: I2Cx(x=0,1)
 533:../Firmware/GD32VW55x_standard_peripheral/Source/gd32vw55x_i2c.c ****     \param[out] none
 534:../Firmware/GD32VW55x_standard_peripheral/Source/gd32vw55x_i2c.c ****     \retval     received data
 535:../Firmware/GD32VW55x_standard_peripheral/Source/gd32vw55x_i2c.c **** */
 536:../Firmware/GD32VW55x_standard_peripheral/Source/gd32vw55x_i2c.c **** uint32_t i2c_data_receive(uint32_t i2c_periph)
 537:../Firmware/GD32VW55x_standard_peripheral/Source/gd32vw55x_i2c.c **** {
 1436              		.loc 1 537 1
 1437              		.cfi_startproc
 1438 0000 0111     		addi	sp,sp,-32
 1439              		.cfi_def_cfa_offset 32
 1440 0002 22CE     		sw	s0,28(sp)
 1441              		.cfi_offset 8, -4
 1442 0004 0010     		addi	s0,sp,32
 1443              		.cfi_def_cfa 8, 0
 1444 0006 2326A4FE 		sw	a0,-20(s0)
 538:../Firmware/GD32VW55x_standard_peripheral/Source/gd32vw55x_i2c.c ****     return (I2C_RDATA(i2c_periph) & I2C_RDATA_RDATA);
 1445              		.loc 1 538 13
 1446 000a 8327C4FE 		lw	a5,-20(s0)
 1447 000e 93874702 		addi	a5,a5,36
 1448              		.loc 1 538 35
 1449 0012 9C43     		lw	a5,0(a5)
 1450 0014 93F7F70F 		andi	a5,a5,255
 539:../Firmware/GD32VW55x_standard_peripheral/Source/gd32vw55x_i2c.c **** }
 1451              		.loc 1 539 1
 1452 0018 3E85     		mv	a0,a5
 1453 001a 7244     		lw	s0,28(sp)
 1454              		.cfi_restore 8
 1455              		.cfi_def_cfa 2, 32
 1456 001c 0561     		addi	sp,sp,32
 1457              		.cfi_def_cfa_offset 0
 1458 001e 8280     		jr	ra
 1459              		.cfi_endproc
 1460              	.LFE381:
 1462              		.section	.text.i2c_reload_enable,"ax",@progbits
 1463              		.align	1
 1464              		.globl	i2c_reload_enable
 1466              	i2c_reload_enable:
 1467              	.LFB382:
 540:../Firmware/GD32VW55x_standard_peripheral/Source/gd32vw55x_i2c.c **** 
 541:../Firmware/GD32VW55x_standard_peripheral/Source/gd32vw55x_i2c.c **** /*!
 542:../Firmware/GD32VW55x_standard_peripheral/Source/gd32vw55x_i2c.c ****     \brief      enable I2C reload mode
 543:../Firmware/GD32VW55x_standard_peripheral/Source/gd32vw55x_i2c.c ****     \param[in]  i2c_periph: I2Cx(x=0,1)
 544:../Firmware/GD32VW55x_standard_peripheral/Source/gd32vw55x_i2c.c ****     \param[out] none
 545:../Firmware/GD32VW55x_standard_peripheral/Source/gd32vw55x_i2c.c ****     \retval     none
 546:../Firmware/GD32VW55x_standard_peripheral/Source/gd32vw55x_i2c.c **** */
 547:../Firmware/GD32VW55x_standard_peripheral/Source/gd32vw55x_i2c.c **** void i2c_reload_enable(uint32_t i2c_periph)
 548:../Firmware/GD32VW55x_standard_peripheral/Source/gd32vw55x_i2c.c **** {
 1468              		.loc 1 548 1
 1469              		.cfi_startproc
 1470 0000 0111     		addi	sp,sp,-32
 1471              		.cfi_def_cfa_offset 32
 1472 0002 22CE     		sw	s0,28(sp)
 1473              		.cfi_offset 8, -4
 1474 0004 0010     		addi	s0,sp,32
 1475              		.cfi_def_cfa 8, 0
 1476 0006 2326A4FE 		sw	a0,-20(s0)
 549:../Firmware/GD32VW55x_standard_peripheral/Source/gd32vw55x_i2c.c ****     I2C_CTL1(i2c_periph) |= I2C_CTL1_RELOAD;
 1477              		.loc 1 549 26
 1478 000a 8327C4FE 		lw	a5,-20(s0)
 1479 000e 9107     		addi	a5,a5,4
 1480 0010 9843     		lw	a4,0(a5)
 1481 0012 8327C4FE 		lw	a5,-20(s0)
 1482 0016 9107     		addi	a5,a5,4
 1483 0018 BE86     		mv	a3,a5
 1484 001a B7070001 		li	a5,16777216
 1485 001e D98F     		or	a5,a4,a5
 1486 0020 9CC2     		sw	a5,0(a3)
 550:../Firmware/GD32VW55x_standard_peripheral/Source/gd32vw55x_i2c.c **** }
 1487              		.loc 1 550 1
 1488 0022 0100     		nop
 1489 0024 7244     		lw	s0,28(sp)
 1490              		.cfi_restore 8
 1491              		.cfi_def_cfa 2, 32
 1492 0026 0561     		addi	sp,sp,32
 1493              		.cfi_def_cfa_offset 0
 1494 0028 8280     		jr	ra
 1495              		.cfi_endproc
 1496              	.LFE382:
 1498              		.section	.text.i2c_reload_disable,"ax",@progbits
 1499              		.align	1
 1500              		.globl	i2c_reload_disable
 1502              	i2c_reload_disable:
 1503              	.LFB383:
 551:../Firmware/GD32VW55x_standard_peripheral/Source/gd32vw55x_i2c.c **** 
 552:../Firmware/GD32VW55x_standard_peripheral/Source/gd32vw55x_i2c.c **** /*!
 553:../Firmware/GD32VW55x_standard_peripheral/Source/gd32vw55x_i2c.c ****     \brief      disable I2C reload mode
 554:../Firmware/GD32VW55x_standard_peripheral/Source/gd32vw55x_i2c.c ****     \param[in]  i2c_periph: I2Cx(x=0,1)
 555:../Firmware/GD32VW55x_standard_peripheral/Source/gd32vw55x_i2c.c ****     \param[out] none
 556:../Firmware/GD32VW55x_standard_peripheral/Source/gd32vw55x_i2c.c ****     \retval     none
 557:../Firmware/GD32VW55x_standard_peripheral/Source/gd32vw55x_i2c.c **** */
 558:../Firmware/GD32VW55x_standard_peripheral/Source/gd32vw55x_i2c.c **** void i2c_reload_disable(uint32_t i2c_periph)
 559:../Firmware/GD32VW55x_standard_peripheral/Source/gd32vw55x_i2c.c **** {
 1504              		.loc 1 559 1
 1505              		.cfi_startproc
 1506 0000 0111     		addi	sp,sp,-32
 1507              		.cfi_def_cfa_offset 32
 1508 0002 22CE     		sw	s0,28(sp)
 1509              		.cfi_offset 8, -4
 1510 0004 0010     		addi	s0,sp,32
 1511              		.cfi_def_cfa 8, 0
 1512 0006 2326A4FE 		sw	a0,-20(s0)
 560:../Firmware/GD32VW55x_standard_peripheral/Source/gd32vw55x_i2c.c ****     I2C_CTL1(i2c_periph) &= ~I2C_CTL1_RELOAD;
 1513              		.loc 1 560 26
 1514 000a 8327C4FE 		lw	a5,-20(s0)
 1515 000e 9107     		addi	a5,a5,4
 1516 0010 9843     		lw	a4,0(a5)
 1517 0012 8327C4FE 		lw	a5,-20(s0)
 1518 0016 9107     		addi	a5,a5,4
 1519 0018 BE86     		mv	a3,a5
 1520 001a B70700FF 		li	a5,-16777216
 1521 001e FD17     		addi	a5,a5,-1
 1522 0020 F98F     		and	a5,a4,a5
 1523 0022 9CC2     		sw	a5,0(a3)
 561:../Firmware/GD32VW55x_standard_peripheral/Source/gd32vw55x_i2c.c **** }
 1524              		.loc 1 561 1
 1525 0024 0100     		nop
 1526 0026 7244     		lw	s0,28(sp)
 1527              		.cfi_restore 8
 1528              		.cfi_def_cfa 2, 32
 1529 0028 0561     		addi	sp,sp,32
 1530              		.cfi_def_cfa_offset 0
 1531 002a 8280     		jr	ra
 1532              		.cfi_endproc
 1533              	.LFE383:
 1535              		.section	.text.i2c_transfer_byte_number_config,"ax",@progbits
 1536              		.align	1
 1537              		.globl	i2c_transfer_byte_number_config
 1539              	i2c_transfer_byte_number_config:
 1540              	.LFB384:
 562:../Firmware/GD32VW55x_standard_peripheral/Source/gd32vw55x_i2c.c **** 
 563:../Firmware/GD32VW55x_standard_peripheral/Source/gd32vw55x_i2c.c **** /*!
 564:../Firmware/GD32VW55x_standard_peripheral/Source/gd32vw55x_i2c.c ****     \brief      configure number of bytes to be transferred
 565:../Firmware/GD32VW55x_standard_peripheral/Source/gd32vw55x_i2c.c ****     \param[in]  i2c_periph: I2Cx(x=0,1)
 566:../Firmware/GD32VW55x_standard_peripheral/Source/gd32vw55x_i2c.c ****     \param[in]  byte_number: 0x0-0xFF, number of bytes to be transferred
 567:../Firmware/GD32VW55x_standard_peripheral/Source/gd32vw55x_i2c.c ****     \param[out] none
 568:../Firmware/GD32VW55x_standard_peripheral/Source/gd32vw55x_i2c.c ****     \retval     none
 569:../Firmware/GD32VW55x_standard_peripheral/Source/gd32vw55x_i2c.c **** */
 570:../Firmware/GD32VW55x_standard_peripheral/Source/gd32vw55x_i2c.c **** void i2c_transfer_byte_number_config(uint32_t i2c_periph, uint32_t byte_number)
 571:../Firmware/GD32VW55x_standard_peripheral/Source/gd32vw55x_i2c.c **** {
 1541              		.loc 1 571 1
 1542              		.cfi_startproc
 1543 0000 0111     		addi	sp,sp,-32
 1544              		.cfi_def_cfa_offset 32
 1545 0002 22CE     		sw	s0,28(sp)
 1546              		.cfi_offset 8, -4
 1547 0004 0010     		addi	s0,sp,32
 1548              		.cfi_def_cfa 8, 0
 1549 0006 2326A4FE 		sw	a0,-20(s0)
 1550 000a 2324B4FE 		sw	a1,-24(s0)
 572:../Firmware/GD32VW55x_standard_peripheral/Source/gd32vw55x_i2c.c ****     I2C_CTL1(i2c_periph) &= (uint32_t)(~I2C_CTL1_BYTENUM);
 1551              		.loc 1 572 26
 1552 000e 8327C4FE 		lw	a5,-20(s0)
 1553 0012 9107     		addi	a5,a5,4
 1554 0014 9843     		lw	a4,0(a5)
 1555 0016 8327C4FE 		lw	a5,-20(s0)
 1556 001a 9107     		addi	a5,a5,4
 1557 001c BE86     		mv	a3,a5
 1558 001e B70701FF 		li	a5,-16711680
 1559 0022 FD17     		addi	a5,a5,-1
 1560 0024 F98F     		and	a5,a4,a5
 1561 0026 9CC2     		sw	a5,0(a3)
 573:../Firmware/GD32VW55x_standard_peripheral/Source/gd32vw55x_i2c.c ****     I2C_CTL1(i2c_periph) |= (uint32_t)(byte_number << CTL1_BYTENUM_OFFSET);
 1562              		.loc 1 573 26
 1563 0028 8327C4FE 		lw	a5,-20(s0)
 1564 002c 9107     		addi	a5,a5,4
 1565 002e 9843     		lw	a4,0(a5)
 1566              		.loc 1 573 52
 1567 0030 832784FE 		lw	a5,-24(s0)
 1568 0034 C207     		slli	a5,a5,16
 1569              		.loc 1 573 26
 1570 0036 8326C4FE 		lw	a3,-20(s0)
 1571 003a 9106     		addi	a3,a3,4
 1572 003c D98F     		or	a5,a4,a5
 1573 003e 9CC2     		sw	a5,0(a3)
 574:../Firmware/GD32VW55x_standard_peripheral/Source/gd32vw55x_i2c.c **** }
 1574              		.loc 1 574 1
 1575 0040 0100     		nop
 1576 0042 7244     		lw	s0,28(sp)
 1577              		.cfi_restore 8
 1578              		.cfi_def_cfa 2, 32
 1579 0044 0561     		addi	sp,sp,32
 1580              		.cfi_def_cfa_offset 0
 1581 0046 8280     		jr	ra
 1582              		.cfi_endproc
 1583              	.LFE384:
 1585              		.section	.text.i2c_dma_enable,"ax",@progbits
 1586              		.align	1
 1587              		.globl	i2c_dma_enable
 1589              	i2c_dma_enable:
 1590              	.LFB385:
 575:../Firmware/GD32VW55x_standard_peripheral/Source/gd32vw55x_i2c.c **** 
 576:../Firmware/GD32VW55x_standard_peripheral/Source/gd32vw55x_i2c.c **** /*!
 577:../Firmware/GD32VW55x_standard_peripheral/Source/gd32vw55x_i2c.c ****     \brief      enable I2C DMA for transmission or reception
 578:../Firmware/GD32VW55x_standard_peripheral/Source/gd32vw55x_i2c.c ****     \param[in]  i2c_periph: I2Cx(x=0,1)
 579:../Firmware/GD32VW55x_standard_peripheral/Source/gd32vw55x_i2c.c ****     \param[in]  dma: I2C DMA
 580:../Firmware/GD32VW55x_standard_peripheral/Source/gd32vw55x_i2c.c ****                 only one parameter can be selected which is shown as below:
 581:../Firmware/GD32VW55x_standard_peripheral/Source/gd32vw55x_i2c.c ****       \arg        I2C_DMA_TRANSMIT: transmit data using DMA
 582:../Firmware/GD32VW55x_standard_peripheral/Source/gd32vw55x_i2c.c ****       \arg        I2C_DMA_RECEIVE: receive data using DMA
 583:../Firmware/GD32VW55x_standard_peripheral/Source/gd32vw55x_i2c.c ****     \param[out] none
 584:../Firmware/GD32VW55x_standard_peripheral/Source/gd32vw55x_i2c.c ****     \retval     none
 585:../Firmware/GD32VW55x_standard_peripheral/Source/gd32vw55x_i2c.c **** */
 586:../Firmware/GD32VW55x_standard_peripheral/Source/gd32vw55x_i2c.c **** void i2c_dma_enable(uint32_t i2c_periph, uint8_t dma)
 587:../Firmware/GD32VW55x_standard_peripheral/Source/gd32vw55x_i2c.c **** {
 1591              		.loc 1 587 1
 1592              		.cfi_startproc
 1593 0000 0111     		addi	sp,sp,-32
 1594              		.cfi_def_cfa_offset 32
 1595 0002 22CE     		sw	s0,28(sp)
 1596              		.cfi_offset 8, -4
 1597 0004 0010     		addi	s0,sp,32
 1598              		.cfi_def_cfa 8, 0
 1599 0006 2326A4FE 		sw	a0,-20(s0)
 1600 000a AE87     		mv	a5,a1
 1601 000c A305F4FE 		sb	a5,-21(s0)
 588:../Firmware/GD32VW55x_standard_peripheral/Source/gd32vw55x_i2c.c ****     if(I2C_DMA_TRANSMIT == dma){
 1602              		.loc 1 588 7
 1603 0010 8347B4FE 		lbu	a5,-21(s0)
 1604 0014 91EB     		bne	a5,zero,.L46
 589:../Firmware/GD32VW55x_standard_peripheral/Source/gd32vw55x_i2c.c ****         I2C_CTL0(i2c_periph) |= I2C_CTL0_DENT;
 1605              		.loc 1 589 30
 1606 0016 8327C4FE 		lw	a5,-20(s0)
 1607 001a 9443     		lw	a3,0(a5)
 1608 001c 8327C4FE 		lw	a5,-20(s0)
 1609 0020 1167     		li	a4,16384
 1610 0022 558F     		or	a4,a3,a4
 1611 0024 98C3     		sw	a4,0(a5)
 590:../Firmware/GD32VW55x_standard_peripheral/Source/gd32vw55x_i2c.c ****     }else{
 591:../Firmware/GD32VW55x_standard_peripheral/Source/gd32vw55x_i2c.c ****         I2C_CTL0(i2c_periph) |= I2C_CTL0_DENR;
 592:../Firmware/GD32VW55x_standard_peripheral/Source/gd32vw55x_i2c.c ****     }
 593:../Firmware/GD32VW55x_standard_peripheral/Source/gd32vw55x_i2c.c **** }
 1612              		.loc 1 593 1
 1613 0026 09A8     		j	.L48
 1614              	.L46:
 591:../Firmware/GD32VW55x_standard_peripheral/Source/gd32vw55x_i2c.c ****     }
 1615              		.loc 1 591 30
 1616 0028 8327C4FE 		lw	a5,-20(s0)
 1617 002c 9443     		lw	a3,0(a5)
 1618 002e 8327C4FE 		lw	a5,-20(s0)
 1619 0032 2167     		li	a4,32768
 1620 0034 558F     		or	a4,a3,a4
 1621 0036 98C3     		sw	a4,0(a5)
 1622              	.L48:
 1623              		.loc 1 593 1
 1624 0038 0100     		nop
 1625 003a 7244     		lw	s0,28(sp)
 1626              		.cfi_restore 8
 1627              		.cfi_def_cfa 2, 32
 1628 003c 0561     		addi	sp,sp,32
 1629              		.cfi_def_cfa_offset 0
 1630 003e 8280     		jr	ra
 1631              		.cfi_endproc
 1632              	.LFE385:
 1634              		.section	.text.i2c_dma_disable,"ax",@progbits
 1635              		.align	1
 1636              		.globl	i2c_dma_disable
 1638              	i2c_dma_disable:
 1639              	.LFB386:
 594:../Firmware/GD32VW55x_standard_peripheral/Source/gd32vw55x_i2c.c **** 
 595:../Firmware/GD32VW55x_standard_peripheral/Source/gd32vw55x_i2c.c **** /*!
 596:../Firmware/GD32VW55x_standard_peripheral/Source/gd32vw55x_i2c.c ****     \brief      disable I2C DMA for transmission or reception
 597:../Firmware/GD32VW55x_standard_peripheral/Source/gd32vw55x_i2c.c ****     \param[in]  i2c_periph: I2Cx(x=0,1)
 598:../Firmware/GD32VW55x_standard_peripheral/Source/gd32vw55x_i2c.c ****     \param[in]  dma: I2C DMA
 599:../Firmware/GD32VW55x_standard_peripheral/Source/gd32vw55x_i2c.c ****                 only one parameter can be selected which is shown as below:
 600:../Firmware/GD32VW55x_standard_peripheral/Source/gd32vw55x_i2c.c ****       \arg        I2C_DMA_TRANSMIT: transmit data using DMA
 601:../Firmware/GD32VW55x_standard_peripheral/Source/gd32vw55x_i2c.c ****       \arg        I2C_DMA_RECEIVE: receive data using DMA
 602:../Firmware/GD32VW55x_standard_peripheral/Source/gd32vw55x_i2c.c ****     \param[out] none
 603:../Firmware/GD32VW55x_standard_peripheral/Source/gd32vw55x_i2c.c ****     \retval     none
 604:../Firmware/GD32VW55x_standard_peripheral/Source/gd32vw55x_i2c.c **** */
 605:../Firmware/GD32VW55x_standard_peripheral/Source/gd32vw55x_i2c.c **** void i2c_dma_disable(uint32_t i2c_periph, uint8_t dma)
 606:../Firmware/GD32VW55x_standard_peripheral/Source/gd32vw55x_i2c.c **** {
 1640              		.loc 1 606 1
 1641              		.cfi_startproc
 1642 0000 0111     		addi	sp,sp,-32
 1643              		.cfi_def_cfa_offset 32
 1644 0002 22CE     		sw	s0,28(sp)
 1645              		.cfi_offset 8, -4
 1646 0004 0010     		addi	s0,sp,32
 1647              		.cfi_def_cfa 8, 0
 1648 0006 2326A4FE 		sw	a0,-20(s0)
 1649 000a AE87     		mv	a5,a1
 1650 000c A305F4FE 		sb	a5,-21(s0)
 607:../Firmware/GD32VW55x_standard_peripheral/Source/gd32vw55x_i2c.c ****     if(I2C_DMA_TRANSMIT == dma){
 1651              		.loc 1 607 7
 1652 0010 8347B4FE 		lbu	a5,-21(s0)
 1653 0014 99EB     		bne	a5,zero,.L50
 608:../Firmware/GD32VW55x_standard_peripheral/Source/gd32vw55x_i2c.c ****         I2C_CTL0(i2c_periph) &= ~I2C_CTL0_DENT;
 1654              		.loc 1 608 30
 1655 0016 8327C4FE 		lw	a5,-20(s0)
 1656 001a 9443     		lw	a3,0(a5)
 1657 001c 8327C4FE 		lw	a5,-20(s0)
 1658 0020 7177     		li	a4,-16384
 1659 0022 7D17     		addi	a4,a4,-1
 1660 0024 758F     		and	a4,a3,a4
 1661 0026 98C3     		sw	a4,0(a5)
 609:../Firmware/GD32VW55x_standard_peripheral/Source/gd32vw55x_i2c.c ****     }else{
 610:../Firmware/GD32VW55x_standard_peripheral/Source/gd32vw55x_i2c.c ****         I2C_CTL0(i2c_periph) &= ~I2C_CTL0_DENR;
 611:../Firmware/GD32VW55x_standard_peripheral/Source/gd32vw55x_i2c.c ****     }
 612:../Firmware/GD32VW55x_standard_peripheral/Source/gd32vw55x_i2c.c **** }
 1662              		.loc 1 612 1
 1663 0028 11A8     		j	.L52
 1664              	.L50:
 610:../Firmware/GD32VW55x_standard_peripheral/Source/gd32vw55x_i2c.c ****     }
 1665              		.loc 1 610 30
 1666 002a 8327C4FE 		lw	a5,-20(s0)
 1667 002e 9443     		lw	a3,0(a5)
 1668 0030 8327C4FE 		lw	a5,-20(s0)
 1669 0034 6177     		li	a4,-32768
 1670 0036 7D17     		addi	a4,a4,-1
 1671 0038 758F     		and	a4,a3,a4
 1672 003a 98C3     		sw	a4,0(a5)
 1673              	.L52:
 1674              		.loc 1 612 1
 1675 003c 0100     		nop
 1676 003e 7244     		lw	s0,28(sp)
 1677              		.cfi_restore 8
 1678              		.cfi_def_cfa 2, 32
 1679 0040 0561     		addi	sp,sp,32
 1680              		.cfi_def_cfa_offset 0
 1681 0042 8280     		jr	ra
 1682              		.cfi_endproc
 1683              	.LFE386:
 1685              		.section	.text.i2c_pec_transfer,"ax",@progbits
 1686              		.align	1
 1687              		.globl	i2c_pec_transfer
 1689              	i2c_pec_transfer:
 1690              	.LFB387:
 613:../Firmware/GD32VW55x_standard_peripheral/Source/gd32vw55x_i2c.c **** 
 614:../Firmware/GD32VW55x_standard_peripheral/Source/gd32vw55x_i2c.c **** /*!
 615:../Firmware/GD32VW55x_standard_peripheral/Source/gd32vw55x_i2c.c ****     \brief      I2C transfers PEC value
 616:../Firmware/GD32VW55x_standard_peripheral/Source/gd32vw55x_i2c.c ****     \param[in]  i2c_periph: I2Cx(x=0,1)
 617:../Firmware/GD32VW55x_standard_peripheral/Source/gd32vw55x_i2c.c ****     \param[out] none
 618:../Firmware/GD32VW55x_standard_peripheral/Source/gd32vw55x_i2c.c ****     \retval     none
 619:../Firmware/GD32VW55x_standard_peripheral/Source/gd32vw55x_i2c.c **** */
 620:../Firmware/GD32VW55x_standard_peripheral/Source/gd32vw55x_i2c.c **** void i2c_pec_transfer(uint32_t i2c_periph)
 621:../Firmware/GD32VW55x_standard_peripheral/Source/gd32vw55x_i2c.c **** {
 1691              		.loc 1 621 1
 1692              		.cfi_startproc
 1693 0000 0111     		addi	sp,sp,-32
 1694              		.cfi_def_cfa_offset 32
 1695 0002 22CE     		sw	s0,28(sp)
 1696              		.cfi_offset 8, -4
 1697 0004 0010     		addi	s0,sp,32
 1698              		.cfi_def_cfa 8, 0
 1699 0006 2326A4FE 		sw	a0,-20(s0)
 622:../Firmware/GD32VW55x_standard_peripheral/Source/gd32vw55x_i2c.c ****     I2C_CTL1(i2c_periph) |= I2C_CTL1_PECTRANS;
 1700              		.loc 1 622 26
 1701 000a 8327C4FE 		lw	a5,-20(s0)
 1702 000e 9107     		addi	a5,a5,4
 1703 0010 9843     		lw	a4,0(a5)
 1704 0012 8327C4FE 		lw	a5,-20(s0)
 1705 0016 9107     		addi	a5,a5,4
 1706 0018 BE86     		mv	a3,a5
 1707 001a B7070004 		li	a5,67108864
 1708 001e D98F     		or	a5,a4,a5
 1709 0020 9CC2     		sw	a5,0(a3)
 623:../Firmware/GD32VW55x_standard_peripheral/Source/gd32vw55x_i2c.c **** }
 1710              		.loc 1 623 1
 1711 0022 0100     		nop
 1712 0024 7244     		lw	s0,28(sp)
 1713              		.cfi_restore 8
 1714              		.cfi_def_cfa 2, 32
 1715 0026 0561     		addi	sp,sp,32
 1716              		.cfi_def_cfa_offset 0
 1717 0028 8280     		jr	ra
 1718              		.cfi_endproc
 1719              	.LFE387:
 1721              		.section	.text.i2c_pec_enable,"ax",@progbits
 1722              		.align	1
 1723              		.globl	i2c_pec_enable
 1725              	i2c_pec_enable:
 1726              	.LFB388:
 624:../Firmware/GD32VW55x_standard_peripheral/Source/gd32vw55x_i2c.c **** 
 625:../Firmware/GD32VW55x_standard_peripheral/Source/gd32vw55x_i2c.c **** /*!
 626:../Firmware/GD32VW55x_standard_peripheral/Source/gd32vw55x_i2c.c ****     \brief      enable I2C PEC calculation
 627:../Firmware/GD32VW55x_standard_peripheral/Source/gd32vw55x_i2c.c ****     \param[in]  i2c_periph: I2Cx(x=0,1)
 628:../Firmware/GD32VW55x_standard_peripheral/Source/gd32vw55x_i2c.c ****     \param[out] none
 629:../Firmware/GD32VW55x_standard_peripheral/Source/gd32vw55x_i2c.c ****     \retval     none
 630:../Firmware/GD32VW55x_standard_peripheral/Source/gd32vw55x_i2c.c **** */
 631:../Firmware/GD32VW55x_standard_peripheral/Source/gd32vw55x_i2c.c **** void i2c_pec_enable(uint32_t i2c_periph)
 632:../Firmware/GD32VW55x_standard_peripheral/Source/gd32vw55x_i2c.c **** {
 1727              		.loc 1 632 1
 1728              		.cfi_startproc
 1729 0000 0111     		addi	sp,sp,-32
 1730              		.cfi_def_cfa_offset 32
 1731 0002 22CE     		sw	s0,28(sp)
 1732              		.cfi_offset 8, -4
 1733 0004 0010     		addi	s0,sp,32
 1734              		.cfi_def_cfa 8, 0
 1735 0006 2326A4FE 		sw	a0,-20(s0)
 633:../Firmware/GD32VW55x_standard_peripheral/Source/gd32vw55x_i2c.c ****     I2C_CTL0(i2c_periph) |= I2C_CTL0_PECEN;
 1736              		.loc 1 633 26
 1737 000a 8327C4FE 		lw	a5,-20(s0)
 1738 000e 9443     		lw	a3,0(a5)
 1739 0010 8327C4FE 		lw	a5,-20(s0)
 1740 0014 37078000 		li	a4,8388608
 1741 0018 558F     		or	a4,a3,a4
 1742 001a 98C3     		sw	a4,0(a5)
 634:../Firmware/GD32VW55x_standard_peripheral/Source/gd32vw55x_i2c.c **** }
 1743              		.loc 1 634 1
 1744 001c 0100     		nop
 1745 001e 7244     		lw	s0,28(sp)
 1746              		.cfi_restore 8
 1747              		.cfi_def_cfa 2, 32
 1748 0020 0561     		addi	sp,sp,32
 1749              		.cfi_def_cfa_offset 0
 1750 0022 8280     		jr	ra
 1751              		.cfi_endproc
 1752              	.LFE388:
 1754              		.section	.text.i2c_pec_disable,"ax",@progbits
 1755              		.align	1
 1756              		.globl	i2c_pec_disable
 1758              	i2c_pec_disable:
 1759              	.LFB389:
 635:../Firmware/GD32VW55x_standard_peripheral/Source/gd32vw55x_i2c.c **** 
 636:../Firmware/GD32VW55x_standard_peripheral/Source/gd32vw55x_i2c.c **** /*!
 637:../Firmware/GD32VW55x_standard_peripheral/Source/gd32vw55x_i2c.c ****     \brief      disable I2C PEC calculation
 638:../Firmware/GD32VW55x_standard_peripheral/Source/gd32vw55x_i2c.c ****     \param[in]  i2c_periph: I2Cx(x=0,1)
 639:../Firmware/GD32VW55x_standard_peripheral/Source/gd32vw55x_i2c.c ****     \param[out] none
 640:../Firmware/GD32VW55x_standard_peripheral/Source/gd32vw55x_i2c.c ****     \retval     none
 641:../Firmware/GD32VW55x_standard_peripheral/Source/gd32vw55x_i2c.c **** */
 642:../Firmware/GD32VW55x_standard_peripheral/Source/gd32vw55x_i2c.c **** void i2c_pec_disable(uint32_t i2c_periph)
 643:../Firmware/GD32VW55x_standard_peripheral/Source/gd32vw55x_i2c.c **** {
 1760              		.loc 1 643 1
 1761              		.cfi_startproc
 1762 0000 0111     		addi	sp,sp,-32
 1763              		.cfi_def_cfa_offset 32
 1764 0002 22CE     		sw	s0,28(sp)
 1765              		.cfi_offset 8, -4
 1766 0004 0010     		addi	s0,sp,32
 1767              		.cfi_def_cfa 8, 0
 1768 0006 2326A4FE 		sw	a0,-20(s0)
 644:../Firmware/GD32VW55x_standard_peripheral/Source/gd32vw55x_i2c.c ****     I2C_CTL0(i2c_periph) &= ~I2C_CTL0_PECEN;
 1769              		.loc 1 644 26
 1770 000a 8327C4FE 		lw	a5,-20(s0)
 1771 000e 9443     		lw	a3,0(a5)
 1772 0010 8327C4FE 		lw	a5,-20(s0)
 1773 0014 370780FF 		li	a4,-8388608
 1774 0018 7D17     		addi	a4,a4,-1
 1775 001a 758F     		and	a4,a3,a4
 1776 001c 98C3     		sw	a4,0(a5)
 645:../Firmware/GD32VW55x_standard_peripheral/Source/gd32vw55x_i2c.c **** }
 1777              		.loc 1 645 1
 1778 001e 0100     		nop
 1779 0020 7244     		lw	s0,28(sp)
 1780              		.cfi_restore 8
 1781              		.cfi_def_cfa 2, 32
 1782 0022 0561     		addi	sp,sp,32
 1783              		.cfi_def_cfa_offset 0
 1784 0024 8280     		jr	ra
 1785              		.cfi_endproc
 1786              	.LFE389:
 1788              		.section	.text.i2c_pec_value_get,"ax",@progbits
 1789              		.align	1
 1790              		.globl	i2c_pec_value_get
 1792              	i2c_pec_value_get:
 1793              	.LFB390:
 646:../Firmware/GD32VW55x_standard_peripheral/Source/gd32vw55x_i2c.c **** 
 647:../Firmware/GD32VW55x_standard_peripheral/Source/gd32vw55x_i2c.c **** /*!
 648:../Firmware/GD32VW55x_standard_peripheral/Source/gd32vw55x_i2c.c ****     \brief      get packet error checking value
 649:../Firmware/GD32VW55x_standard_peripheral/Source/gd32vw55x_i2c.c ****     \param[in]  i2c_periph: I2Cx(x=0,1)
 650:../Firmware/GD32VW55x_standard_peripheral/Source/gd32vw55x_i2c.c ****     \param[out] none
 651:../Firmware/GD32VW55x_standard_peripheral/Source/gd32vw55x_i2c.c ****     \retval     PEC value
 652:../Firmware/GD32VW55x_standard_peripheral/Source/gd32vw55x_i2c.c **** */
 653:../Firmware/GD32VW55x_standard_peripheral/Source/gd32vw55x_i2c.c **** uint32_t i2c_pec_value_get(uint32_t i2c_periph)
 654:../Firmware/GD32VW55x_standard_peripheral/Source/gd32vw55x_i2c.c **** {
 1794              		.loc 1 654 1
 1795              		.cfi_startproc
 1796 0000 0111     		addi	sp,sp,-32
 1797              		.cfi_def_cfa_offset 32
 1798 0002 22CE     		sw	s0,28(sp)
 1799              		.cfi_offset 8, -4
 1800 0004 0010     		addi	s0,sp,32
 1801              		.cfi_def_cfa 8, 0
 1802 0006 2326A4FE 		sw	a0,-20(s0)
 655:../Firmware/GD32VW55x_standard_peripheral/Source/gd32vw55x_i2c.c ****     return (I2C_PEC(i2c_periph) & I2C_PEC_PECV);
 1803              		.loc 1 655 13
 1804 000a 8327C4FE 		lw	a5,-20(s0)
 1805 000e 93870702 		addi	a5,a5,32
 1806              		.loc 1 655 33
 1807 0012 9C43     		lw	a5,0(a5)
 1808 0014 93F7F70F 		andi	a5,a5,255
 656:../Firmware/GD32VW55x_standard_peripheral/Source/gd32vw55x_i2c.c **** }
 1809              		.loc 1 656 1
 1810 0018 3E85     		mv	a0,a5
 1811 001a 7244     		lw	s0,28(sp)
 1812              		.cfi_restore 8
 1813              		.cfi_def_cfa 2, 32
 1814 001c 0561     		addi	sp,sp,32
 1815              		.cfi_def_cfa_offset 0
 1816 001e 8280     		jr	ra
 1817              		.cfi_endproc
 1818              	.LFE390:
 1820              		.section	.text.i2c_smbus_alert_enable,"ax",@progbits
 1821              		.align	1
 1822              		.globl	i2c_smbus_alert_enable
 1824              	i2c_smbus_alert_enable:
 1825              	.LFB391:
 657:../Firmware/GD32VW55x_standard_peripheral/Source/gd32vw55x_i2c.c **** 
 658:../Firmware/GD32VW55x_standard_peripheral/Source/gd32vw55x_i2c.c **** /*!
 659:../Firmware/GD32VW55x_standard_peripheral/Source/gd32vw55x_i2c.c ****     \brief      enable SMBus alert
 660:../Firmware/GD32VW55x_standard_peripheral/Source/gd32vw55x_i2c.c ****     \param[in]  i2c_periph: I2Cx(x=0,1)
 661:../Firmware/GD32VW55x_standard_peripheral/Source/gd32vw55x_i2c.c ****     \param[out] none
 662:../Firmware/GD32VW55x_standard_peripheral/Source/gd32vw55x_i2c.c ****     \retval     none
 663:../Firmware/GD32VW55x_standard_peripheral/Source/gd32vw55x_i2c.c **** */
 664:../Firmware/GD32VW55x_standard_peripheral/Source/gd32vw55x_i2c.c **** void i2c_smbus_alert_enable(uint32_t i2c_periph)
 665:../Firmware/GD32VW55x_standard_peripheral/Source/gd32vw55x_i2c.c **** {
 1826              		.loc 1 665 1
 1827              		.cfi_startproc
 1828 0000 0111     		addi	sp,sp,-32
 1829              		.cfi_def_cfa_offset 32
 1830 0002 22CE     		sw	s0,28(sp)
 1831              		.cfi_offset 8, -4
 1832 0004 0010     		addi	s0,sp,32
 1833              		.cfi_def_cfa 8, 0
 1834 0006 2326A4FE 		sw	a0,-20(s0)
 666:../Firmware/GD32VW55x_standard_peripheral/Source/gd32vw55x_i2c.c ****     I2C_CTL0(i2c_periph) |= I2C_CTL0_SMBALTEN;
 1835              		.loc 1 666 26
 1836 000a 8327C4FE 		lw	a5,-20(s0)
 1837 000e 9443     		lw	a3,0(a5)
 1838 0010 8327C4FE 		lw	a5,-20(s0)
 1839 0014 37074000 		li	a4,4194304
 1840 0018 558F     		or	a4,a3,a4
 1841 001a 98C3     		sw	a4,0(a5)
 667:../Firmware/GD32VW55x_standard_peripheral/Source/gd32vw55x_i2c.c **** }
 1842              		.loc 1 667 1
 1843 001c 0100     		nop
 1844 001e 7244     		lw	s0,28(sp)
 1845              		.cfi_restore 8
 1846              		.cfi_def_cfa 2, 32
 1847 0020 0561     		addi	sp,sp,32
 1848              		.cfi_def_cfa_offset 0
 1849 0022 8280     		jr	ra
 1850              		.cfi_endproc
 1851              	.LFE391:
 1853              		.section	.text.i2c_smbus_alert_disable,"ax",@progbits
 1854              		.align	1
 1855              		.globl	i2c_smbus_alert_disable
 1857              	i2c_smbus_alert_disable:
 1858              	.LFB392:
 668:../Firmware/GD32VW55x_standard_peripheral/Source/gd32vw55x_i2c.c **** 
 669:../Firmware/GD32VW55x_standard_peripheral/Source/gd32vw55x_i2c.c **** /*!
 670:../Firmware/GD32VW55x_standard_peripheral/Source/gd32vw55x_i2c.c ****     \brief      disable SMBus alert
 671:../Firmware/GD32VW55x_standard_peripheral/Source/gd32vw55x_i2c.c ****     \param[in]  i2c_periph: I2Cx(x=0,1)
 672:../Firmware/GD32VW55x_standard_peripheral/Source/gd32vw55x_i2c.c ****     \param[out] none
 673:../Firmware/GD32VW55x_standard_peripheral/Source/gd32vw55x_i2c.c ****     \retval     none
 674:../Firmware/GD32VW55x_standard_peripheral/Source/gd32vw55x_i2c.c **** */
 675:../Firmware/GD32VW55x_standard_peripheral/Source/gd32vw55x_i2c.c **** void i2c_smbus_alert_disable(uint32_t i2c_periph)
 676:../Firmware/GD32VW55x_standard_peripheral/Source/gd32vw55x_i2c.c **** {
 1859              		.loc 1 676 1
 1860              		.cfi_startproc
 1861 0000 0111     		addi	sp,sp,-32
 1862              		.cfi_def_cfa_offset 32
 1863 0002 22CE     		sw	s0,28(sp)
 1864              		.cfi_offset 8, -4
 1865 0004 0010     		addi	s0,sp,32
 1866              		.cfi_def_cfa 8, 0
 1867 0006 2326A4FE 		sw	a0,-20(s0)
 677:../Firmware/GD32VW55x_standard_peripheral/Source/gd32vw55x_i2c.c ****     I2C_CTL0(i2c_periph) &= ~I2C_CTL0_SMBALTEN;
 1868              		.loc 1 677 26
 1869 000a 8327C4FE 		lw	a5,-20(s0)
 1870 000e 9443     		lw	a3,0(a5)
 1871 0010 8327C4FE 		lw	a5,-20(s0)
 1872 0014 3707C0FF 		li	a4,-4194304
 1873 0018 7D17     		addi	a4,a4,-1
 1874 001a 758F     		and	a4,a3,a4
 1875 001c 98C3     		sw	a4,0(a5)
 678:../Firmware/GD32VW55x_standard_peripheral/Source/gd32vw55x_i2c.c **** }
 1876              		.loc 1 678 1
 1877 001e 0100     		nop
 1878 0020 7244     		lw	s0,28(sp)
 1879              		.cfi_restore 8
 1880              		.cfi_def_cfa 2, 32
 1881 0022 0561     		addi	sp,sp,32
 1882              		.cfi_def_cfa_offset 0
 1883 0024 8280     		jr	ra
 1884              		.cfi_endproc
 1885              	.LFE392:
 1887              		.section	.text.i2c_smbus_default_addr_enable,"ax",@progbits
 1888              		.align	1
 1889              		.globl	i2c_smbus_default_addr_enable
 1891              	i2c_smbus_default_addr_enable:
 1892              	.LFB393:
 679:../Firmware/GD32VW55x_standard_peripheral/Source/gd32vw55x_i2c.c **** 
 680:../Firmware/GD32VW55x_standard_peripheral/Source/gd32vw55x_i2c.c **** /*!
 681:../Firmware/GD32VW55x_standard_peripheral/Source/gd32vw55x_i2c.c ****     \brief      enable SMBus device default address
 682:../Firmware/GD32VW55x_standard_peripheral/Source/gd32vw55x_i2c.c ****     \param[in]  i2c_periph: I2Cx(x=0,1)
 683:../Firmware/GD32VW55x_standard_peripheral/Source/gd32vw55x_i2c.c ****     \param[out] none
 684:../Firmware/GD32VW55x_standard_peripheral/Source/gd32vw55x_i2c.c ****     \retval     none
 685:../Firmware/GD32VW55x_standard_peripheral/Source/gd32vw55x_i2c.c **** */
 686:../Firmware/GD32VW55x_standard_peripheral/Source/gd32vw55x_i2c.c **** void i2c_smbus_default_addr_enable(uint32_t i2c_periph)
 687:../Firmware/GD32VW55x_standard_peripheral/Source/gd32vw55x_i2c.c **** {
 1893              		.loc 1 687 1
 1894              		.cfi_startproc
 1895 0000 0111     		addi	sp,sp,-32
 1896              		.cfi_def_cfa_offset 32
 1897 0002 22CE     		sw	s0,28(sp)
 1898              		.cfi_offset 8, -4
 1899 0004 0010     		addi	s0,sp,32
 1900              		.cfi_def_cfa 8, 0
 1901 0006 2326A4FE 		sw	a0,-20(s0)
 688:../Firmware/GD32VW55x_standard_peripheral/Source/gd32vw55x_i2c.c ****     I2C_CTL0(i2c_periph) |= I2C_CTL0_SMBDAEN;
 1902              		.loc 1 688 26
 1903 000a 8327C4FE 		lw	a5,-20(s0)
 1904 000e 9443     		lw	a3,0(a5)
 1905 0010 8327C4FE 		lw	a5,-20(s0)
 1906 0014 37072000 		li	a4,2097152
 1907 0018 558F     		or	a4,a3,a4
 1908 001a 98C3     		sw	a4,0(a5)
 689:../Firmware/GD32VW55x_standard_peripheral/Source/gd32vw55x_i2c.c **** }
 1909              		.loc 1 689 1
 1910 001c 0100     		nop
 1911 001e 7244     		lw	s0,28(sp)
 1912              		.cfi_restore 8
 1913              		.cfi_def_cfa 2, 32
 1914 0020 0561     		addi	sp,sp,32
 1915              		.cfi_def_cfa_offset 0
 1916 0022 8280     		jr	ra
 1917              		.cfi_endproc
 1918              	.LFE393:
 1920              		.section	.text.i2c_smbus_default_addr_disable,"ax",@progbits
 1921              		.align	1
 1922              		.globl	i2c_smbus_default_addr_disable
 1924              	i2c_smbus_default_addr_disable:
 1925              	.LFB394:
 690:../Firmware/GD32VW55x_standard_peripheral/Source/gd32vw55x_i2c.c **** 
 691:../Firmware/GD32VW55x_standard_peripheral/Source/gd32vw55x_i2c.c **** /*!
 692:../Firmware/GD32VW55x_standard_peripheral/Source/gd32vw55x_i2c.c ****     \brief      disable SMBus device default address
 693:../Firmware/GD32VW55x_standard_peripheral/Source/gd32vw55x_i2c.c ****     \param[in]  i2c_periph: I2Cx(x=0,1)
 694:../Firmware/GD32VW55x_standard_peripheral/Source/gd32vw55x_i2c.c ****     \param[out] none
 695:../Firmware/GD32VW55x_standard_peripheral/Source/gd32vw55x_i2c.c ****     \retval     none
 696:../Firmware/GD32VW55x_standard_peripheral/Source/gd32vw55x_i2c.c **** */
 697:../Firmware/GD32VW55x_standard_peripheral/Source/gd32vw55x_i2c.c **** void i2c_smbus_default_addr_disable(uint32_t i2c_periph)
 698:../Firmware/GD32VW55x_standard_peripheral/Source/gd32vw55x_i2c.c **** {
 1926              		.loc 1 698 1
 1927              		.cfi_startproc
 1928 0000 0111     		addi	sp,sp,-32
 1929              		.cfi_def_cfa_offset 32
 1930 0002 22CE     		sw	s0,28(sp)
 1931              		.cfi_offset 8, -4
 1932 0004 0010     		addi	s0,sp,32
 1933              		.cfi_def_cfa 8, 0
 1934 0006 2326A4FE 		sw	a0,-20(s0)
 699:../Firmware/GD32VW55x_standard_peripheral/Source/gd32vw55x_i2c.c ****     I2C_CTL0(i2c_periph) &= ~I2C_CTL0_SMBDAEN;
 1935              		.loc 1 699 26
 1936 000a 8327C4FE 		lw	a5,-20(s0)
 1937 000e 9443     		lw	a3,0(a5)
 1938 0010 8327C4FE 		lw	a5,-20(s0)
 1939 0014 3707E0FF 		li	a4,-2097152
 1940 0018 7D17     		addi	a4,a4,-1
 1941 001a 758F     		and	a4,a3,a4
 1942 001c 98C3     		sw	a4,0(a5)
 700:../Firmware/GD32VW55x_standard_peripheral/Source/gd32vw55x_i2c.c **** }
 1943              		.loc 1 700 1
 1944 001e 0100     		nop
 1945 0020 7244     		lw	s0,28(sp)
 1946              		.cfi_restore 8
 1947              		.cfi_def_cfa 2, 32
 1948 0022 0561     		addi	sp,sp,32
 1949              		.cfi_def_cfa_offset 0
 1950 0024 8280     		jr	ra
 1951              		.cfi_endproc
 1952              	.LFE394:
 1954              		.section	.text.i2c_smbus_host_addr_enable,"ax",@progbits
 1955              		.align	1
 1956              		.globl	i2c_smbus_host_addr_enable
 1958              	i2c_smbus_host_addr_enable:
 1959              	.LFB395:
 701:../Firmware/GD32VW55x_standard_peripheral/Source/gd32vw55x_i2c.c **** 
 702:../Firmware/GD32VW55x_standard_peripheral/Source/gd32vw55x_i2c.c **** /*!
 703:../Firmware/GD32VW55x_standard_peripheral/Source/gd32vw55x_i2c.c ****     \brief      enable SMBus Host address
 704:../Firmware/GD32VW55x_standard_peripheral/Source/gd32vw55x_i2c.c ****     \param[in]  i2c_periph: I2Cx(x=0,1)
 705:../Firmware/GD32VW55x_standard_peripheral/Source/gd32vw55x_i2c.c ****     \param[out] none
 706:../Firmware/GD32VW55x_standard_peripheral/Source/gd32vw55x_i2c.c ****     \retval     none
 707:../Firmware/GD32VW55x_standard_peripheral/Source/gd32vw55x_i2c.c **** */
 708:../Firmware/GD32VW55x_standard_peripheral/Source/gd32vw55x_i2c.c **** void i2c_smbus_host_addr_enable(uint32_t i2c_periph)
 709:../Firmware/GD32VW55x_standard_peripheral/Source/gd32vw55x_i2c.c **** {
 1960              		.loc 1 709 1
 1961              		.cfi_startproc
 1962 0000 0111     		addi	sp,sp,-32
 1963              		.cfi_def_cfa_offset 32
 1964 0002 22CE     		sw	s0,28(sp)
 1965              		.cfi_offset 8, -4
 1966 0004 0010     		addi	s0,sp,32
 1967              		.cfi_def_cfa 8, 0
 1968 0006 2326A4FE 		sw	a0,-20(s0)
 710:../Firmware/GD32VW55x_standard_peripheral/Source/gd32vw55x_i2c.c ****     I2C_CTL0(i2c_periph) |= I2C_CTL0_SMBHAEN;
 1969              		.loc 1 710 26
 1970 000a 8327C4FE 		lw	a5,-20(s0)
 1971 000e 9443     		lw	a3,0(a5)
 1972 0010 8327C4FE 		lw	a5,-20(s0)
 1973 0014 37071000 		li	a4,1048576
 1974 0018 558F     		or	a4,a3,a4
 1975 001a 98C3     		sw	a4,0(a5)
 711:../Firmware/GD32VW55x_standard_peripheral/Source/gd32vw55x_i2c.c **** }
 1976              		.loc 1 711 1
 1977 001c 0100     		nop
 1978 001e 7244     		lw	s0,28(sp)
 1979              		.cfi_restore 8
 1980              		.cfi_def_cfa 2, 32
 1981 0020 0561     		addi	sp,sp,32
 1982              		.cfi_def_cfa_offset 0
 1983 0022 8280     		jr	ra
 1984              		.cfi_endproc
 1985              	.LFE395:
 1987              		.section	.text.i2c_smbus_host_addr_disable,"ax",@progbits
 1988              		.align	1
 1989              		.globl	i2c_smbus_host_addr_disable
 1991              	i2c_smbus_host_addr_disable:
 1992              	.LFB396:
 712:../Firmware/GD32VW55x_standard_peripheral/Source/gd32vw55x_i2c.c **** 
 713:../Firmware/GD32VW55x_standard_peripheral/Source/gd32vw55x_i2c.c **** /*!
 714:../Firmware/GD32VW55x_standard_peripheral/Source/gd32vw55x_i2c.c ****     \brief      disable SMBus Host address
 715:../Firmware/GD32VW55x_standard_peripheral/Source/gd32vw55x_i2c.c ****     \param[in]  i2c_periph: I2Cx(x=0,1)
 716:../Firmware/GD32VW55x_standard_peripheral/Source/gd32vw55x_i2c.c ****     \param[out] none
 717:../Firmware/GD32VW55x_standard_peripheral/Source/gd32vw55x_i2c.c ****     \retval     none
 718:../Firmware/GD32VW55x_standard_peripheral/Source/gd32vw55x_i2c.c **** */
 719:../Firmware/GD32VW55x_standard_peripheral/Source/gd32vw55x_i2c.c **** void i2c_smbus_host_addr_disable(uint32_t i2c_periph)
 720:../Firmware/GD32VW55x_standard_peripheral/Source/gd32vw55x_i2c.c **** {
 1993              		.loc 1 720 1
 1994              		.cfi_startproc
 1995 0000 0111     		addi	sp,sp,-32
 1996              		.cfi_def_cfa_offset 32
 1997 0002 22CE     		sw	s0,28(sp)
 1998              		.cfi_offset 8, -4
 1999 0004 0010     		addi	s0,sp,32
 2000              		.cfi_def_cfa 8, 0
 2001 0006 2326A4FE 		sw	a0,-20(s0)
 721:../Firmware/GD32VW55x_standard_peripheral/Source/gd32vw55x_i2c.c ****     I2C_CTL0(i2c_periph) &= ~I2C_CTL0_SMBHAEN;
 2002              		.loc 1 721 26
 2003 000a 8327C4FE 		lw	a5,-20(s0)
 2004 000e 9443     		lw	a3,0(a5)
 2005 0010 8327C4FE 		lw	a5,-20(s0)
 2006 0014 3707F0FF 		li	a4,-1048576
 2007 0018 7D17     		addi	a4,a4,-1
 2008 001a 758F     		and	a4,a3,a4
 2009 001c 98C3     		sw	a4,0(a5)
 722:../Firmware/GD32VW55x_standard_peripheral/Source/gd32vw55x_i2c.c **** }
 2010              		.loc 1 722 1
 2011 001e 0100     		nop
 2012 0020 7244     		lw	s0,28(sp)
 2013              		.cfi_restore 8
 2014              		.cfi_def_cfa 2, 32
 2015 0022 0561     		addi	sp,sp,32
 2016              		.cfi_def_cfa_offset 0
 2017 0024 8280     		jr	ra
 2018              		.cfi_endproc
 2019              	.LFE396:
 2021              		.section	.text.i2c_extented_clock_timeout_enable,"ax",@progbits
 2022              		.align	1
 2023              		.globl	i2c_extented_clock_timeout_enable
 2025              	i2c_extented_clock_timeout_enable:
 2026              	.LFB397:
 723:../Firmware/GD32VW55x_standard_peripheral/Source/gd32vw55x_i2c.c **** 
 724:../Firmware/GD32VW55x_standard_peripheral/Source/gd32vw55x_i2c.c **** /*!
 725:../Firmware/GD32VW55x_standard_peripheral/Source/gd32vw55x_i2c.c ****     \brief      enable extended clock timeout detection
 726:../Firmware/GD32VW55x_standard_peripheral/Source/gd32vw55x_i2c.c ****     \param[in]  i2c_periph: I2Cx(x=0,1)
 727:../Firmware/GD32VW55x_standard_peripheral/Source/gd32vw55x_i2c.c ****     \param[out] none
 728:../Firmware/GD32VW55x_standard_peripheral/Source/gd32vw55x_i2c.c ****     \retval     none
 729:../Firmware/GD32VW55x_standard_peripheral/Source/gd32vw55x_i2c.c **** */
 730:../Firmware/GD32VW55x_standard_peripheral/Source/gd32vw55x_i2c.c **** void i2c_extented_clock_timeout_enable(uint32_t i2c_periph)
 731:../Firmware/GD32VW55x_standard_peripheral/Source/gd32vw55x_i2c.c **** {
 2027              		.loc 1 731 1
 2028              		.cfi_startproc
 2029 0000 0111     		addi	sp,sp,-32
 2030              		.cfi_def_cfa_offset 32
 2031 0002 22CE     		sw	s0,28(sp)
 2032              		.cfi_offset 8, -4
 2033 0004 0010     		addi	s0,sp,32
 2034              		.cfi_def_cfa 8, 0
 2035 0006 2326A4FE 		sw	a0,-20(s0)
 732:../Firmware/GD32VW55x_standard_peripheral/Source/gd32vw55x_i2c.c ****     I2C_TIMEOUT(i2c_periph) |= I2C_TIMEOUT_EXTOEN;
 2036              		.loc 1 732 29
 2037 000a 8327C4FE 		lw	a5,-20(s0)
 2038 000e D107     		addi	a5,a5,20
 2039 0010 9843     		lw	a4,0(a5)
 2040 0012 8327C4FE 		lw	a5,-20(s0)
 2041 0016 D107     		addi	a5,a5,20
 2042 0018 BE86     		mv	a3,a5
 2043 001a B7070080 		li	a5,-2147483648
 2044 001e D98F     		or	a5,a4,a5
 2045 0020 9CC2     		sw	a5,0(a3)
 733:../Firmware/GD32VW55x_standard_peripheral/Source/gd32vw55x_i2c.c **** }
 2046              		.loc 1 733 1
 2047 0022 0100     		nop
 2048 0024 7244     		lw	s0,28(sp)
 2049              		.cfi_restore 8
 2050              		.cfi_def_cfa 2, 32
 2051 0026 0561     		addi	sp,sp,32
 2052              		.cfi_def_cfa_offset 0
 2053 0028 8280     		jr	ra
 2054              		.cfi_endproc
 2055              	.LFE397:
 2057              		.section	.text.i2c_extented_clock_timeout_disable,"ax",@progbits
 2058              		.align	1
 2059              		.globl	i2c_extented_clock_timeout_disable
 2061              	i2c_extented_clock_timeout_disable:
 2062              	.LFB398:
 734:../Firmware/GD32VW55x_standard_peripheral/Source/gd32vw55x_i2c.c **** 
 735:../Firmware/GD32VW55x_standard_peripheral/Source/gd32vw55x_i2c.c **** /*!
 736:../Firmware/GD32VW55x_standard_peripheral/Source/gd32vw55x_i2c.c ****     \brief      disable extended clock timeout detection
 737:../Firmware/GD32VW55x_standard_peripheral/Source/gd32vw55x_i2c.c ****     \param[in]  i2c_periph: I2Cx(x=0,1)
 738:../Firmware/GD32VW55x_standard_peripheral/Source/gd32vw55x_i2c.c ****     \param[out] none
 739:../Firmware/GD32VW55x_standard_peripheral/Source/gd32vw55x_i2c.c ****     \retval     none
 740:../Firmware/GD32VW55x_standard_peripheral/Source/gd32vw55x_i2c.c **** */
 741:../Firmware/GD32VW55x_standard_peripheral/Source/gd32vw55x_i2c.c **** void i2c_extented_clock_timeout_disable(uint32_t i2c_periph)
 742:../Firmware/GD32VW55x_standard_peripheral/Source/gd32vw55x_i2c.c **** {
 2063              		.loc 1 742 1
 2064              		.cfi_startproc
 2065 0000 0111     		addi	sp,sp,-32
 2066              		.cfi_def_cfa_offset 32
 2067 0002 22CE     		sw	s0,28(sp)
 2068              		.cfi_offset 8, -4
 2069 0004 0010     		addi	s0,sp,32
 2070              		.cfi_def_cfa 8, 0
 2071 0006 2326A4FE 		sw	a0,-20(s0)
 743:../Firmware/GD32VW55x_standard_peripheral/Source/gd32vw55x_i2c.c ****     I2C_TIMEOUT(i2c_periph) &= ~I2C_TIMEOUT_EXTOEN;
 2072              		.loc 1 743 29
 2073 000a 8327C4FE 		lw	a5,-20(s0)
 2074 000e D107     		addi	a5,a5,20
 2075 0010 9843     		lw	a4,0(a5)
 2076 0012 8327C4FE 		lw	a5,-20(s0)
 2077 0016 D107     		addi	a5,a5,20
 2078 0018 BE86     		mv	a3,a5
 2079 001a B7070080 		li	a5,-2147483648
 2080 001e 93C7F7FF 		xori	a5,a5,-1
 2081 0022 F98F     		and	a5,a4,a5
 2082 0024 9CC2     		sw	a5,0(a3)
 744:../Firmware/GD32VW55x_standard_peripheral/Source/gd32vw55x_i2c.c **** }
 2083              		.loc 1 744 1
 2084 0026 0100     		nop
 2085 0028 7244     		lw	s0,28(sp)
 2086              		.cfi_restore 8
 2087              		.cfi_def_cfa 2, 32
 2088 002a 0561     		addi	sp,sp,32
 2089              		.cfi_def_cfa_offset 0
 2090 002c 8280     		jr	ra
 2091              		.cfi_endproc
 2092              	.LFE398:
 2094              		.section	.text.i2c_clock_timeout_enable,"ax",@progbits
 2095              		.align	1
 2096              		.globl	i2c_clock_timeout_enable
 2098              	i2c_clock_timeout_enable:
 2099              	.LFB399:
 745:../Firmware/GD32VW55x_standard_peripheral/Source/gd32vw55x_i2c.c **** 
 746:../Firmware/GD32VW55x_standard_peripheral/Source/gd32vw55x_i2c.c **** /*!
 747:../Firmware/GD32VW55x_standard_peripheral/Source/gd32vw55x_i2c.c ****     \brief      enable clock timeout detection
 748:../Firmware/GD32VW55x_standard_peripheral/Source/gd32vw55x_i2c.c ****     \param[in]  i2c_periph: I2Cx(x=0,1)
 749:../Firmware/GD32VW55x_standard_peripheral/Source/gd32vw55x_i2c.c ****     \param[out] none
 750:../Firmware/GD32VW55x_standard_peripheral/Source/gd32vw55x_i2c.c ****     \retval     none
 751:../Firmware/GD32VW55x_standard_peripheral/Source/gd32vw55x_i2c.c **** */
 752:../Firmware/GD32VW55x_standard_peripheral/Source/gd32vw55x_i2c.c **** void i2c_clock_timeout_enable(uint32_t i2c_periph)
 753:../Firmware/GD32VW55x_standard_peripheral/Source/gd32vw55x_i2c.c **** {
 2100              		.loc 1 753 1
 2101              		.cfi_startproc
 2102 0000 0111     		addi	sp,sp,-32
 2103              		.cfi_def_cfa_offset 32
 2104 0002 22CE     		sw	s0,28(sp)
 2105              		.cfi_offset 8, -4
 2106 0004 0010     		addi	s0,sp,32
 2107              		.cfi_def_cfa 8, 0
 2108 0006 2326A4FE 		sw	a0,-20(s0)
 754:../Firmware/GD32VW55x_standard_peripheral/Source/gd32vw55x_i2c.c ****     I2C_TIMEOUT(i2c_periph) |= I2C_TIMEOUT_TOEN;
 2109              		.loc 1 754 29
 2110 000a 8327C4FE 		lw	a5,-20(s0)
 2111 000e D107     		addi	a5,a5,20
 2112 0010 9843     		lw	a4,0(a5)
 2113 0012 8327C4FE 		lw	a5,-20(s0)
 2114 0016 D107     		addi	a5,a5,20
 2115 0018 BE86     		mv	a3,a5
 2116 001a A167     		li	a5,32768
 2117 001c D98F     		or	a5,a4,a5
 2118 001e 9CC2     		sw	a5,0(a3)
 755:../Firmware/GD32VW55x_standard_peripheral/Source/gd32vw55x_i2c.c **** }
 2119              		.loc 1 755 1
 2120 0020 0100     		nop
 2121 0022 7244     		lw	s0,28(sp)
 2122              		.cfi_restore 8
 2123              		.cfi_def_cfa 2, 32
 2124 0024 0561     		addi	sp,sp,32
 2125              		.cfi_def_cfa_offset 0
 2126 0026 8280     		jr	ra
 2127              		.cfi_endproc
 2128              	.LFE399:
 2130              		.section	.text.i2c_clock_timeout_disable,"ax",@progbits
 2131              		.align	1
 2132              		.globl	i2c_clock_timeout_disable
 2134              	i2c_clock_timeout_disable:
 2135              	.LFB400:
 756:../Firmware/GD32VW55x_standard_peripheral/Source/gd32vw55x_i2c.c **** 
 757:../Firmware/GD32VW55x_standard_peripheral/Source/gd32vw55x_i2c.c **** /*!
 758:../Firmware/GD32VW55x_standard_peripheral/Source/gd32vw55x_i2c.c ****     \brief      disable clock timeout detection
 759:../Firmware/GD32VW55x_standard_peripheral/Source/gd32vw55x_i2c.c ****     \param[in]  i2c_periph: I2Cx(x=0,1)
 760:../Firmware/GD32VW55x_standard_peripheral/Source/gd32vw55x_i2c.c ****     \param[out] none
 761:../Firmware/GD32VW55x_standard_peripheral/Source/gd32vw55x_i2c.c ****     \retval     none
 762:../Firmware/GD32VW55x_standard_peripheral/Source/gd32vw55x_i2c.c **** */
 763:../Firmware/GD32VW55x_standard_peripheral/Source/gd32vw55x_i2c.c **** void i2c_clock_timeout_disable(uint32_t i2c_periph)
 764:../Firmware/GD32VW55x_standard_peripheral/Source/gd32vw55x_i2c.c **** {
 2136              		.loc 1 764 1
 2137              		.cfi_startproc
 2138 0000 0111     		addi	sp,sp,-32
 2139              		.cfi_def_cfa_offset 32
 2140 0002 22CE     		sw	s0,28(sp)
 2141              		.cfi_offset 8, -4
 2142 0004 0010     		addi	s0,sp,32
 2143              		.cfi_def_cfa 8, 0
 2144 0006 2326A4FE 		sw	a0,-20(s0)
 765:../Firmware/GD32VW55x_standard_peripheral/Source/gd32vw55x_i2c.c ****     I2C_TIMEOUT(i2c_periph) &= ~I2C_TIMEOUT_TOEN;
 2145              		.loc 1 765 29
 2146 000a 8327C4FE 		lw	a5,-20(s0)
 2147 000e D107     		addi	a5,a5,20
 2148 0010 9843     		lw	a4,0(a5)
 2149 0012 8327C4FE 		lw	a5,-20(s0)
 2150 0016 D107     		addi	a5,a5,20
 2151 0018 BE86     		mv	a3,a5
 2152 001a E177     		li	a5,-32768
 2153 001c FD17     		addi	a5,a5,-1
 2154 001e F98F     		and	a5,a4,a5
 2155 0020 9CC2     		sw	a5,0(a3)
 766:../Firmware/GD32VW55x_standard_peripheral/Source/gd32vw55x_i2c.c **** }
 2156              		.loc 1 766 1
 2157 0022 0100     		nop
 2158 0024 7244     		lw	s0,28(sp)
 2159              		.cfi_restore 8
 2160              		.cfi_def_cfa 2, 32
 2161 0026 0561     		addi	sp,sp,32
 2162              		.cfi_def_cfa_offset 0
 2163 0028 8280     		jr	ra
 2164              		.cfi_endproc
 2165              	.LFE400:
 2167              		.section	.text.i2c_bus_timeout_b_config,"ax",@progbits
 2168              		.align	1
 2169              		.globl	i2c_bus_timeout_b_config
 2171              	i2c_bus_timeout_b_config:
 2172              	.LFB401:
 767:../Firmware/GD32VW55x_standard_peripheral/Source/gd32vw55x_i2c.c **** 
 768:../Firmware/GD32VW55x_standard_peripheral/Source/gd32vw55x_i2c.c **** /*!
 769:../Firmware/GD32VW55x_standard_peripheral/Source/gd32vw55x_i2c.c ****     \brief      configure bus timeout B
 770:../Firmware/GD32VW55x_standard_peripheral/Source/gd32vw55x_i2c.c ****     \param[in]  i2c_periph: I2Cx(x=0,1)
 771:../Firmware/GD32VW55x_standard_peripheral/Source/gd32vw55x_i2c.c ****     \param[in]  timeout: bus timeout B
 772:../Firmware/GD32VW55x_standard_peripheral/Source/gd32vw55x_i2c.c ****     \param[out] none
 773:../Firmware/GD32VW55x_standard_peripheral/Source/gd32vw55x_i2c.c ****     \retval     none
 774:../Firmware/GD32VW55x_standard_peripheral/Source/gd32vw55x_i2c.c **** */
 775:../Firmware/GD32VW55x_standard_peripheral/Source/gd32vw55x_i2c.c **** void i2c_bus_timeout_b_config(uint32_t i2c_periph, uint32_t timeout)
 776:../Firmware/GD32VW55x_standard_peripheral/Source/gd32vw55x_i2c.c **** {
 2173              		.loc 1 776 1
 2174              		.cfi_startproc
 2175 0000 0111     		addi	sp,sp,-32
 2176              		.cfi_def_cfa_offset 32
 2177 0002 22CE     		sw	s0,28(sp)
 2178              		.cfi_offset 8, -4
 2179 0004 0010     		addi	s0,sp,32
 2180              		.cfi_def_cfa 8, 0
 2181 0006 2326A4FE 		sw	a0,-20(s0)
 2182 000a 2324B4FE 		sw	a1,-24(s0)
 777:../Firmware/GD32VW55x_standard_peripheral/Source/gd32vw55x_i2c.c ****     I2C_TIMEOUT(i2c_periph) &= ~I2C_TIMEOUT_BUSTOB;
 2183              		.loc 1 777 29
 2184 000e 8327C4FE 		lw	a5,-20(s0)
 2185 0012 D107     		addi	a5,a5,20
 2186 0014 9843     		lw	a4,0(a5)
 2187 0016 8327C4FE 		lw	a5,-20(s0)
 2188 001a D107     		addi	a5,a5,20
 2189 001c BE86     		mv	a3,a5
 2190 001e B70701F0 		li	a5,-268369920
 2191 0022 FD17     		addi	a5,a5,-1
 2192 0024 F98F     		and	a5,a4,a5
 2193 0026 9CC2     		sw	a5,0(a3)
 778:../Firmware/GD32VW55x_standard_peripheral/Source/gd32vw55x_i2c.c ****     I2C_TIMEOUT(i2c_periph) |= (uint32_t)(timeout << TIMEOUT_BUSTOB_OFFSET);
 2194              		.loc 1 778 29
 2195 0028 8327C4FE 		lw	a5,-20(s0)
 2196 002c D107     		addi	a5,a5,20
 2197 002e 9843     		lw	a4,0(a5)
 2198              		.loc 1 778 51
 2199 0030 832784FE 		lw	a5,-24(s0)
 2200 0034 C207     		slli	a5,a5,16
 2201              		.loc 1 778 29
 2202 0036 8326C4FE 		lw	a3,-20(s0)
 2203 003a D106     		addi	a3,a3,20
 2204 003c D98F     		or	a5,a4,a5
 2205 003e 9CC2     		sw	a5,0(a3)
 779:../Firmware/GD32VW55x_standard_peripheral/Source/gd32vw55x_i2c.c **** }
 2206              		.loc 1 779 1
 2207 0040 0100     		nop
 2208 0042 7244     		lw	s0,28(sp)
 2209              		.cfi_restore 8
 2210              		.cfi_def_cfa 2, 32
 2211 0044 0561     		addi	sp,sp,32
 2212              		.cfi_def_cfa_offset 0
 2213 0046 8280     		jr	ra
 2214              		.cfi_endproc
 2215              	.LFE401:
 2217              		.section	.text.i2c_bus_timeout_a_config,"ax",@progbits
 2218              		.align	1
 2219              		.globl	i2c_bus_timeout_a_config
 2221              	i2c_bus_timeout_a_config:
 2222              	.LFB402:
 780:../Firmware/GD32VW55x_standard_peripheral/Source/gd32vw55x_i2c.c **** 
 781:../Firmware/GD32VW55x_standard_peripheral/Source/gd32vw55x_i2c.c **** /*!
 782:../Firmware/GD32VW55x_standard_peripheral/Source/gd32vw55x_i2c.c ****     \brief      configure bus timeout A
 783:../Firmware/GD32VW55x_standard_peripheral/Source/gd32vw55x_i2c.c ****     \param[in]  i2c_periph: I2Cx(x=0,1)
 784:../Firmware/GD32VW55x_standard_peripheral/Source/gd32vw55x_i2c.c ****     \param[in]  timeout: bus timeout A
 785:../Firmware/GD32VW55x_standard_peripheral/Source/gd32vw55x_i2c.c ****     \param[out] none
 786:../Firmware/GD32VW55x_standard_peripheral/Source/gd32vw55x_i2c.c ****     \retval     none
 787:../Firmware/GD32VW55x_standard_peripheral/Source/gd32vw55x_i2c.c **** */
 788:../Firmware/GD32VW55x_standard_peripheral/Source/gd32vw55x_i2c.c **** void i2c_bus_timeout_a_config(uint32_t i2c_periph, uint32_t timeout)
 789:../Firmware/GD32VW55x_standard_peripheral/Source/gd32vw55x_i2c.c **** {
 2223              		.loc 1 789 1
 2224              		.cfi_startproc
 2225 0000 0111     		addi	sp,sp,-32
 2226              		.cfi_def_cfa_offset 32
 2227 0002 22CE     		sw	s0,28(sp)
 2228              		.cfi_offset 8, -4
 2229 0004 0010     		addi	s0,sp,32
 2230              		.cfi_def_cfa 8, 0
 2231 0006 2326A4FE 		sw	a0,-20(s0)
 2232 000a 2324B4FE 		sw	a1,-24(s0)
 790:../Firmware/GD32VW55x_standard_peripheral/Source/gd32vw55x_i2c.c ****     I2C_TIMEOUT(i2c_periph) &= ~I2C_TIMEOUT_BUSTOA;
 2233              		.loc 1 790 29
 2234 000e 8327C4FE 		lw	a5,-20(s0)
 2235 0012 D107     		addi	a5,a5,20
 2236 0014 9843     		lw	a4,0(a5)
 2237 0016 8327C4FE 		lw	a5,-20(s0)
 2238 001a D107     		addi	a5,a5,20
 2239 001c BE86     		mv	a3,a5
 2240 001e FD77     		li	a5,-4096
 2241 0020 F98F     		and	a5,a4,a5
 2242 0022 9CC2     		sw	a5,0(a3)
 791:../Firmware/GD32VW55x_standard_peripheral/Source/gd32vw55x_i2c.c ****     I2C_TIMEOUT(i2c_periph) |= timeout;
 2243              		.loc 1 791 29
 2244 0024 8327C4FE 		lw	a5,-20(s0)
 2245 0028 D107     		addi	a5,a5,20
 2246 002a 9843     		lw	a4,0(a5)
 2247 002c 8327C4FE 		lw	a5,-20(s0)
 2248 0030 D107     		addi	a5,a5,20
 2249 0032 BE86     		mv	a3,a5
 2250 0034 832784FE 		lw	a5,-24(s0)
 2251 0038 D98F     		or	a5,a4,a5
 2252 003a 9CC2     		sw	a5,0(a3)
 792:../Firmware/GD32VW55x_standard_peripheral/Source/gd32vw55x_i2c.c **** }
 2253              		.loc 1 792 1
 2254 003c 0100     		nop
 2255 003e 7244     		lw	s0,28(sp)
 2256              		.cfi_restore 8
 2257              		.cfi_def_cfa 2, 32
 2258 0040 0561     		addi	sp,sp,32
 2259              		.cfi_def_cfa_offset 0
 2260 0042 8280     		jr	ra
 2261              		.cfi_endproc
 2262              	.LFE402:
 2264              		.section	.text.i2c_idle_clock_timeout_config,"ax",@progbits
 2265              		.align	1
 2266              		.globl	i2c_idle_clock_timeout_config
 2268              	i2c_idle_clock_timeout_config:
 2269              	.LFB403:
 793:../Firmware/GD32VW55x_standard_peripheral/Source/gd32vw55x_i2c.c **** 
 794:../Firmware/GD32VW55x_standard_peripheral/Source/gd32vw55x_i2c.c **** /*!
 795:../Firmware/GD32VW55x_standard_peripheral/Source/gd32vw55x_i2c.c ****     \brief      configure idle clock timeout detection
 796:../Firmware/GD32VW55x_standard_peripheral/Source/gd32vw55x_i2c.c ****     \param[in]  i2c_periph: I2Cx(x=0,1)
 797:../Firmware/GD32VW55x_standard_peripheral/Source/gd32vw55x_i2c.c ****     \param[in]  timeout: bus timeout A
 798:../Firmware/GD32VW55x_standard_peripheral/Source/gd32vw55x_i2c.c ****       \arg        BUSTOA_DETECT_SCL_LOW: BUSTOA is used to detect SCL low timeout
 799:../Firmware/GD32VW55x_standard_peripheral/Source/gd32vw55x_i2c.c ****       \arg        BUSTOA_DETECT_IDLE: BUSTOA is used to detect both SCL and SDA high timeout when t
 800:../Firmware/GD32VW55x_standard_peripheral/Source/gd32vw55x_i2c.c ****     \param[out] none
 801:../Firmware/GD32VW55x_standard_peripheral/Source/gd32vw55x_i2c.c ****     \retval     none
 802:../Firmware/GD32VW55x_standard_peripheral/Source/gd32vw55x_i2c.c **** */
 803:../Firmware/GD32VW55x_standard_peripheral/Source/gd32vw55x_i2c.c **** void i2c_idle_clock_timeout_config(uint32_t i2c_periph, uint32_t timeout)
 804:../Firmware/GD32VW55x_standard_peripheral/Source/gd32vw55x_i2c.c **** {
 2270              		.loc 1 804 1
 2271              		.cfi_startproc
 2272 0000 0111     		addi	sp,sp,-32
 2273              		.cfi_def_cfa_offset 32
 2274 0002 22CE     		sw	s0,28(sp)
 2275              		.cfi_offset 8, -4
 2276 0004 0010     		addi	s0,sp,32
 2277              		.cfi_def_cfa 8, 0
 2278 0006 2326A4FE 		sw	a0,-20(s0)
 2279 000a 2324B4FE 		sw	a1,-24(s0)
 805:../Firmware/GD32VW55x_standard_peripheral/Source/gd32vw55x_i2c.c ****     I2C_TIMEOUT(i2c_periph) &= ~I2C_TIMEOUT_TOIDLE;
 2280              		.loc 1 805 29
 2281 000e 8327C4FE 		lw	a5,-20(s0)
 2282 0012 D107     		addi	a5,a5,20
 2283 0014 9843     		lw	a4,0(a5)
 2284 0016 8327C4FE 		lw	a5,-20(s0)
 2285 001a D107     		addi	a5,a5,20
 2286 001c BE86     		mv	a3,a5
 2287 001e FD77     		li	a5,-4096
 2288 0020 FD17     		addi	a5,a5,-1
 2289 0022 F98F     		and	a5,a4,a5
 2290 0024 9CC2     		sw	a5,0(a3)
 806:../Firmware/GD32VW55x_standard_peripheral/Source/gd32vw55x_i2c.c ****     I2C_TIMEOUT(i2c_periph) |= timeout;
 2291              		.loc 1 806 29
 2292 0026 8327C4FE 		lw	a5,-20(s0)
 2293 002a D107     		addi	a5,a5,20
 2294 002c 9843     		lw	a4,0(a5)
 2295 002e 8327C4FE 		lw	a5,-20(s0)
 2296 0032 D107     		addi	a5,a5,20
 2297 0034 BE86     		mv	a3,a5
 2298 0036 832784FE 		lw	a5,-24(s0)
 2299 003a D98F     		or	a5,a4,a5
 2300 003c 9CC2     		sw	a5,0(a3)
 807:../Firmware/GD32VW55x_standard_peripheral/Source/gd32vw55x_i2c.c **** }
 2301              		.loc 1 807 1
 2302 003e 0100     		nop
 2303 0040 7244     		lw	s0,28(sp)
 2304              		.cfi_restore 8
 2305              		.cfi_def_cfa 2, 32
 2306 0042 0561     		addi	sp,sp,32
 2307              		.cfi_def_cfa_offset 0
 2308 0044 8280     		jr	ra
 2309              		.cfi_endproc
 2310              	.LFE403:
 2312              		.section	.text.i2c_flag_get,"ax",@progbits
 2313              		.align	1
 2314              		.globl	i2c_flag_get
 2316              	i2c_flag_get:
 2317              	.LFB404:
 808:../Firmware/GD32VW55x_standard_peripheral/Source/gd32vw55x_i2c.c **** 
 809:../Firmware/GD32VW55x_standard_peripheral/Source/gd32vw55x_i2c.c **** /*!
 810:../Firmware/GD32VW55x_standard_peripheral/Source/gd32vw55x_i2c.c ****     \brief      get I2C flag status
 811:../Firmware/GD32VW55x_standard_peripheral/Source/gd32vw55x_i2c.c ****     \param[in]  i2c_periph: I2Cx(x=0,1)
 812:../Firmware/GD32VW55x_standard_peripheral/Source/gd32vw55x_i2c.c ****     \param[in]  flag: I2C flags
 813:../Firmware/GD32VW55x_standard_peripheral/Source/gd32vw55x_i2c.c ****                 only one parameter can be selected which is shown as below:
 814:../Firmware/GD32VW55x_standard_peripheral/Source/gd32vw55x_i2c.c ****       \arg        I2C_FLAG_TBE: I2C_TDATA is empty during transmitting
 815:../Firmware/GD32VW55x_standard_peripheral/Source/gd32vw55x_i2c.c ****       \arg        I2C_FLAG_TI: transmit interrupt
 816:../Firmware/GD32VW55x_standard_peripheral/Source/gd32vw55x_i2c.c ****       \arg        I2C_FLAG_RBNE: I2C_RDATA is not empty during receiving
 817:../Firmware/GD32VW55x_standard_peripheral/Source/gd32vw55x_i2c.c ****       \arg        I2C_FLAG_ADDSEND: address received matches in slave mode
 818:../Firmware/GD32VW55x_standard_peripheral/Source/gd32vw55x_i2c.c ****       \arg        I2C_FLAG_NACK: not acknowledge flag
 819:../Firmware/GD32VW55x_standard_peripheral/Source/gd32vw55x_i2c.c ****       \arg        I2C_FLAG_STPDET: STOP condition detected in slave mode
 820:../Firmware/GD32VW55x_standard_peripheral/Source/gd32vw55x_i2c.c ****       \arg        I2C_FLAG_TC: transfer complete in master mode
 821:../Firmware/GD32VW55x_standard_peripheral/Source/gd32vw55x_i2c.c ****       \arg        I2C_FLAG_TCR: transfer complete reload
 822:../Firmware/GD32VW55x_standard_peripheral/Source/gd32vw55x_i2c.c ****       \arg        I2C_FLAG_BERR: bus error
 823:../Firmware/GD32VW55x_standard_peripheral/Source/gd32vw55x_i2c.c ****       \arg        I2C_FLAG_LOSTARB: arbitration Lost
 824:../Firmware/GD32VW55x_standard_peripheral/Source/gd32vw55x_i2c.c ****       \arg        I2C_FLAG_OUERR: overrun/underrun error in slave mode
 825:../Firmware/GD32VW55x_standard_peripheral/Source/gd32vw55x_i2c.c ****       \arg        I2C_FLAG_PECERR: PEC error
 826:../Firmware/GD32VW55x_standard_peripheral/Source/gd32vw55x_i2c.c ****       \arg        I2C_FLAG_TIMEOUT: timeout flag
 827:../Firmware/GD32VW55x_standard_peripheral/Source/gd32vw55x_i2c.c ****       \arg        I2C_FLAG_SMBALT: SMBus alert
 828:../Firmware/GD32VW55x_standard_peripheral/Source/gd32vw55x_i2c.c ****       \arg        I2C_FLAG_I2CBSY: busy flag
 829:../Firmware/GD32VW55x_standard_peripheral/Source/gd32vw55x_i2c.c ****       \arg        I2C_FLAG_TR: whether the I2C is a transmitter or a receiver in slave mode
 830:../Firmware/GD32VW55x_standard_peripheral/Source/gd32vw55x_i2c.c ****     \param[out] none
 831:../Firmware/GD32VW55x_standard_peripheral/Source/gd32vw55x_i2c.c ****     \retval     FlagStatus: SET or RESET
 832:../Firmware/GD32VW55x_standard_peripheral/Source/gd32vw55x_i2c.c **** */
 833:../Firmware/GD32VW55x_standard_peripheral/Source/gd32vw55x_i2c.c **** FlagStatus i2c_flag_get(uint32_t i2c_periph, uint32_t flag)
 834:../Firmware/GD32VW55x_standard_peripheral/Source/gd32vw55x_i2c.c **** {
 2318              		.loc 1 834 1
 2319              		.cfi_startproc
 2320 0000 0111     		addi	sp,sp,-32
 2321              		.cfi_def_cfa_offset 32
 2322 0002 22CE     		sw	s0,28(sp)
 2323              		.cfi_offset 8, -4
 2324 0004 0010     		addi	s0,sp,32
 2325              		.cfi_def_cfa 8, 0
 2326 0006 2326A4FE 		sw	a0,-20(s0)
 2327 000a 2324B4FE 		sw	a1,-24(s0)
 835:../Firmware/GD32VW55x_standard_peripheral/Source/gd32vw55x_i2c.c ****     if(RESET != (I2C_STAT(i2c_periph) & flag)){
 2328              		.loc 1 835 18
 2329 000e 8327C4FE 		lw	a5,-20(s0)
 2330 0012 E107     		addi	a5,a5,24
 2331 0014 9843     		lw	a4,0(a5)
 2332              		.loc 1 835 39
 2333 0016 832784FE 		lw	a5,-24(s0)
 2334 001a F98F     		and	a5,a4,a5
 2335              		.loc 1 835 7
 2336 001c 99C3     		beq	a5,zero,.L72
 836:../Firmware/GD32VW55x_standard_peripheral/Source/gd32vw55x_i2c.c ****         return SET;
 2337              		.loc 1 836 16
 2338 001e 8547     		li	a5,1
 2339 0020 11A0     		j	.L73
 2340              	.L72:
 837:../Firmware/GD32VW55x_standard_peripheral/Source/gd32vw55x_i2c.c ****     }else{
 838:../Firmware/GD32VW55x_standard_peripheral/Source/gd32vw55x_i2c.c ****         return RESET;
 2341              		.loc 1 838 16
 2342 0022 8147     		li	a5,0
 2343              	.L73:
 839:../Firmware/GD32VW55x_standard_peripheral/Source/gd32vw55x_i2c.c ****     }
 840:../Firmware/GD32VW55x_standard_peripheral/Source/gd32vw55x_i2c.c **** }
 2344              		.loc 1 840 1
 2345 0024 3E85     		mv	a0,a5
 2346 0026 7244     		lw	s0,28(sp)
 2347              		.cfi_restore 8
 2348              		.cfi_def_cfa 2, 32
 2349 0028 0561     		addi	sp,sp,32
 2350              		.cfi_def_cfa_offset 0
 2351 002a 8280     		jr	ra
 2352              		.cfi_endproc
 2353              	.LFE404:
 2355              		.section	.text.i2c_flag_clear,"ax",@progbits
 2356              		.align	1
 2357              		.globl	i2c_flag_clear
 2359              	i2c_flag_clear:
 2360              	.LFB405:
 841:../Firmware/GD32VW55x_standard_peripheral/Source/gd32vw55x_i2c.c **** 
 842:../Firmware/GD32VW55x_standard_peripheral/Source/gd32vw55x_i2c.c **** /*!
 843:../Firmware/GD32VW55x_standard_peripheral/Source/gd32vw55x_i2c.c ****     \brief      clear I2C flag status
 844:../Firmware/GD32VW55x_standard_peripheral/Source/gd32vw55x_i2c.c ****     \param[in]  i2c_periph: I2Cx(x=0,1)
 845:../Firmware/GD32VW55x_standard_peripheral/Source/gd32vw55x_i2c.c ****     \param[in]  flag: I2C flags
 846:../Firmware/GD32VW55x_standard_peripheral/Source/gd32vw55x_i2c.c ****                 one or more parameters can be selected which are shown as below:
 847:../Firmware/GD32VW55x_standard_peripheral/Source/gd32vw55x_i2c.c ****       \arg        I2C_FLAG_ADDSEND: address received matches in slave mode
 848:../Firmware/GD32VW55x_standard_peripheral/Source/gd32vw55x_i2c.c ****       \arg        I2C_FLAG_NACK: not acknowledge flag
 849:../Firmware/GD32VW55x_standard_peripheral/Source/gd32vw55x_i2c.c ****       \arg        I2C_FLAG_STPDET: STOP condition detected in slave mode
 850:../Firmware/GD32VW55x_standard_peripheral/Source/gd32vw55x_i2c.c ****       \arg        I2C_FLAG_BERR: bus error
 851:../Firmware/GD32VW55x_standard_peripheral/Source/gd32vw55x_i2c.c ****       \arg        I2C_FLAG_LOSTARB: arbitration Lost
 852:../Firmware/GD32VW55x_standard_peripheral/Source/gd32vw55x_i2c.c ****       \arg        I2C_FLAG_OUERR: overrun/underrun error in slave mode
 853:../Firmware/GD32VW55x_standard_peripheral/Source/gd32vw55x_i2c.c ****       \arg        I2C_FLAG_PECERR: PEC error
 854:../Firmware/GD32VW55x_standard_peripheral/Source/gd32vw55x_i2c.c ****       \arg        I2C_FLAG_TIMEOUT: timeout flag
 855:../Firmware/GD32VW55x_standard_peripheral/Source/gd32vw55x_i2c.c ****       \arg        I2C_FLAG_SMBALT: SMBus alert
 856:../Firmware/GD32VW55x_standard_peripheral/Source/gd32vw55x_i2c.c ****     \param[out] none
 857:../Firmware/GD32VW55x_standard_peripheral/Source/gd32vw55x_i2c.c ****     \retval     none
 858:../Firmware/GD32VW55x_standard_peripheral/Source/gd32vw55x_i2c.c **** */
 859:../Firmware/GD32VW55x_standard_peripheral/Source/gd32vw55x_i2c.c **** void i2c_flag_clear(uint32_t i2c_periph, uint32_t flag)
 860:../Firmware/GD32VW55x_standard_peripheral/Source/gd32vw55x_i2c.c **** {
 2361              		.loc 1 860 1
 2362              		.cfi_startproc
 2363 0000 0111     		addi	sp,sp,-32
 2364              		.cfi_def_cfa_offset 32
 2365 0002 22CE     		sw	s0,28(sp)
 2366              		.cfi_offset 8, -4
 2367 0004 0010     		addi	s0,sp,32
 2368              		.cfi_def_cfa 8, 0
 2369 0006 2326A4FE 		sw	a0,-20(s0)
 2370 000a 2324B4FE 		sw	a1,-24(s0)
 861:../Firmware/GD32VW55x_standard_peripheral/Source/gd32vw55x_i2c.c ****     I2C_STATC(i2c_periph) |= flag;
 2371              		.loc 1 861 27
 2372 000e 8327C4FE 		lw	a5,-20(s0)
 2373 0012 F107     		addi	a5,a5,28
 2374 0014 9843     		lw	a4,0(a5)
 2375 0016 8327C4FE 		lw	a5,-20(s0)
 2376 001a F107     		addi	a5,a5,28
 2377 001c BE86     		mv	a3,a5
 2378 001e 832784FE 		lw	a5,-24(s0)
 2379 0022 D98F     		or	a5,a4,a5
 2380 0024 9CC2     		sw	a5,0(a3)
 862:../Firmware/GD32VW55x_standard_peripheral/Source/gd32vw55x_i2c.c **** }
 2381              		.loc 1 862 1
 2382 0026 0100     		nop
 2383 0028 7244     		lw	s0,28(sp)
 2384              		.cfi_restore 8
 2385              		.cfi_def_cfa 2, 32
 2386 002a 0561     		addi	sp,sp,32
 2387              		.cfi_def_cfa_offset 0
 2388 002c 8280     		jr	ra
 2389              		.cfi_endproc
 2390              	.LFE405:
 2392              		.section	.text.i2c_interrupt_enable,"ax",@progbits
 2393              		.align	1
 2394              		.globl	i2c_interrupt_enable
 2396              	i2c_interrupt_enable:
 2397              	.LFB406:
 863:../Firmware/GD32VW55x_standard_peripheral/Source/gd32vw55x_i2c.c **** 
 864:../Firmware/GD32VW55x_standard_peripheral/Source/gd32vw55x_i2c.c **** /*!
 865:../Firmware/GD32VW55x_standard_peripheral/Source/gd32vw55x_i2c.c ****     \brief      enable I2C interrupt
 866:../Firmware/GD32VW55x_standard_peripheral/Source/gd32vw55x_i2c.c ****     \param[in]  i2c_periph: I2Cx(x=0,1)
 867:../Firmware/GD32VW55x_standard_peripheral/Source/gd32vw55x_i2c.c ****     \param[in]  interrupt: I2C interrupts
 868:../Firmware/GD32VW55x_standard_peripheral/Source/gd32vw55x_i2c.c ****                 one or more parameters can be selected which are shown as below:
 869:../Firmware/GD32VW55x_standard_peripheral/Source/gd32vw55x_i2c.c ****       \arg        I2C_INT_ERR: error interrupt
 870:../Firmware/GD32VW55x_standard_peripheral/Source/gd32vw55x_i2c.c ****       \arg        I2C_INT_TC: transfer complete interrupt
 871:../Firmware/GD32VW55x_standard_peripheral/Source/gd32vw55x_i2c.c ****       \arg        I2C_INT_STPDET: stop detection interrupt
 872:../Firmware/GD32VW55x_standard_peripheral/Source/gd32vw55x_i2c.c ****       \arg        I2C_INT_NACK: not acknowledge received interrupt
 873:../Firmware/GD32VW55x_standard_peripheral/Source/gd32vw55x_i2c.c ****       \arg        I2C_INT_ADDM: address match interrupt
 874:../Firmware/GD32VW55x_standard_peripheral/Source/gd32vw55x_i2c.c ****       \arg        I2C_INT_RBNE: receive interrupt
 875:../Firmware/GD32VW55x_standard_peripheral/Source/gd32vw55x_i2c.c ****       \arg        I2C_INT_TI: transmit interrupt
 876:../Firmware/GD32VW55x_standard_peripheral/Source/gd32vw55x_i2c.c ****     \param[out] none
 877:../Firmware/GD32VW55x_standard_peripheral/Source/gd32vw55x_i2c.c ****     \retval     none
 878:../Firmware/GD32VW55x_standard_peripheral/Source/gd32vw55x_i2c.c **** */
 879:../Firmware/GD32VW55x_standard_peripheral/Source/gd32vw55x_i2c.c **** void i2c_interrupt_enable(uint32_t i2c_periph, uint32_t interrupt)
 880:../Firmware/GD32VW55x_standard_peripheral/Source/gd32vw55x_i2c.c **** {
 2398              		.loc 1 880 1
 2399              		.cfi_startproc
 2400 0000 0111     		addi	sp,sp,-32
 2401              		.cfi_def_cfa_offset 32
 2402 0002 22CE     		sw	s0,28(sp)
 2403              		.cfi_offset 8, -4
 2404 0004 0010     		addi	s0,sp,32
 2405              		.cfi_def_cfa 8, 0
 2406 0006 2326A4FE 		sw	a0,-20(s0)
 2407 000a 2324B4FE 		sw	a1,-24(s0)
 881:../Firmware/GD32VW55x_standard_peripheral/Source/gd32vw55x_i2c.c ****     I2C_CTL0(i2c_periph) |= interrupt;
 2408              		.loc 1 881 26
 2409 000e 8327C4FE 		lw	a5,-20(s0)
 2410 0012 9443     		lw	a3,0(a5)
 2411 0014 8327C4FE 		lw	a5,-20(s0)
 2412 0018 032784FE 		lw	a4,-24(s0)
 2413 001c 558F     		or	a4,a3,a4
 2414 001e 98C3     		sw	a4,0(a5)
 882:../Firmware/GD32VW55x_standard_peripheral/Source/gd32vw55x_i2c.c **** }
 2415              		.loc 1 882 1
 2416 0020 0100     		nop
 2417 0022 7244     		lw	s0,28(sp)
 2418              		.cfi_restore 8
 2419              		.cfi_def_cfa 2, 32
 2420 0024 0561     		addi	sp,sp,32
 2421              		.cfi_def_cfa_offset 0
 2422 0026 8280     		jr	ra
 2423              		.cfi_endproc
 2424              	.LFE406:
 2426              		.section	.text.i2c_interrupt_disable,"ax",@progbits
 2427              		.align	1
 2428              		.globl	i2c_interrupt_disable
 2430              	i2c_interrupt_disable:
 2431              	.LFB407:
 883:../Firmware/GD32VW55x_standard_peripheral/Source/gd32vw55x_i2c.c **** 
 884:../Firmware/GD32VW55x_standard_peripheral/Source/gd32vw55x_i2c.c **** /*!
 885:../Firmware/GD32VW55x_standard_peripheral/Source/gd32vw55x_i2c.c ****     \brief      disable I2C interrupt
 886:../Firmware/GD32VW55x_standard_peripheral/Source/gd32vw55x_i2c.c ****     \param[in]  i2c_periph: I2Cx(x=0,1)
 887:../Firmware/GD32VW55x_standard_peripheral/Source/gd32vw55x_i2c.c ****     \param[in]  interrupt: I2C interrupts
 888:../Firmware/GD32VW55x_standard_peripheral/Source/gd32vw55x_i2c.c ****                 one or more parameters can be selected which are shown as below:
 889:../Firmware/GD32VW55x_standard_peripheral/Source/gd32vw55x_i2c.c ****       \arg        I2C_INT_ERR: error interrupt
 890:../Firmware/GD32VW55x_standard_peripheral/Source/gd32vw55x_i2c.c ****       \arg        I2C_INT_TC: transfer complete interrupt
 891:../Firmware/GD32VW55x_standard_peripheral/Source/gd32vw55x_i2c.c ****       \arg        I2C_INT_STPDET: stop detection interrupt
 892:../Firmware/GD32VW55x_standard_peripheral/Source/gd32vw55x_i2c.c ****       \arg        I2C_INT_NACK: not acknowledge received interrupt
 893:../Firmware/GD32VW55x_standard_peripheral/Source/gd32vw55x_i2c.c ****       \arg        I2C_INT_ADDM: address match interrupt
 894:../Firmware/GD32VW55x_standard_peripheral/Source/gd32vw55x_i2c.c ****       \arg        I2C_INT_RBNE: receive interrupt
 895:../Firmware/GD32VW55x_standard_peripheral/Source/gd32vw55x_i2c.c ****       \arg        I2C_INT_TI: transmit interrupt
 896:../Firmware/GD32VW55x_standard_peripheral/Source/gd32vw55x_i2c.c ****     \param[out] none
 897:../Firmware/GD32VW55x_standard_peripheral/Source/gd32vw55x_i2c.c ****     \retval     none
 898:../Firmware/GD32VW55x_standard_peripheral/Source/gd32vw55x_i2c.c **** */
 899:../Firmware/GD32VW55x_standard_peripheral/Source/gd32vw55x_i2c.c **** void i2c_interrupt_disable(uint32_t i2c_periph, uint32_t interrupt)
 900:../Firmware/GD32VW55x_standard_peripheral/Source/gd32vw55x_i2c.c **** {
 2432              		.loc 1 900 1
 2433              		.cfi_startproc
 2434 0000 0111     		addi	sp,sp,-32
 2435              		.cfi_def_cfa_offset 32
 2436 0002 22CE     		sw	s0,28(sp)
 2437              		.cfi_offset 8, -4
 2438 0004 0010     		addi	s0,sp,32
 2439              		.cfi_def_cfa 8, 0
 2440 0006 2326A4FE 		sw	a0,-20(s0)
 2441 000a 2324B4FE 		sw	a1,-24(s0)
 901:../Firmware/GD32VW55x_standard_peripheral/Source/gd32vw55x_i2c.c ****     I2C_CTL0(i2c_periph) &= ~interrupt;
 2442              		.loc 1 901 26
 2443 000e 8327C4FE 		lw	a5,-20(s0)
 2444 0012 9443     		lw	a3,0(a5)
 2445              		.loc 1 901 29
 2446 0014 832784FE 		lw	a5,-24(s0)
 2447 0018 13C7F7FF 		not	a4,a5
 2448              		.loc 1 901 26
 2449 001c 8327C4FE 		lw	a5,-20(s0)
 2450 0020 758F     		and	a4,a3,a4
 2451 0022 98C3     		sw	a4,0(a5)
 902:../Firmware/GD32VW55x_standard_peripheral/Source/gd32vw55x_i2c.c **** }
 2452              		.loc 1 902 1
 2453 0024 0100     		nop
 2454 0026 7244     		lw	s0,28(sp)
 2455              		.cfi_restore 8
 2456              		.cfi_def_cfa 2, 32
 2457 0028 0561     		addi	sp,sp,32
 2458              		.cfi_def_cfa_offset 0
 2459 002a 8280     		jr	ra
 2460              		.cfi_endproc
 2461              	.LFE407:
 2463              		.section	.text.i2c_interrupt_flag_get,"ax",@progbits
 2464              		.align	1
 2465              		.globl	i2c_interrupt_flag_get
 2467              	i2c_interrupt_flag_get:
 2468              	.LFB408:
 903:../Firmware/GD32VW55x_standard_peripheral/Source/gd32vw55x_i2c.c **** 
 904:../Firmware/GD32VW55x_standard_peripheral/Source/gd32vw55x_i2c.c **** /*!
 905:../Firmware/GD32VW55x_standard_peripheral/Source/gd32vw55x_i2c.c ****     \brief      get I2C interrupt flag status
 906:../Firmware/GD32VW55x_standard_peripheral/Source/gd32vw55x_i2c.c ****     \param[in]  i2c_periph: I2Cx(x=0,1)
 907:../Firmware/GD32VW55x_standard_peripheral/Source/gd32vw55x_i2c.c ****     \param[in]  int_flag: I2C interrupt flags, refer to i2c_interrupt_flag_enum
 908:../Firmware/GD32VW55x_standard_peripheral/Source/gd32vw55x_i2c.c ****                 only one parameter can be selected which is shown as below:
 909:../Firmware/GD32VW55x_standard_peripheral/Source/gd32vw55x_i2c.c ****       \arg        I2C_INT_FLAG_TI: transmit interrupt flag
 910:../Firmware/GD32VW55x_standard_peripheral/Source/gd32vw55x_i2c.c ****       \arg        I2C_INT_FLAG_RBNE: I2C_RDATA is not empty during receiving interrupt flag
 911:../Firmware/GD32VW55x_standard_peripheral/Source/gd32vw55x_i2c.c ****       \arg        I2C_INT_FLAG_ADDSEND: address received matches in slave mode interrupt flag
 912:../Firmware/GD32VW55x_standard_peripheral/Source/gd32vw55x_i2c.c ****       \arg        I2C_INT_FLAG_NACK: not acknowledge interrupt flag
 913:../Firmware/GD32VW55x_standard_peripheral/Source/gd32vw55x_i2c.c ****       \arg        I2C_INT_FLAG_STPDET: stop condition detected in slave mode interrupt flag
 914:../Firmware/GD32VW55x_standard_peripheral/Source/gd32vw55x_i2c.c ****       \arg        I2C_INT_FLAG_TC: transfer complete in master mode interrupt flag
 915:../Firmware/GD32VW55x_standard_peripheral/Source/gd32vw55x_i2c.c ****       \arg        I2C_INT_FLAG_TCR: transfer complete reload interrupt flag
 916:../Firmware/GD32VW55x_standard_peripheral/Source/gd32vw55x_i2c.c ****       \arg        I2C_INT_FLAG_BERR: bus error interrupt flag
 917:../Firmware/GD32VW55x_standard_peripheral/Source/gd32vw55x_i2c.c ****       \arg        I2C_INT_FLAG_LOSTARB: arbitration lost interrupt flag
 918:../Firmware/GD32VW55x_standard_peripheral/Source/gd32vw55x_i2c.c ****       \arg        I2C_INT_FLAG_OUERR: overrun/underrun error in slave mode interrupt flag
 919:../Firmware/GD32VW55x_standard_peripheral/Source/gd32vw55x_i2c.c ****       \arg        I2C_INT_FLAG_PECERR: PEC error interrupt flag
 920:../Firmware/GD32VW55x_standard_peripheral/Source/gd32vw55x_i2c.c ****       \arg        I2C_INT_FLAG_TIMEOUT: timeout interrupt flag
 921:../Firmware/GD32VW55x_standard_peripheral/Source/gd32vw55x_i2c.c ****       \arg        I2C_INT_FLAG_SMBALT: SMBus Alert interrupt flag
 922:../Firmware/GD32VW55x_standard_peripheral/Source/gd32vw55x_i2c.c ****     \param[out] none
 923:../Firmware/GD32VW55x_standard_peripheral/Source/gd32vw55x_i2c.c ****     \retval     FlagStatus: SET or RESET
 924:../Firmware/GD32VW55x_standard_peripheral/Source/gd32vw55x_i2c.c **** */
 925:../Firmware/GD32VW55x_standard_peripheral/Source/gd32vw55x_i2c.c **** FlagStatus i2c_interrupt_flag_get(uint32_t i2c_periph, i2c_interrupt_flag_enum int_flag)
 926:../Firmware/GD32VW55x_standard_peripheral/Source/gd32vw55x_i2c.c **** {
 2469              		.loc 1 926 1
 2470              		.cfi_startproc
 2471 0000 7971     		addi	sp,sp,-48
 2472              		.cfi_def_cfa_offset 48
 2473 0002 22D6     		sw	s0,44(sp)
 2474              		.cfi_offset 8, -4
 2475 0004 0018     		addi	s0,sp,48
 2476              		.cfi_def_cfa 8, 0
 2477 0006 232EA4FC 		sw	a0,-36(s0)
 2478 000a 232CB4FC 		sw	a1,-40(s0)
 927:../Firmware/GD32VW55x_standard_peripheral/Source/gd32vw55x_i2c.c ****     uint32_t ret1 = RESET;
 2479              		.loc 1 927 14
 2480 000e 232604FE 		sw	zero,-20(s0)
 928:../Firmware/GD32VW55x_standard_peripheral/Source/gd32vw55x_i2c.c ****     uint32_t ret2 = RESET;
 2481              		.loc 1 928 14
 2482 0012 232404FE 		sw	zero,-24(s0)
 929:../Firmware/GD32VW55x_standard_peripheral/Source/gd32vw55x_i2c.c **** 
 930:../Firmware/GD32VW55x_standard_peripheral/Source/gd32vw55x_i2c.c ****     /* get the status of interrupt enable bit */
 931:../Firmware/GD32VW55x_standard_peripheral/Source/gd32vw55x_i2c.c ****     ret1 = (I2C_REG_VAL(i2c_periph, int_flag) & BIT(I2C_BIT_POS(int_flag)));
 2483              		.loc 1 931 13
 2484 0016 832784FD 		lw	a5,-40(s0)
 2485 001a 9983     		srli	a5,a5,6
 2486 001c 13F7F73F 		andi	a4,a5,1023
 2487 0020 8327C4FD 		lw	a5,-36(s0)
 2488 0024 BA97     		add	a5,a4,a5
 2489 0026 9843     		lw	a4,0(a5)
 2490              		.loc 1 931 49
 2491 0028 832784FD 		lw	a5,-40(s0)
 2492 002c FD8B     		andi	a5,a5,31
 2493 002e 8546     		li	a3,1
 2494 0030 B397F600 		sll	a5,a3,a5
 2495              		.loc 1 931 10
 2496 0034 F98F     		and	a5,a4,a5
 2497 0036 2326F4FE 		sw	a5,-20(s0)
 932:../Firmware/GD32VW55x_standard_peripheral/Source/gd32vw55x_i2c.c ****     /* get the status of interrupt flag */
 933:../Firmware/GD32VW55x_standard_peripheral/Source/gd32vw55x_i2c.c ****     ret2 = (I2C_REG_VAL2(i2c_periph, int_flag) & BIT(I2C_BIT_POS2(int_flag)));
 2498              		.loc 1 933 13
 2499 003a 832784FD 		lw	a5,-40(s0)
 2500 003e 13D76701 		srli	a4,a5,22
 2501 0042 8327C4FD 		lw	a5,-36(s0)
 2502 0046 BA97     		add	a5,a4,a5
 2503 0048 9843     		lw	a4,0(a5)
 2504              		.loc 1 933 50
 2505 004a 832784FD 		lw	a5,-40(s0)
 2506 004e C183     		srli	a5,a5,16
 2507 0050 FD8B     		andi	a5,a5,31
 2508 0052 8546     		li	a3,1
 2509 0054 B397F600 		sll	a5,a3,a5
 2510              		.loc 1 933 10
 2511 0058 F98F     		and	a5,a4,a5
 2512 005a 2324F4FE 		sw	a5,-24(s0)
 934:../Firmware/GD32VW55x_standard_peripheral/Source/gd32vw55x_i2c.c ****     if(ret1 && ret2){
 2513              		.loc 1 934 7
 2514 005e 8327C4FE 		lw	a5,-20(s0)
 2515 0062 91C7     		beq	a5,zero,.L78
 2516              		.loc 1 934 13 discriminator 1
 2517 0064 832784FE 		lw	a5,-24(s0)
 2518 0068 99C3     		beq	a5,zero,.L78
 935:../Firmware/GD32VW55x_standard_peripheral/Source/gd32vw55x_i2c.c ****         return SET;
 2519              		.loc 1 935 16
 2520 006a 8547     		li	a5,1
 2521 006c 11A0     		j	.L79
 2522              	.L78:
 936:../Firmware/GD32VW55x_standard_peripheral/Source/gd32vw55x_i2c.c ****     }else{
 937:../Firmware/GD32VW55x_standard_peripheral/Source/gd32vw55x_i2c.c ****         return RESET;
 2523              		.loc 1 937 16
 2524 006e 8147     		li	a5,0
 2525              	.L79:
 938:../Firmware/GD32VW55x_standard_peripheral/Source/gd32vw55x_i2c.c ****     }
 939:../Firmware/GD32VW55x_standard_peripheral/Source/gd32vw55x_i2c.c **** }
 2526              		.loc 1 939 1
 2527 0070 3E85     		mv	a0,a5
 2528 0072 3254     		lw	s0,44(sp)
 2529              		.cfi_restore 8
 2530              		.cfi_def_cfa 2, 48
 2531 0074 4561     		addi	sp,sp,48
 2532              		.cfi_def_cfa_offset 0
 2533 0076 8280     		jr	ra
 2534              		.cfi_endproc
 2535              	.LFE408:
 2537              		.section	.text.i2c_interrupt_flag_clear,"ax",@progbits
 2538              		.align	1
 2539              		.globl	i2c_interrupt_flag_clear
 2541              	i2c_interrupt_flag_clear:
 2542              	.LFB409:
 940:../Firmware/GD32VW55x_standard_peripheral/Source/gd32vw55x_i2c.c **** 
 941:../Firmware/GD32VW55x_standard_peripheral/Source/gd32vw55x_i2c.c **** /*!
 942:../Firmware/GD32VW55x_standard_peripheral/Source/gd32vw55x_i2c.c ****     \brief      clear I2C interrupt flag status
 943:../Firmware/GD32VW55x_standard_peripheral/Source/gd32vw55x_i2c.c ****     \param[in]  i2c_periph: I2Cx(x=0,1)
 944:../Firmware/GD32VW55x_standard_peripheral/Source/gd32vw55x_i2c.c ****     \param[in]  int_flag: I2C interrupt flags, refer to i2c_interrupt_flag_enum
 945:../Firmware/GD32VW55x_standard_peripheral/Source/gd32vw55x_i2c.c ****                 only one parameter can be selected which is shown as below:
 946:../Firmware/GD32VW55x_standard_peripheral/Source/gd32vw55x_i2c.c ****       \arg        I2C_INT_FLAG_ADDSEND: address received matches in slave mode interrupt flag
 947:../Firmware/GD32VW55x_standard_peripheral/Source/gd32vw55x_i2c.c ****       \arg        I2C_INT_FLAG_NACK: not acknowledge interrupt flag
 948:../Firmware/GD32VW55x_standard_peripheral/Source/gd32vw55x_i2c.c ****       \arg        I2C_INT_FLAG_STPDET: stop condition detected in slave mode interrupt flag
 949:../Firmware/GD32VW55x_standard_peripheral/Source/gd32vw55x_i2c.c ****       \arg        I2C_INT_FLAG_BERR: bus error interrupt flag
 950:../Firmware/GD32VW55x_standard_peripheral/Source/gd32vw55x_i2c.c ****       \arg        I2C_INT_FLAG_LOSTARB: arbitration lost interrupt flag
 951:../Firmware/GD32VW55x_standard_peripheral/Source/gd32vw55x_i2c.c ****       \arg        I2C_INT_FLAG_OUERR: overrun/underrun error in slave mode interrupt flag
 952:../Firmware/GD32VW55x_standard_peripheral/Source/gd32vw55x_i2c.c ****       \arg        I2C_INT_FLAG_PECERR: PEC error interrupt flag
 953:../Firmware/GD32VW55x_standard_peripheral/Source/gd32vw55x_i2c.c ****       \arg        I2C_INT_FLAG_TIMEOUT: timeout interrupt flag
 954:../Firmware/GD32VW55x_standard_peripheral/Source/gd32vw55x_i2c.c ****       \arg        I2C_INT_FLAG_SMBALT: SMBus Alert interrupt flag
 955:../Firmware/GD32VW55x_standard_peripheral/Source/gd32vw55x_i2c.c ****     \param[out] none
 956:../Firmware/GD32VW55x_standard_peripheral/Source/gd32vw55x_i2c.c ****     \retval     none
 957:../Firmware/GD32VW55x_standard_peripheral/Source/gd32vw55x_i2c.c **** */
 958:../Firmware/GD32VW55x_standard_peripheral/Source/gd32vw55x_i2c.c **** void i2c_interrupt_flag_clear(uint32_t i2c_periph, i2c_interrupt_flag_enum int_flag)
 959:../Firmware/GD32VW55x_standard_peripheral/Source/gd32vw55x_i2c.c **** {
 2543              		.loc 1 959 1
 2544              		.cfi_startproc
 2545 0000 0111     		addi	sp,sp,-32
 2546              		.cfi_def_cfa_offset 32
 2547 0002 22CE     		sw	s0,28(sp)
 2548              		.cfi_offset 8, -4
 2549 0004 0010     		addi	s0,sp,32
 2550              		.cfi_def_cfa 8, 0
 2551 0006 2326A4FE 		sw	a0,-20(s0)
 2552 000a 2324B4FE 		sw	a1,-24(s0)
 960:../Firmware/GD32VW55x_standard_peripheral/Source/gd32vw55x_i2c.c ****     I2C_STATC(i2c_periph) |= BIT(I2C_BIT_POS2(int_flag));
 2553              		.loc 1 960 27
 2554 000e 8327C4FE 		lw	a5,-20(s0)
 2555 0012 F107     		addi	a5,a5,28
 2556 0014 9843     		lw	a4,0(a5)
 2557              		.loc 1 960 30
 2558 0016 832784FE 		lw	a5,-24(s0)
 2559 001a C183     		srli	a5,a5,16
 2560 001c FD8B     		andi	a5,a5,31
 2561 001e 8546     		li	a3,1
 2562 0020 B397F600 		sll	a5,a3,a5
 2563              		.loc 1 960 27
 2564 0024 8326C4FE 		lw	a3,-20(s0)
 2565 0028 F106     		addi	a3,a3,28
 2566 002a D98F     		or	a5,a4,a5
 2567 002c 9CC2     		sw	a5,0(a3)
 961:../Firmware/GD32VW55x_standard_peripheral/Source/gd32vw55x_i2c.c **** }
 2568              		.loc 1 961 1
 2569 002e 0100     		nop
 2570 0030 7244     		lw	s0,28(sp)
 2571              		.cfi_restore 8
 2572              		.cfi_def_cfa 2, 32
 2573 0032 0561     		addi	sp,sp,32
 2574              		.cfi_def_cfa_offset 0
 2575 0034 8280     		jr	ra
 2576              		.cfi_endproc
 2577              	.LFE409:
 2579              		.text
 2580              	.Letext0:
 2581              		.file 2 "e:\\gd32\\gd32embeddedbuilder_v1.5.2.30854\\tools\\nuclei_riscv_newlibc_prebuilt_win32_20
 2582              		.file 3 "e:\\gd32\\gd32embeddedbuilder_v1.5.2.30854\\tools\\nuclei_riscv_newlibc_prebuilt_win32_20
 2583              		.file 4 "../Firmware/GD32VW55x_standard_peripheral/gd32vw55x.h"
 2584              		.file 5 "../Firmware/GD32VW55x_standard_peripheral/Include/gd32vw55x_rcu.h"
 2585              		.file 6 "../Firmware/GD32VW55x_standard_peripheral/Include/gd32vw55x_i2c.h"