   1              		.file	"system_gd32vw55x.c"
   2              		.option nopic
   3              		.attribute arch, "rv32i2p0_m2p0_a2p0_c2p0"
   4              		.attribute unaligned_access, 0
   5              		.attribute stack_align, 16
   6              		.text
   7              	.Ltext0:
   8              		.cfi_sections	.debug_frame
   9              		.globl	SystemCoreClock
  10              		.section	.sdata.SystemCoreClock,"aw"
  11              		.align	2
  14              	SystemCoreClock:
  15 0000 00688909 		.word	160000000
  16              		.section	.text._soft_delay_,"ax",@progbits
  17              		.align	1
  19              	_soft_delay_:
  20              	.LFB347:
  21              		.file 1 "../Firmware/GD32VW55x_standard_peripheral/system_gd32vw55x.c"
   1:../Firmware/GD32VW55x_standard_peripheral/system_gd32vw55x.c **** /*!
   2:../Firmware/GD32VW55x_standard_peripheral/system_gd32vw55x.c ****     \file    system_gd32vw55x.c
   3:../Firmware/GD32VW55x_standard_peripheral/system_gd32vw55x.c ****     \brief   RISC-V Device Peripheral Access Layer Source File for
   4:../Firmware/GD32VW55x_standard_peripheral/system_gd32vw55x.c ****              GD32VW55x Device Series
   5:../Firmware/GD32VW55x_standard_peripheral/system_gd32vw55x.c **** 
   6:../Firmware/GD32VW55x_standard_peripheral/system_gd32vw55x.c ****     \version 2025-01-16, V1.4.0, firmware for GD32VW55x
   7:../Firmware/GD32VW55x_standard_peripheral/system_gd32vw55x.c **** */
   8:../Firmware/GD32VW55x_standard_peripheral/system_gd32vw55x.c **** 
   9:../Firmware/GD32VW55x_standard_peripheral/system_gd32vw55x.c **** /*
  10:../Firmware/GD32VW55x_standard_peripheral/system_gd32vw55x.c ****  * Copyright (c) 2009-2018 Arm Limited. All rights reserved.
  11:../Firmware/GD32VW55x_standard_peripheral/system_gd32vw55x.c ****  * Copyright (c) 2019 Nuclei Limited. All rights reserved.
  12:../Firmware/GD32VW55x_standard_peripheral/system_gd32vw55x.c ****  * Copyright (c) 2025, GigaDevice Semiconductor Inc.
  13:../Firmware/GD32VW55x_standard_peripheral/system_gd32vw55x.c ****  *
  14:../Firmware/GD32VW55x_standard_peripheral/system_gd32vw55x.c ****  * SPDX-License-Identifier: Apache-2.0
  15:../Firmware/GD32VW55x_standard_peripheral/system_gd32vw55x.c ****  *
  16:../Firmware/GD32VW55x_standard_peripheral/system_gd32vw55x.c ****  * Licensed under the Apache License, Version 2.0 (the License); you may
  17:../Firmware/GD32VW55x_standard_peripheral/system_gd32vw55x.c ****  * not use this file except in compliance with the License.
  18:../Firmware/GD32VW55x_standard_peripheral/system_gd32vw55x.c ****  * You may obtain a copy of the License at
  19:../Firmware/GD32VW55x_standard_peripheral/system_gd32vw55x.c ****  *
  20:../Firmware/GD32VW55x_standard_peripheral/system_gd32vw55x.c ****  * www.apache.org/licenses/LICENSE-2.0
  21:../Firmware/GD32VW55x_standard_peripheral/system_gd32vw55x.c ****  *
  22:../Firmware/GD32VW55x_standard_peripheral/system_gd32vw55x.c ****  * Unless required by applicable law or agreed to in writing, software
  23:../Firmware/GD32VW55x_standard_peripheral/system_gd32vw55x.c ****  * distributed under the License is distributed on an AS IS BASIS, WITHOUT
  24:../Firmware/GD32VW55x_standard_peripheral/system_gd32vw55x.c ****  * WARRANTIES OR CONDITIONS OF ANY KIND, either express or implied.
  25:../Firmware/GD32VW55x_standard_peripheral/system_gd32vw55x.c ****  * See the License for the specific language governing permissions and
  26:../Firmware/GD32VW55x_standard_peripheral/system_gd32vw55x.c ****  * limitations under the License.
  27:../Firmware/GD32VW55x_standard_peripheral/system_gd32vw55x.c ****  */
  28:../Firmware/GD32VW55x_standard_peripheral/system_gd32vw55x.c **** 
  29:../Firmware/GD32VW55x_standard_peripheral/system_gd32vw55x.c **** /* This file refers the RISC-V standard, some adjustments are made according to GigaDevice chips */
  30:../Firmware/GD32VW55x_standard_peripheral/system_gd32vw55x.c **** 
  31:../Firmware/GD32VW55x_standard_peripheral/system_gd32vw55x.c **** #include "gd32vw55x.h"
  32:../Firmware/GD32VW55x_standard_peripheral/system_gd32vw55x.c **** 
  33:../Firmware/GD32VW55x_standard_peripheral/system_gd32vw55x.c **** /* system frequency define */
  34:../Firmware/GD32VW55x_standard_peripheral/system_gd32vw55x.c **** #define __IRC16M          (IRC16M_VALUE)            /* internal 16 MHz RC oscillator frequency */
  35:../Firmware/GD32VW55x_standard_peripheral/system_gd32vw55x.c **** #define __HXTAL           (HXTAL_VALUE)             /* high speed crystal oscillator frequency */
  36:../Firmware/GD32VW55x_standard_peripheral/system_gd32vw55x.c **** #define __SYS_OSC_CLK     (__IRC16M)                /* main oscillator frequency */
  37:../Firmware/GD32VW55x_standard_peripheral/system_gd32vw55x.c **** 
  38:../Firmware/GD32VW55x_standard_peripheral/system_gd32vw55x.c **** /* select a system clock by uncommenting the following line */
  39:../Firmware/GD32VW55x_standard_peripheral/system_gd32vw55x.c **** //#define __SYSTEM_CLOCK_IRC16M                       (uint32_t)(__IRC16M)
  40:../Firmware/GD32VW55x_standard_peripheral/system_gd32vw55x.c **** //#define __SYSTEM_CLOCK_HXTAL                        (uint32_t)(__HXTAL)
  41:../Firmware/GD32VW55x_standard_peripheral/system_gd32vw55x.c **** //#define __SYSTEM_CLOCK_48M_PLLDIG_IRC16M             (uint32_t)(48000000)
  42:../Firmware/GD32VW55x_standard_peripheral/system_gd32vw55x.c **** //#define __SYSTEM_CLOCK_160M_PLLDIG_IRC16M             (uint32_t)(160000000)
  43:../Firmware/GD32VW55x_standard_peripheral/system_gd32vw55x.c **** //#define __SYSTEM_CLOCK_48M_PLLDIG_HXTAL              (uint32_t)(48000000)
  44:../Firmware/GD32VW55x_standard_peripheral/system_gd32vw55x.c **** #define __SYSTEM_CLOCK_160M_PLLDIG_HXTAL              (uint32_t)(160000000)
  45:../Firmware/GD32VW55x_standard_peripheral/system_gd32vw55x.c **** 
  46:../Firmware/GD32VW55x_standard_peripheral/system_gd32vw55x.c **** #define HXTALSTB_DELAY     {                                 \
  47:../Firmware/GD32VW55x_standard_peripheral/system_gd32vw55x.c ****                               volatile uint32_t i;           \
  48:../Firmware/GD32VW55x_standard_peripheral/system_gd32vw55x.c ****                               for(i=0; i<0x2000; i++){       \
  49:../Firmware/GD32VW55x_standard_peripheral/system_gd32vw55x.c ****                               }                              \
  50:../Firmware/GD32VW55x_standard_peripheral/system_gd32vw55x.c ****                            }
  51:../Firmware/GD32VW55x_standard_peripheral/system_gd32vw55x.c **** /* The following is to prevent Vcore fluctuations caused by frequency switching. 
  52:../Firmware/GD32VW55x_standard_peripheral/system_gd32vw55x.c ****    It is strongly recommended to include it to avoid issues caused by self-removal. */
  53:../Firmware/GD32VW55x_standard_peripheral/system_gd32vw55x.c **** #define RCU_MODIFY(__delay)     do{                                     \
  54:../Firmware/GD32VW55x_standard_peripheral/system_gd32vw55x.c ****                                     volatile uint32_t i,reg;            \
  55:../Firmware/GD32VW55x_standard_peripheral/system_gd32vw55x.c ****                                     if(0 != __delay){                   \
  56:../Firmware/GD32VW55x_standard_peripheral/system_gd32vw55x.c ****                                         /* Insert a software delay */   \
  57:../Firmware/GD32VW55x_standard_peripheral/system_gd32vw55x.c ****                                         for(i=0; i<__delay; i++){       \
  58:../Firmware/GD32VW55x_standard_peripheral/system_gd32vw55x.c ****                                         }                               \
  59:../Firmware/GD32VW55x_standard_peripheral/system_gd32vw55x.c ****                                         reg = RCU_CFG0;                 \
  60:../Firmware/GD32VW55x_standard_peripheral/system_gd32vw55x.c ****                                         reg &= ~(RCU_AHB_CKSYS_DIV2);   \
  61:../Firmware/GD32VW55x_standard_peripheral/system_gd32vw55x.c ****                                         reg |= RCU_AHB_CKSYS_DIV2;      \
  62:../Firmware/GD32VW55x_standard_peripheral/system_gd32vw55x.c ****                                         /* AHB = SYSCLK/2 */            \
  63:../Firmware/GD32VW55x_standard_peripheral/system_gd32vw55x.c ****                                         RCU_CFG0 = reg;                 \
  64:../Firmware/GD32VW55x_standard_peripheral/system_gd32vw55x.c ****                                         /* Insert a software delay */   \
  65:../Firmware/GD32VW55x_standard_peripheral/system_gd32vw55x.c ****                                         for(i=0; i<__delay; i++){       \
  66:../Firmware/GD32VW55x_standard_peripheral/system_gd32vw55x.c ****                                         }                               \
  67:../Firmware/GD32VW55x_standard_peripheral/system_gd32vw55x.c ****                                         reg = RCU_CFG0;                 \
  68:../Firmware/GD32VW55x_standard_peripheral/system_gd32vw55x.c ****                                         reg &= ~(RCU_AHB_CKSYS_DIV4);   \
  69:../Firmware/GD32VW55x_standard_peripheral/system_gd32vw55x.c ****                                         reg |= RCU_AHB_CKSYS_DIV4;      \
  70:../Firmware/GD32VW55x_standard_peripheral/system_gd32vw55x.c ****                                         /* AHB = SYSCLK/4 */            \
  71:../Firmware/GD32VW55x_standard_peripheral/system_gd32vw55x.c ****                                         RCU_CFG0 = reg;                 \
  72:../Firmware/GD32VW55x_standard_peripheral/system_gd32vw55x.c ****                                         /* Insert a software delay */   \
  73:../Firmware/GD32VW55x_standard_peripheral/system_gd32vw55x.c ****                                         for(i=0; i<__delay; i++){       \
  74:../Firmware/GD32VW55x_standard_peripheral/system_gd32vw55x.c ****                                         }                               \
  75:../Firmware/GD32VW55x_standard_peripheral/system_gd32vw55x.c ****                                     }                                   \
  76:../Firmware/GD32VW55x_standard_peripheral/system_gd32vw55x.c ****                                 }while(0)
  77:../Firmware/GD32VW55x_standard_peripheral/system_gd32vw55x.c **** 
  78:../Firmware/GD32VW55x_standard_peripheral/system_gd32vw55x.c **** /* set the system clock frequency and declare the system clock configuration function */
  79:../Firmware/GD32VW55x_standard_peripheral/system_gd32vw55x.c **** #ifdef __SYSTEM_CLOCK_IRC16M
  80:../Firmware/GD32VW55x_standard_peripheral/system_gd32vw55x.c **** uint32_t SystemCoreClock = __SYSTEM_CLOCK_IRC16M;
  81:../Firmware/GD32VW55x_standard_peripheral/system_gd32vw55x.c **** static void system_clock_16m_irc16m(void);
  82:../Firmware/GD32VW55x_standard_peripheral/system_gd32vw55x.c **** #elif defined (__SYSTEM_CLOCK_HXTAL)
  83:../Firmware/GD32VW55x_standard_peripheral/system_gd32vw55x.c **** uint32_t SystemCoreClock = __SYSTEM_CLOCK_HXTAL;
  84:../Firmware/GD32VW55x_standard_peripheral/system_gd32vw55x.c **** static void system_clock_hxtal(void);
  85:../Firmware/GD32VW55x_standard_peripheral/system_gd32vw55x.c **** #elif defined (__SYSTEM_CLOCK_48M_PLLDIG_IRC16M)
  86:../Firmware/GD32VW55x_standard_peripheral/system_gd32vw55x.c **** uint32_t SystemCoreClock = __SYSTEM_CLOCK_48M_PLLDIG_IRC16M;
  87:../Firmware/GD32VW55x_standard_peripheral/system_gd32vw55x.c **** static void system_clock_48m_irc16m(void);
  88:../Firmware/GD32VW55x_standard_peripheral/system_gd32vw55x.c **** #elif defined (__SYSTEM_CLOCK_160M_PLLDIG_IRC16M)
  89:../Firmware/GD32VW55x_standard_peripheral/system_gd32vw55x.c **** uint32_t SystemCoreClock = __SYSTEM_CLOCK_160M_PLLDIG_IRC16M;
  90:../Firmware/GD32VW55x_standard_peripheral/system_gd32vw55x.c **** static void system_clock_160m_irc16m(void);
  91:../Firmware/GD32VW55x_standard_peripheral/system_gd32vw55x.c **** #elif defined (__SYSTEM_CLOCK_48M_PLLDIG_HXTAL)
  92:../Firmware/GD32VW55x_standard_peripheral/system_gd32vw55x.c **** uint32_t SystemCoreClock = __SYSTEM_CLOCK_48M_PLLDIG_HXTAL;
  93:../Firmware/GD32VW55x_standard_peripheral/system_gd32vw55x.c **** static void system_clock_48m_hxtal(void);
  94:../Firmware/GD32VW55x_standard_peripheral/system_gd32vw55x.c **** #elif defined (__SYSTEM_CLOCK_160M_PLLDIG_HXTAL)
  95:../Firmware/GD32VW55x_standard_peripheral/system_gd32vw55x.c **** uint32_t SystemCoreClock = __SYSTEM_CLOCK_160M_PLLDIG_HXTAL;
  96:../Firmware/GD32VW55x_standard_peripheral/system_gd32vw55x.c **** static void system_clock_160m_hxtal(void);
  97:../Firmware/GD32VW55x_standard_peripheral/system_gd32vw55x.c **** #endif /* __SYSTEM_CLOCK_IRC16M */
  98:../Firmware/GD32VW55x_standard_peripheral/system_gd32vw55x.c **** 
  99:../Firmware/GD32VW55x_standard_peripheral/system_gd32vw55x.c **** /* configure the system clock */
 100:../Firmware/GD32VW55x_standard_peripheral/system_gd32vw55x.c **** static void system_clock_config(void);
 101:../Firmware/GD32VW55x_standard_peripheral/system_gd32vw55x.c **** /* software delay to prevent the impact of Vcore fluctuations.
 102:../Firmware/GD32VW55x_standard_peripheral/system_gd32vw55x.c ****    It is strongly recommended to include it to avoid issues caused by self-removal. */
 103:../Firmware/GD32VW55x_standard_peripheral/system_gd32vw55x.c **** static void _soft_delay_(uint32_t time)
 104:../Firmware/GD32VW55x_standard_peripheral/system_gd32vw55x.c **** {
  22              		.loc 1 104 1
  23              		.cfi_startproc
  24 0000 7971     		addi	sp,sp,-48
  25              		.cfi_def_cfa_offset 48
  26 0002 22D6     		sw	s0,44(sp)
  27              		.cfi_offset 8, -4
  28 0004 0018     		addi	s0,sp,48
  29              		.cfi_def_cfa 8, 0
  30 0006 232EA4FC 		sw	a0,-36(s0)
 105:../Firmware/GD32VW55x_standard_peripheral/system_gd32vw55x.c ****     __IO uint32_t i;
 106:../Firmware/GD32VW55x_standard_peripheral/system_gd32vw55x.c ****     for(i=0; i<time*10; i++){
  31              		.loc 1 106 10
  32 000a 232604FE 		sw	zero,-20(s0)
  33              		.loc 1 106 5
  34 000e 31A0     		j	.L2
  35              	.L3:
  36              		.loc 1 106 26 discriminator 3
  37 0010 8327C4FE 		lw	a5,-20(s0)
  38 0014 8507     		addi	a5,a5,1
  39 0016 2326F4FE 		sw	a5,-20(s0)
  40              	.L2:
  41              		.loc 1 106 20 discriminator 1
  42 001a 0327C4FD 		lw	a4,-36(s0)
  43 001e BA87     		mv	a5,a4
  44 0020 8A07     		slli	a5,a5,2
  45 0022 BA97     		add	a5,a5,a4
  46 0024 8607     		slli	a5,a5,1
  47 0026 3E87     		mv	a4,a5
  48              		.loc 1 106 15 discriminator 1
  49 0028 8327C4FE 		lw	a5,-20(s0)
  50              		.loc 1 106 5 discriminator 1
  51 002c E3E2E7FE 		bgtu	a4,a5,.L3
 107:../Firmware/GD32VW55x_standard_peripheral/system_gd32vw55x.c ****     }
 108:../Firmware/GD32VW55x_standard_peripheral/system_gd32vw55x.c **** }
  52              		.loc 1 108 1
  53 0030 0100     		nop
  54 0032 0100     		nop
  55 0034 3254     		lw	s0,44(sp)
  56              		.cfi_restore 8
  57              		.cfi_def_cfa 2, 48
  58 0036 4561     		addi	sp,sp,48
  59              		.cfi_def_cfa_offset 0
  60 0038 8280     		jr	ra
  61              		.cfi_endproc
  62              	.LFE347:
  64              		.section	.text.SystemInit,"ax",@progbits
  65              		.align	1
  66              		.globl	SystemInit
  68              	SystemInit:
  69              	.LFB348:
 109:../Firmware/GD32VW55x_standard_peripheral/system_gd32vw55x.c **** 
 110:../Firmware/GD32VW55x_standard_peripheral/system_gd32vw55x.c **** /*!
 111:../Firmware/GD32VW55x_standard_peripheral/system_gd32vw55x.c ****     \brief      setup the microcontroller system, initialize the system
 112:../Firmware/GD32VW55x_standard_peripheral/system_gd32vw55x.c ****     \param[in]  none
 113:../Firmware/GD32VW55x_standard_peripheral/system_gd32vw55x.c ****     \param[out] none
 114:../Firmware/GD32VW55x_standard_peripheral/system_gd32vw55x.c ****     \retval     none
 115:../Firmware/GD32VW55x_standard_peripheral/system_gd32vw55x.c **** */
 116:../Firmware/GD32VW55x_standard_peripheral/system_gd32vw55x.c **** void SystemInit (void)
 117:../Firmware/GD32VW55x_standard_peripheral/system_gd32vw55x.c **** {
  70              		.loc 1 117 1
  71              		.cfi_startproc
  72 0000 0111     		addi	sp,sp,-32
  73              		.cfi_def_cfa_offset 32
  74 0002 06CE     		sw	ra,28(sp)
  75 0004 22CC     		sw	s0,24(sp)
  76              		.cfi_offset 1, -4
  77              		.cfi_offset 8, -8
  78 0006 0010     		addi	s0,sp,32
  79              		.cfi_def_cfa 8, 0
 118:../Firmware/GD32VW55x_standard_peripheral/system_gd32vw55x.c ****     /* reset the RCU clock configuration to the default reset state */
 119:../Firmware/GD32VW55x_standard_peripheral/system_gd32vw55x.c ****     /* set IRC16MEN bit */
 120:../Firmware/GD32VW55x_standard_peripheral/system_gd32vw55x.c ****     RCU_CTL |= RCU_CTL_IRC16MEN;
  80              		.loc 1 120 13
  81 0008 B7470240 		li	a5,1073889280
  82 000c 93870780 		addi	a5,a5,-2048
  83 0010 9843     		lw	a4,0(a5)
  84 0012 B7470240 		li	a5,1073889280
  85 0016 93870780 		addi	a5,a5,-2048
  86 001a 13671700 		ori	a4,a4,1
  87 001e 98C3     		sw	a4,0(a5)
 121:../Firmware/GD32VW55x_standard_peripheral/system_gd32vw55x.c ****     while(0U == (RCU_CTL & RCU_CTL_IRC16MSTB)){
  88              		.loc 1 121 10
  89 0020 0100     		nop
  90              	.L5:
  91              		.loc 1 121 18 discriminator 1
  92 0022 B7470240 		li	a5,1073889280
  93 0026 93870780 		addi	a5,a5,-2048
  94 002a 9C43     		lw	a5,0(a5)
  95              		.loc 1 121 26 discriminator 1
  96 002c 898B     		andi	a5,a5,2
  97              		.loc 1 121 10 discriminator 1
  98 002e F5DB     		beq	a5,zero,.L5
 122:../Firmware/GD32VW55x_standard_peripheral/system_gd32vw55x.c ****     }
 123:../Firmware/GD32VW55x_standard_peripheral/system_gd32vw55x.c ****     if(((RCU_CFG0 & RCU_CFG0_SCSS) == RCU_SCSS_PLLDIG)){
  99              		.loc 1 123 10
 100 0030 B7470240 		li	a5,1073889280
 101 0034 93878780 		addi	a5,a5,-2040
 102 0038 9C43     		lw	a5,0(a5)
 103              		.loc 1 123 19
 104 003a 13F7C700 		andi	a4,a5,12
 105              		.loc 1 123 7
 106 003e A147     		li	a5,8
 107 0040 6310F70C 		bne	a4,a5,.L6
 108              	.LBB2:
 124:../Firmware/GD32VW55x_standard_peripheral/system_gd32vw55x.c ****         RCU_MODIFY(0x50);
 109              		.loc 1 124 9 discriminator 1
 110 0044 232604FE 		sw	zero,-20(s0)
 111 0048 31A0     		j	.L7
 112              	.L8:
 113              		.loc 1 124 9 is_stmt 0 discriminator 4
 114 004a 8327C4FE 		lw	a5,-20(s0)
 115 004e 8507     		addi	a5,a5,1
 116 0050 2326F4FE 		sw	a5,-20(s0)
 117              	.L7:
 118              		.loc 1 124 9 discriminator 2
 119 0054 0327C4FE 		lw	a4,-20(s0)
 120 0058 9307F004 		li	a5,79
 121 005c E3F7E7FE 		bleu	a4,a5,.L8
 122              		.loc 1 124 9 discriminator 5
 123 0060 B7470240 		li	a5,1073889280
 124 0064 93878780 		addi	a5,a5,-2040
 125 0068 9C43     		lw	a5,0(a5)
 126 006a 2324F4FE 		sw	a5,-24(s0)
 127 006e 832784FE 		lw	a5,-24(s0)
 128 0072 93F7F7F7 		andi	a5,a5,-129
 129 0076 2324F4FE 		sw	a5,-24(s0)
 130 007a 832784FE 		lw	a5,-24(s0)
 131 007e 93E70708 		ori	a5,a5,128
 132 0082 2324F4FE 		sw	a5,-24(s0)
 133 0086 B7470240 		li	a5,1073889280
 134 008a 93878780 		addi	a5,a5,-2040
 135 008e 032784FE 		lw	a4,-24(s0)
 136 0092 98C3     		sw	a4,0(a5)
 137 0094 232604FE 		sw	zero,-20(s0)
 138 0098 31A0     		j	.L9
 139              	.L10:
 140              		.loc 1 124 9 discriminator 8
 141 009a 8327C4FE 		lw	a5,-20(s0)
 142 009e 8507     		addi	a5,a5,1
 143 00a0 2326F4FE 		sw	a5,-20(s0)
 144              	.L9:
 145              		.loc 1 124 9 discriminator 6
 146 00a4 0327C4FE 		lw	a4,-20(s0)
 147 00a8 9307F004 		li	a5,79
 148 00ac E3F7E7FE 		bleu	a4,a5,.L10
 149              		.loc 1 124 9 discriminator 9
 150 00b0 B7470240 		li	a5,1073889280
 151 00b4 93878780 		addi	a5,a5,-2040
 152 00b8 9C43     		lw	a5,0(a5)
 153 00ba 2324F4FE 		sw	a5,-24(s0)
 154 00be 832784FE 		lw	a5,-24(s0)
 155 00c2 93F7F7F6 		andi	a5,a5,-145
 156 00c6 2324F4FE 		sw	a5,-24(s0)
 157 00ca 832784FE 		lw	a5,-24(s0)
 158 00ce 93E70709 		ori	a5,a5,144
 159 00d2 2324F4FE 		sw	a5,-24(s0)
 160 00d6 B7470240 		li	a5,1073889280
 161 00da 93878780 		addi	a5,a5,-2040
 162 00de 032784FE 		lw	a4,-24(s0)
 163 00e2 98C3     		sw	a4,0(a5)
 164 00e4 232604FE 		sw	zero,-20(s0)
 165 00e8 31A0     		j	.L11
 166              	.L12:
 167              		.loc 1 124 9 discriminator 12
 168 00ea 8327C4FE 		lw	a5,-20(s0)
 169 00ee 8507     		addi	a5,a5,1
 170 00f0 2326F4FE 		sw	a5,-20(s0)
 171              	.L11:
 172              		.loc 1 124 9 discriminator 10
 173 00f4 0327C4FE 		lw	a4,-20(s0)
 174 00f8 9307F004 		li	a5,79
 175 00fc E3F7E7FE 		bleu	a4,a5,.L12
 176              	.L6:
 177              	.LBE2:
 125:../Firmware/GD32VW55x_standard_peripheral/system_gd32vw55x.c ****     }
 126:../Firmware/GD32VW55x_standard_peripheral/system_gd32vw55x.c ****     RCU_CFG0 &= ~RCU_CFG0_SCS;
 178              		.loc 1 126 14 is_stmt 1
 179 0100 B7470240 		li	a5,1073889280
 180 0104 93878780 		addi	a5,a5,-2040
 181 0108 9843     		lw	a4,0(a5)
 182 010a B7470240 		li	a5,1073889280
 183 010e 93878780 		addi	a5,a5,-2040
 184 0112 719B     		andi	a4,a4,-4
 185 0114 98C3     		sw	a4,0(a5)
 127:../Firmware/GD32VW55x_standard_peripheral/system_gd32vw55x.c ****     _soft_delay_(200);
 186              		.loc 1 127 5
 187 0116 1305800C 		li	a0,200
 188 011a 97000000 		call	_soft_delay_
 188      E7800000 
 128:../Firmware/GD32VW55x_standard_peripheral/system_gd32vw55x.c ****     /* reset CFG0 register */
 129:../Firmware/GD32VW55x_standard_peripheral/system_gd32vw55x.c ****     RCU_CFG0 = 0x00000000U;
 189              		.loc 1 129 5
 190 0122 B7470240 		li	a5,1073889280
 191 0126 93878780 		addi	a5,a5,-2040
 192              		.loc 1 129 14
 193 012a 23A00700 		sw	zero,0(a5)
 130:../Firmware/GD32VW55x_standard_peripheral/system_gd32vw55x.c **** 
 131:../Firmware/GD32VW55x_standard_peripheral/system_gd32vw55x.c ****     /* reset HXTALEN, RFCKMEN and PLLEN bits */
 132:../Firmware/GD32VW55x_standard_peripheral/system_gd32vw55x.c ****     RCU_CTL &= ~(RCU_CTL_PLLDIGEN | RCU_CTL_RFCKMEN | RCU_CTL_HXTALEN);
 194              		.loc 1 132 13
 195 012e B7470240 		li	a5,1073889280
 196 0132 93870780 		addi	a5,a5,-2048
 197 0136 9443     		lw	a3,0(a5)
 198 0138 B7470240 		li	a5,1073889280
 199 013c 93870780 		addi	a5,a5,-2048
 200 0140 37079FFF 		li	a4,-6356992
 201 0144 7D17     		addi	a4,a4,-1
 202 0146 758F     		and	a4,a3,a4
 203 0148 98C3     		sw	a4,0(a5)
 133:../Firmware/GD32VW55x_standard_peripheral/system_gd32vw55x.c **** 
 134:../Firmware/GD32VW55x_standard_peripheral/system_gd32vw55x.c ****     /* reset PLLCFGR register */
 135:../Firmware/GD32VW55x_standard_peripheral/system_gd32vw55x.c ****     RCU_PLL = 0x00000000U;
 204              		.loc 1 135 5
 205 014a B7470240 		li	a5,1073889280
 206 014e 93874780 		addi	a5,a5,-2044
 207              		.loc 1 135 13
 208 0152 23A00700 		sw	zero,0(a5)
 136:../Firmware/GD32VW55x_standard_peripheral/system_gd32vw55x.c ****     RCU_PLLDIGCFG0 = 0x00000000U;
 209              		.loc 1 136 5
 210 0156 B7470240 		li	a5,1073889280
 211 015a 93874788 		addi	a5,a5,-1916
 212              		.loc 1 136 20
 213 015e 23A00700 		sw	zero,0(a5)
 137:../Firmware/GD32VW55x_standard_peripheral/system_gd32vw55x.c ****     RCU_PLLDIGCFG1 = 0x07800000U;
 214              		.loc 1 137 5
 215 0162 B7470240 		li	a5,1073889280
 216 0166 93874789 		addi	a5,a5,-1900
 217              		.loc 1 137 20
 218 016a 37078007 		li	a4,125829120
 219 016e 98C3     		sw	a4,0(a5)
 138:../Firmware/GD32VW55x_standard_peripheral/system_gd32vw55x.c **** 
 139:../Firmware/GD32VW55x_standard_peripheral/system_gd32vw55x.c ****     /* disable all interrupts */
 140:../Firmware/GD32VW55x_standard_peripheral/system_gd32vw55x.c ****     RCU_INT = 0x00000000U;
 220              		.loc 1 140 5
 221 0170 B7470240 		li	a5,1073889280
 222 0174 9387C780 		addi	a5,a5,-2036
 223              		.loc 1 140 13
 224 0178 23A00700 		sw	zero,0(a5)
 141:../Firmware/GD32VW55x_standard_peripheral/system_gd32vw55x.c **** 
 142:../Firmware/GD32VW55x_standard_peripheral/system_gd32vw55x.c ****     /* configure the System clock source, PLL Multiplier and Divider factors,
 143:../Firmware/GD32VW55x_standard_peripheral/system_gd32vw55x.c ****        AHB/APBx prescalers and Flash settings */
 144:../Firmware/GD32VW55x_standard_peripheral/system_gd32vw55x.c ****     system_clock_config();
 225              		.loc 1 144 5
 226 017c 97000000 		call	system_clock_config
 226      E7800000 
 145:../Firmware/GD32VW55x_standard_peripheral/system_gd32vw55x.c **** }
 227              		.loc 1 145 1
 228 0184 0100     		nop
 229 0186 F240     		lw	ra,28(sp)
 230              		.cfi_restore 1
 231 0188 6244     		lw	s0,24(sp)
 232              		.cfi_restore 8
 233              		.cfi_def_cfa 2, 32
 234 018a 0561     		addi	sp,sp,32
 235              		.cfi_def_cfa_offset 0
 236 018c 8280     		jr	ra
 237              		.cfi_endproc
 238              	.LFE348:
 240              		.section	.text.system_clock_config,"ax",@progbits
 241              		.align	1
 243              	system_clock_config:
 244              	.LFB349:
 146:../Firmware/GD32VW55x_standard_peripheral/system_gd32vw55x.c **** /*!
 147:../Firmware/GD32VW55x_standard_peripheral/system_gd32vw55x.c ****     \brief      configure the system clock
 148:../Firmware/GD32VW55x_standard_peripheral/system_gd32vw55x.c ****     \param[in]  none
 149:../Firmware/GD32VW55x_standard_peripheral/system_gd32vw55x.c ****     \param[out] none
 150:../Firmware/GD32VW55x_standard_peripheral/system_gd32vw55x.c ****     \retval     none
 151:../Firmware/GD32VW55x_standard_peripheral/system_gd32vw55x.c **** */
 152:../Firmware/GD32VW55x_standard_peripheral/system_gd32vw55x.c **** static void system_clock_config(void)
 153:../Firmware/GD32VW55x_standard_peripheral/system_gd32vw55x.c **** {
 245              		.loc 1 153 1
 246              		.cfi_startproc
 247 0000 4111     		addi	sp,sp,-16
 248              		.cfi_def_cfa_offset 16
 249 0002 06C6     		sw	ra,12(sp)
 250 0004 22C4     		sw	s0,8(sp)
 251              		.cfi_offset 1, -4
 252              		.cfi_offset 8, -8
 253 0006 0008     		addi	s0,sp,16
 254              		.cfi_def_cfa 8, 0
 154:../Firmware/GD32VW55x_standard_peripheral/system_gd32vw55x.c **** #ifdef __SYSTEM_CLOCK_IRC16M
 155:../Firmware/GD32VW55x_standard_peripheral/system_gd32vw55x.c ****     system_clock_16m_irc16m();
 156:../Firmware/GD32VW55x_standard_peripheral/system_gd32vw55x.c **** #elif defined (__SYSTEM_CLOCK_HXTAL)
 157:../Firmware/GD32VW55x_standard_peripheral/system_gd32vw55x.c ****     system_clock_hxtal();
 158:../Firmware/GD32VW55x_standard_peripheral/system_gd32vw55x.c **** #elif defined (__SYSTEM_CLOCK_48M_PLLDIG_IRC16M)
 159:../Firmware/GD32VW55x_standard_peripheral/system_gd32vw55x.c ****     system_clock_48m_irc16m();
 160:../Firmware/GD32VW55x_standard_peripheral/system_gd32vw55x.c **** #elif defined (__SYSTEM_CLOCK_160M_PLLDIG_IRC16M)
 161:../Firmware/GD32VW55x_standard_peripheral/system_gd32vw55x.c ****     system_clock_160m_irc16m();
 162:../Firmware/GD32VW55x_standard_peripheral/system_gd32vw55x.c **** #elif defined (__SYSTEM_CLOCK_160M_PLLDIG_HXTAL)
 163:../Firmware/GD32VW55x_standard_peripheral/system_gd32vw55x.c ****     system_clock_160m_hxtal();
 255              		.loc 1 163 5
 256 0008 97000000 		call	system_clock_160m_hxtal
 256      E7800000 
 164:../Firmware/GD32VW55x_standard_peripheral/system_gd32vw55x.c **** #elif defined (__SYSTEM_CLOCK_48M_PLLDIG_HXTAL)
 165:../Firmware/GD32VW55x_standard_peripheral/system_gd32vw55x.c ****     system_clock_48m_hxtal();
 166:../Firmware/GD32VW55x_standard_peripheral/system_gd32vw55x.c **** #endif /* __SYSTEM_CLOCK_IRC16M */
 167:../Firmware/GD32VW55x_standard_peripheral/system_gd32vw55x.c **** }
 257              		.loc 1 167 1
 258 0010 0100     		nop
 259 0012 B240     		lw	ra,12(sp)
 260              		.cfi_restore 1
 261 0014 2244     		lw	s0,8(sp)
 262              		.cfi_restore 8
 263              		.cfi_def_cfa 2, 16
 264 0016 4101     		addi	sp,sp,16
 265              		.cfi_def_cfa_offset 0
 266 0018 8280     		jr	ra
 267              		.cfi_endproc
 268              	.LFE349:
 270              		.section	.text.system_clock_160m_hxtal,"ax",@progbits
 271              		.align	1
 273              	system_clock_160m_hxtal:
 274              	.LFB350:
 168:../Firmware/GD32VW55x_standard_peripheral/system_gd32vw55x.c **** 
 169:../Firmware/GD32VW55x_standard_peripheral/system_gd32vw55x.c **** #ifdef __SYSTEM_CLOCK_IRC16M
 170:../Firmware/GD32VW55x_standard_peripheral/system_gd32vw55x.c **** /*!
 171:../Firmware/GD32VW55x_standard_peripheral/system_gd32vw55x.c ****     \brief      configure the system clock to 16M by IRC16M
 172:../Firmware/GD32VW55x_standard_peripheral/system_gd32vw55x.c ****     \param[in]  none
 173:../Firmware/GD32VW55x_standard_peripheral/system_gd32vw55x.c ****     \param[out] none
 174:../Firmware/GD32VW55x_standard_peripheral/system_gd32vw55x.c ****     \retval     none
 175:../Firmware/GD32VW55x_standard_peripheral/system_gd32vw55x.c **** */
 176:../Firmware/GD32VW55x_standard_peripheral/system_gd32vw55x.c **** static void system_clock_16m_irc16m(void)
 177:../Firmware/GD32VW55x_standard_peripheral/system_gd32vw55x.c **** {
 178:../Firmware/GD32VW55x_standard_peripheral/system_gd32vw55x.c ****     uint32_t timeout = 0U;
 179:../Firmware/GD32VW55x_standard_peripheral/system_gd32vw55x.c ****     uint32_t stab_flag = 0U;
 180:../Firmware/GD32VW55x_standard_peripheral/system_gd32vw55x.c ****     __IO uint32_t reg_temp;
 181:../Firmware/GD32VW55x_standard_peripheral/system_gd32vw55x.c **** 
 182:../Firmware/GD32VW55x_standard_peripheral/system_gd32vw55x.c ****     /* enable IRC16M */
 183:../Firmware/GD32VW55x_standard_peripheral/system_gd32vw55x.c ****     RCU_CTL |= RCU_CTL_IRC16MEN;
 184:../Firmware/GD32VW55x_standard_peripheral/system_gd32vw55x.c **** 
 185:../Firmware/GD32VW55x_standard_peripheral/system_gd32vw55x.c ****     /* wait until IRC16M is stable or the startup time is longer than IRC16M_STARTUP_TIMEOUT */
 186:../Firmware/GD32VW55x_standard_peripheral/system_gd32vw55x.c ****     do{
 187:../Firmware/GD32VW55x_standard_peripheral/system_gd32vw55x.c ****         timeout++;
 188:../Firmware/GD32VW55x_standard_peripheral/system_gd32vw55x.c ****         stab_flag = (RCU_CTL & RCU_CTL_IRC16MSTB);
 189:../Firmware/GD32VW55x_standard_peripheral/system_gd32vw55x.c ****     }while((0U == stab_flag) && (IRC16M_STARTUP_TIMEOUT != timeout));
 190:../Firmware/GD32VW55x_standard_peripheral/system_gd32vw55x.c **** 
 191:../Firmware/GD32VW55x_standard_peripheral/system_gd32vw55x.c ****     if(0U == (RCU_CTL & RCU_CTL_IRC16MSTB)){
 192:../Firmware/GD32VW55x_standard_peripheral/system_gd32vw55x.c ****         /* if fail */
 193:../Firmware/GD32VW55x_standard_peripheral/system_gd32vw55x.c ****         while(1){
 194:../Firmware/GD32VW55x_standard_peripheral/system_gd32vw55x.c ****         }
 195:../Firmware/GD32VW55x_standard_peripheral/system_gd32vw55x.c ****     }
 196:../Firmware/GD32VW55x_standard_peripheral/system_gd32vw55x.c **** 
 197:../Firmware/GD32VW55x_standard_peripheral/system_gd32vw55x.c ****     /* AHB = SYSCLK */
 198:../Firmware/GD32VW55x_standard_peripheral/system_gd32vw55x.c ****     RCU_CFG0 |= RCU_AHB_CKSYS_DIV1;
 199:../Firmware/GD32VW55x_standard_peripheral/system_gd32vw55x.c ****     /* APB2 = AHB */
 200:../Firmware/GD32VW55x_standard_peripheral/system_gd32vw55x.c ****     RCU_CFG0 |= RCU_APB2_CKAHB_DIV1;
 201:../Firmware/GD32VW55x_standard_peripheral/system_gd32vw55x.c ****     /* APB1 = AHB */
 202:../Firmware/GD32VW55x_standard_peripheral/system_gd32vw55x.c ****     RCU_CFG0 |= RCU_APB1_CKAHB_DIV1;
 203:../Firmware/GD32VW55x_standard_peripheral/system_gd32vw55x.c **** 
 204:../Firmware/GD32VW55x_standard_peripheral/system_gd32vw55x.c ****     reg_temp = RCU_CFG0;
 205:../Firmware/GD32VW55x_standard_peripheral/system_gd32vw55x.c ****     /* select IRC16M as system clock */
 206:../Firmware/GD32VW55x_standard_peripheral/system_gd32vw55x.c ****     reg_temp &= ~RCU_CFG0_SCS;
 207:../Firmware/GD32VW55x_standard_peripheral/system_gd32vw55x.c ****     reg_temp |= RCU_CKSYSSRC_IRC16M;
 208:../Firmware/GD32VW55x_standard_peripheral/system_gd32vw55x.c ****     RCU_CFG0 = reg_temp;
 209:../Firmware/GD32VW55x_standard_peripheral/system_gd32vw55x.c **** 
 210:../Firmware/GD32VW55x_standard_peripheral/system_gd32vw55x.c ****     /* wait until IRC16M is selected as system clock */
 211:../Firmware/GD32VW55x_standard_peripheral/system_gd32vw55x.c ****     while(RCU_SCSS_IRC16M != (RCU_CFG0 & RCU_CFG0_SCSS)){
 212:../Firmware/GD32VW55x_standard_peripheral/system_gd32vw55x.c ****     }
 213:../Firmware/GD32VW55x_standard_peripheral/system_gd32vw55x.c **** }
 214:../Firmware/GD32VW55x_standard_peripheral/system_gd32vw55x.c **** 
 215:../Firmware/GD32VW55x_standard_peripheral/system_gd32vw55x.c **** #elif defined (__SYSTEM_CLOCK_HXTAL)
 216:../Firmware/GD32VW55x_standard_peripheral/system_gd32vw55x.c **** /*!
 217:../Firmware/GD32VW55x_standard_peripheral/system_gd32vw55x.c ****     \brief      configure the system clock to HXTAL
 218:../Firmware/GD32VW55x_standard_peripheral/system_gd32vw55x.c ****     \param[in]  none
 219:../Firmware/GD32VW55x_standard_peripheral/system_gd32vw55x.c ****     \param[out] none
 220:../Firmware/GD32VW55x_standard_peripheral/system_gd32vw55x.c ****     \retval     none
 221:../Firmware/GD32VW55x_standard_peripheral/system_gd32vw55x.c **** */
 222:../Firmware/GD32VW55x_standard_peripheral/system_gd32vw55x.c **** static void system_clock_hxtal(void)
 223:../Firmware/GD32VW55x_standard_peripheral/system_gd32vw55x.c **** {
 224:../Firmware/GD32VW55x_standard_peripheral/system_gd32vw55x.c ****     uint32_t timeout = 0U;
 225:../Firmware/GD32VW55x_standard_peripheral/system_gd32vw55x.c ****     uint32_t stab_flag = 0U;
 226:../Firmware/GD32VW55x_standard_peripheral/system_gd32vw55x.c ****     __IO uint32_t reg_temp;
 227:../Firmware/GD32VW55x_standard_peripheral/system_gd32vw55x.c **** 
 228:../Firmware/GD32VW55x_standard_peripheral/system_gd32vw55x.c ****     /* power up the HXTAL */
 229:../Firmware/GD32VW55x_standard_peripheral/system_gd32vw55x.c ****     RCU_CTL |= RCU_CTL_HXTALPU;
 230:../Firmware/GD32VW55x_standard_peripheral/system_gd32vw55x.c ****     /* enable HXTAL */
 231:../Firmware/GD32VW55x_standard_peripheral/system_gd32vw55x.c ****     RCU_CTL |= RCU_CTL_HXTALEN;
 232:../Firmware/GD32VW55x_standard_peripheral/system_gd32vw55x.c ****     HXTALSTB_DELAY
 233:../Firmware/GD32VW55x_standard_peripheral/system_gd32vw55x.c ****     RCU_CTL |= RCU_CTL_HXTALREADY;
 234:../Firmware/GD32VW55x_standard_peripheral/system_gd32vw55x.c ****     /* wait until HXTAL is stable or the startup time is longer than HXTAL_STARTUP_TIMEOUT */
 235:../Firmware/GD32VW55x_standard_peripheral/system_gd32vw55x.c ****     do{
 236:../Firmware/GD32VW55x_standard_peripheral/system_gd32vw55x.c ****         timeout++;
 237:../Firmware/GD32VW55x_standard_peripheral/system_gd32vw55x.c ****         stab_flag = (RCU_CTL & RCU_CTL_HXTALSTB);
 238:../Firmware/GD32VW55x_standard_peripheral/system_gd32vw55x.c ****     }while((0U == stab_flag) && (HXTAL_STARTUP_TIMEOUT != timeout));
 239:../Firmware/GD32VW55x_standard_peripheral/system_gd32vw55x.c **** 
 240:../Firmware/GD32VW55x_standard_peripheral/system_gd32vw55x.c ****     if(0U == (RCU_CTL & RCU_CTL_HXTALSTB)){
 241:../Firmware/GD32VW55x_standard_peripheral/system_gd32vw55x.c ****         /* if fail */
 242:../Firmware/GD32VW55x_standard_peripheral/system_gd32vw55x.c ****         while(1){
 243:../Firmware/GD32VW55x_standard_peripheral/system_gd32vw55x.c ****         }
 244:../Firmware/GD32VW55x_standard_peripheral/system_gd32vw55x.c ****     }
 245:../Firmware/GD32VW55x_standard_peripheral/system_gd32vw55x.c **** 
 246:../Firmware/GD32VW55x_standard_peripheral/system_gd32vw55x.c ****     /* AHB = SYSCLK */
 247:../Firmware/GD32VW55x_standard_peripheral/system_gd32vw55x.c ****     RCU_CFG0 |= RCU_AHB_CKSYS_DIV1;
 248:../Firmware/GD32VW55x_standard_peripheral/system_gd32vw55x.c ****     /* APB2 = AHB */
 249:../Firmware/GD32VW55x_standard_peripheral/system_gd32vw55x.c ****     RCU_CFG0 |= RCU_APB2_CKAHB_DIV1;
 250:../Firmware/GD32VW55x_standard_peripheral/system_gd32vw55x.c ****     /* APB1 = AHB */
 251:../Firmware/GD32VW55x_standard_peripheral/system_gd32vw55x.c ****     RCU_CFG0 |= RCU_APB1_CKAHB_DIV1;
 252:../Firmware/GD32VW55x_standard_peripheral/system_gd32vw55x.c **** 
 253:../Firmware/GD32VW55x_standard_peripheral/system_gd32vw55x.c ****     reg_temp = RCU_CFG0;
 254:../Firmware/GD32VW55x_standard_peripheral/system_gd32vw55x.c ****     /* select HXTAL as system clock */
 255:../Firmware/GD32VW55x_standard_peripheral/system_gd32vw55x.c ****     reg_temp &= ~RCU_CFG0_SCS;
 256:../Firmware/GD32VW55x_standard_peripheral/system_gd32vw55x.c ****     reg_temp |= RCU_CKSYSSRC_HXTAL;
 257:../Firmware/GD32VW55x_standard_peripheral/system_gd32vw55x.c ****     RCU_CFG0 = reg_temp;
 258:../Firmware/GD32VW55x_standard_peripheral/system_gd32vw55x.c **** 
 259:../Firmware/GD32VW55x_standard_peripheral/system_gd32vw55x.c ****     /* wait until HXTAL is selected as system clock */
 260:../Firmware/GD32VW55x_standard_peripheral/system_gd32vw55x.c ****     while(RCU_SCSS_HXTAL != (RCU_CFG0 & RCU_CFG0_SCSS)){
 261:../Firmware/GD32VW55x_standard_peripheral/system_gd32vw55x.c ****     }
 262:../Firmware/GD32VW55x_standard_peripheral/system_gd32vw55x.c **** }
 263:../Firmware/GD32VW55x_standard_peripheral/system_gd32vw55x.c **** #elif defined (__SYSTEM_CLOCK_48M_PLLDIG_IRC16M)
 264:../Firmware/GD32VW55x_standard_peripheral/system_gd32vw55x.c **** /*!
 265:../Firmware/GD32VW55x_standard_peripheral/system_gd32vw55x.c ****     \brief      configure the system clock to 48M by PLL which selects IRC16M as its clock source
 266:../Firmware/GD32VW55x_standard_peripheral/system_gd32vw55x.c ****     \param[in]  none
 267:../Firmware/GD32VW55x_standard_peripheral/system_gd32vw55x.c ****     \param[out] none
 268:../Firmware/GD32VW55x_standard_peripheral/system_gd32vw55x.c ****     \retval     none
 269:../Firmware/GD32VW55x_standard_peripheral/system_gd32vw55x.c **** */
 270:../Firmware/GD32VW55x_standard_peripheral/system_gd32vw55x.c **** static void system_clock_48m_irc16m(void)
 271:../Firmware/GD32VW55x_standard_peripheral/system_gd32vw55x.c **** {
 272:../Firmware/GD32VW55x_standard_peripheral/system_gd32vw55x.c ****     uint32_t timeout = 0U;
 273:../Firmware/GD32VW55x_standard_peripheral/system_gd32vw55x.c ****     uint32_t stab_flag = 0U;
 274:../Firmware/GD32VW55x_standard_peripheral/system_gd32vw55x.c ****     __IO uint32_t reg_temp;
 275:../Firmware/GD32VW55x_standard_peripheral/system_gd32vw55x.c **** 
 276:../Firmware/GD32VW55x_standard_peripheral/system_gd32vw55x.c ****     /* enable IRC16M */
 277:../Firmware/GD32VW55x_standard_peripheral/system_gd32vw55x.c ****     RCU_CTL |= (RCU_CTL_IRC16MEN | RCU_CTL_IRC16MRFON);
 278:../Firmware/GD32VW55x_standard_peripheral/system_gd32vw55x.c **** 
 279:../Firmware/GD32VW55x_standard_peripheral/system_gd32vw55x.c ****     /* wait until IRC16M is stable or the startup time is longer than IRC16M_STARTUP_TIMEOUT */
 280:../Firmware/GD32VW55x_standard_peripheral/system_gd32vw55x.c ****     do{
 281:../Firmware/GD32VW55x_standard_peripheral/system_gd32vw55x.c ****         timeout++;
 282:../Firmware/GD32VW55x_standard_peripheral/system_gd32vw55x.c ****         stab_flag = (RCU_CTL & RCU_CTL_IRC16MSTB);
 283:../Firmware/GD32VW55x_standard_peripheral/system_gd32vw55x.c ****     }while((0U == stab_flag) && (IRC16M_STARTUP_TIMEOUT != timeout));
 284:../Firmware/GD32VW55x_standard_peripheral/system_gd32vw55x.c **** 
 285:../Firmware/GD32VW55x_standard_peripheral/system_gd32vw55x.c ****     if(0U == (RCU_CTL & RCU_CTL_IRC16MSTB)){
 286:../Firmware/GD32VW55x_standard_peripheral/system_gd32vw55x.c ****         /* if fail */
 287:../Firmware/GD32VW55x_standard_peripheral/system_gd32vw55x.c ****         while(1){
 288:../Firmware/GD32VW55x_standard_peripheral/system_gd32vw55x.c ****         }
 289:../Firmware/GD32VW55x_standard_peripheral/system_gd32vw55x.c ****     }
 290:../Firmware/GD32VW55x_standard_peripheral/system_gd32vw55x.c **** 
 291:../Firmware/GD32VW55x_standard_peripheral/system_gd32vw55x.c ****     /* IRC16M is stable */
 292:../Firmware/GD32VW55x_standard_peripheral/system_gd32vw55x.c ****     /* AHB = SYSCLK */
 293:../Firmware/GD32VW55x_standard_peripheral/system_gd32vw55x.c ****     RCU_CFG0 |= RCU_AHB_CKSYS_DIV1;
 294:../Firmware/GD32VW55x_standard_peripheral/system_gd32vw55x.c ****     /* APB2 = AHB */
 295:../Firmware/GD32VW55x_standard_peripheral/system_gd32vw55x.c ****     RCU_CFG0 |= RCU_APB2_CKAHB_DIV1;
 296:../Firmware/GD32VW55x_standard_peripheral/system_gd32vw55x.c ****     /* APB1 = AHB/1 */
 297:../Firmware/GD32VW55x_standard_peripheral/system_gd32vw55x.c ****     RCU_CFG0 |= RCU_APB1_CKAHB_DIV1;
 298:../Firmware/GD32VW55x_standard_peripheral/system_gd32vw55x.c **** 
 299:../Firmware/GD32VW55x_standard_peripheral/system_gd32vw55x.c ****     RCU_PLL |= RCU_PLLSRC_IRC16M;
 300:../Firmware/GD32VW55x_standard_peripheral/system_gd32vw55x.c **** 
 301:../Firmware/GD32VW55x_standard_peripheral/system_gd32vw55x.c ****     /* 960M = 16MHz*60 */
 302:../Firmware/GD32VW55x_standard_peripheral/system_gd32vw55x.c ****     RCU_PLLDIGCFG1 = ((960 << 21) / 16) & 0x7FFFFFFF;
 303:../Firmware/GD32VW55x_standard_peripheral/system_gd32vw55x.c ****     /* PLLDIG OUT = 480M */
 304:../Firmware/GD32VW55x_standard_peripheral/system_gd32vw55x.c ****     RCU_PLLDIGCFG0 |= ( RCU_PLLDIG_480M );
 305:../Firmware/GD32VW55x_standard_peripheral/system_gd32vw55x.c ****     /* SYS clock = 48M */
 306:../Firmware/GD32VW55x_standard_peripheral/system_gd32vw55x.c ****     RCU_PLLDIGCFG0 |= ( RCU_PLLDIG_SYS_DIV10 );
 307:../Firmware/GD32VW55x_standard_peripheral/system_gd32vw55x.c **** 
 308:../Firmware/GD32VW55x_standard_peripheral/system_gd32vw55x.c ****     /* enable PLLDIG */
 309:../Firmware/GD32VW55x_standard_peripheral/system_gd32vw55x.c ****     RCU_CFG1 |= (RCU_CFG1_BGPU);
 310:../Firmware/GD32VW55x_standard_peripheral/system_gd32vw55x.c ****     RCU_CTL |= (RCU_CTL_PLLDIGEN | RCU_CTL_PLLDIGPU);
 311:../Firmware/GD32VW55x_standard_peripheral/system_gd32vw55x.c **** 
 312:../Firmware/GD32VW55x_standard_peripheral/system_gd32vw55x.c ****     /* wait until PLLDIG is stable */
 313:../Firmware/GD32VW55x_standard_peripheral/system_gd32vw55x.c ****     while(0U == (RCU_CTL & RCU_CTL_PLLDIGSTB)){
 314:../Firmware/GD32VW55x_standard_peripheral/system_gd32vw55x.c ****     }
 315:../Firmware/GD32VW55x_standard_peripheral/system_gd32vw55x.c **** 
 316:../Firmware/GD32VW55x_standard_peripheral/system_gd32vw55x.c ****     reg_temp = RCU_CFG0;
 317:../Firmware/GD32VW55x_standard_peripheral/system_gd32vw55x.c ****     /* select PLLDIG as system clock */
 318:../Firmware/GD32VW55x_standard_peripheral/system_gd32vw55x.c ****     reg_temp &= ~RCU_CFG0_SCS;
 319:../Firmware/GD32VW55x_standard_peripheral/system_gd32vw55x.c ****     reg_temp |= RCU_CKSYSSRC_PLLDIG;
 320:../Firmware/GD32VW55x_standard_peripheral/system_gd32vw55x.c ****     RCU_CFG0 = reg_temp;
 321:../Firmware/GD32VW55x_standard_peripheral/system_gd32vw55x.c **** 
 322:../Firmware/GD32VW55x_standard_peripheral/system_gd32vw55x.c ****     /* wait until PLLDIG is selected as system clock */
 323:../Firmware/GD32VW55x_standard_peripheral/system_gd32vw55x.c ****     while(RCU_SCSS_PLLDIG != (RCU_CFG0 & RCU_CFG0_SCSS)){
 324:../Firmware/GD32VW55x_standard_peripheral/system_gd32vw55x.c ****     }
 325:../Firmware/GD32VW55x_standard_peripheral/system_gd32vw55x.c **** }
 326:../Firmware/GD32VW55x_standard_peripheral/system_gd32vw55x.c **** #elif defined (__SYSTEM_CLOCK_160M_PLLDIG_IRC16M)
 327:../Firmware/GD32VW55x_standard_peripheral/system_gd32vw55x.c **** /*!
 328:../Firmware/GD32VW55x_standard_peripheral/system_gd32vw55x.c ****     \brief      configure the system clock to 160M by PLL which selects IRC16M as its clock source
 329:../Firmware/GD32VW55x_standard_peripheral/system_gd32vw55x.c ****     \param[in]  none
 330:../Firmware/GD32VW55x_standard_peripheral/system_gd32vw55x.c ****     \param[out] none
 331:../Firmware/GD32VW55x_standard_peripheral/system_gd32vw55x.c ****     \retval     none
 332:../Firmware/GD32VW55x_standard_peripheral/system_gd32vw55x.c **** */
 333:../Firmware/GD32VW55x_standard_peripheral/system_gd32vw55x.c **** static void system_clock_160m_irc16m(void)
 334:../Firmware/GD32VW55x_standard_peripheral/system_gd32vw55x.c **** {
 335:../Firmware/GD32VW55x_standard_peripheral/system_gd32vw55x.c ****     uint32_t timeout = 0U;
 336:../Firmware/GD32VW55x_standard_peripheral/system_gd32vw55x.c ****     uint32_t stab_flag = 0U;
 337:../Firmware/GD32VW55x_standard_peripheral/system_gd32vw55x.c ****     __IO uint32_t reg_temp;
 338:../Firmware/GD32VW55x_standard_peripheral/system_gd32vw55x.c **** 	
 339:../Firmware/GD32VW55x_standard_peripheral/system_gd32vw55x.c ****     /* enable IRC16M */
 340:../Firmware/GD32VW55x_standard_peripheral/system_gd32vw55x.c ****     RCU_CTL |= (RCU_CTL_IRC16MEN | RCU_CTL_IRC16MRFON);
 341:../Firmware/GD32VW55x_standard_peripheral/system_gd32vw55x.c **** 
 342:../Firmware/GD32VW55x_standard_peripheral/system_gd32vw55x.c ****     /* wait until IRC16M is stable or the startup time is longer than IRC16M_STARTUP_TIMEOUT */
 343:../Firmware/GD32VW55x_standard_peripheral/system_gd32vw55x.c ****     do{
 344:../Firmware/GD32VW55x_standard_peripheral/system_gd32vw55x.c ****         timeout++;
 345:../Firmware/GD32VW55x_standard_peripheral/system_gd32vw55x.c ****         stab_flag = (RCU_CTL & RCU_CTL_IRC16MSTB);
 346:../Firmware/GD32VW55x_standard_peripheral/system_gd32vw55x.c ****     }while((0U == stab_flag) && (IRC16M_STARTUP_TIMEOUT != timeout));
 347:../Firmware/GD32VW55x_standard_peripheral/system_gd32vw55x.c **** 
 348:../Firmware/GD32VW55x_standard_peripheral/system_gd32vw55x.c ****     /* if fail */
 349:../Firmware/GD32VW55x_standard_peripheral/system_gd32vw55x.c ****     if(0U == (RCU_CTL & RCU_CTL_IRC16MSTB)){
 350:../Firmware/GD32VW55x_standard_peripheral/system_gd32vw55x.c ****         while(1){
 351:../Firmware/GD32VW55x_standard_peripheral/system_gd32vw55x.c ****         }
 352:../Firmware/GD32VW55x_standard_peripheral/system_gd32vw55x.c ****     }
 353:../Firmware/GD32VW55x_standard_peripheral/system_gd32vw55x.c **** 
 354:../Firmware/GD32VW55x_standard_peripheral/system_gd32vw55x.c ****     /* IRC16M is stable */
 355:../Firmware/GD32VW55x_standard_peripheral/system_gd32vw55x.c ****     /* AHB = SYSCLK */
 356:../Firmware/GD32VW55x_standard_peripheral/system_gd32vw55x.c ****     RCU_CFG0 |= RCU_AHB_CKSYS_DIV1;
 357:../Firmware/GD32VW55x_standard_peripheral/system_gd32vw55x.c ****     /* APB2 = AHB */
 358:../Firmware/GD32VW55x_standard_peripheral/system_gd32vw55x.c ****     RCU_CFG0 |= RCU_APB2_CKAHB_DIV1;
 359:../Firmware/GD32VW55x_standard_peripheral/system_gd32vw55x.c ****     /* APB1 = AHB/2 */
 360:../Firmware/GD32VW55x_standard_peripheral/system_gd32vw55x.c ****     RCU_CFG0 |= RCU_APB1_CKAHB_DIV2;
 361:../Firmware/GD32VW55x_standard_peripheral/system_gd32vw55x.c **** 
 362:../Firmware/GD32VW55x_standard_peripheral/system_gd32vw55x.c ****     RCU_PLL |= RCU_PLLSRC_IRC16M;
 363:../Firmware/GD32VW55x_standard_peripheral/system_gd32vw55x.c **** 
 364:../Firmware/GD32VW55x_standard_peripheral/system_gd32vw55x.c ****     /* 960M = 16MHz*60 */
 365:../Firmware/GD32VW55x_standard_peripheral/system_gd32vw55x.c ****     RCU_PLLDIGCFG1 = ((960 << 21) / 16) & 0x7FFFFFFF;
 366:../Firmware/GD32VW55x_standard_peripheral/system_gd32vw55x.c ****     /* PLLDIG OUT = 480M */
 367:../Firmware/GD32VW55x_standard_peripheral/system_gd32vw55x.c ****     RCU_PLLDIGCFG0 |= ( RCU_PLLDIG_480M );
 368:../Firmware/GD32VW55x_standard_peripheral/system_gd32vw55x.c ****     /* SYS clock = 160M */
 369:../Firmware/GD32VW55x_standard_peripheral/system_gd32vw55x.c ****     RCU_PLLDIGCFG0 |= ( RCU_PLLDIG_SYS_DIV3 );
 370:../Firmware/GD32VW55x_standard_peripheral/system_gd32vw55x.c **** 
 371:../Firmware/GD32VW55x_standard_peripheral/system_gd32vw55x.c ****     /* enable PLLDIG */
 372:../Firmware/GD32VW55x_standard_peripheral/system_gd32vw55x.c ****     RCU_CFG1 |= (RCU_CFG1_BGPU);
 373:../Firmware/GD32VW55x_standard_peripheral/system_gd32vw55x.c ****     RCU_CTL |= (RCU_CTL_PLLDIGEN | RCU_CTL_PLLDIGPU);
 374:../Firmware/GD32VW55x_standard_peripheral/system_gd32vw55x.c **** 
 375:../Firmware/GD32VW55x_standard_peripheral/system_gd32vw55x.c ****     /* wait until PLLDIG is stable */
 376:../Firmware/GD32VW55x_standard_peripheral/system_gd32vw55x.c ****     while(0U == (RCU_CTL & RCU_CTL_PLLDIGSTB)){
 377:../Firmware/GD32VW55x_standard_peripheral/system_gd32vw55x.c ****     }
 378:../Firmware/GD32VW55x_standard_peripheral/system_gd32vw55x.c **** 
 379:../Firmware/GD32VW55x_standard_peripheral/system_gd32vw55x.c ****     reg_temp = RCU_CFG0;
 380:../Firmware/GD32VW55x_standard_peripheral/system_gd32vw55x.c ****     /* select PLLDIG as system clock */
 381:../Firmware/GD32VW55x_standard_peripheral/system_gd32vw55x.c ****     reg_temp &= ~RCU_CFG0_SCS;
 382:../Firmware/GD32VW55x_standard_peripheral/system_gd32vw55x.c ****     reg_temp |= RCU_CKSYSSRC_PLLDIG;
 383:../Firmware/GD32VW55x_standard_peripheral/system_gd32vw55x.c ****     RCU_CFG0 = reg_temp;
 384:../Firmware/GD32VW55x_standard_peripheral/system_gd32vw55x.c **** 
 385:../Firmware/GD32VW55x_standard_peripheral/system_gd32vw55x.c ****     /* wait until PLLDIG is selected as system clock */
 386:../Firmware/GD32VW55x_standard_peripheral/system_gd32vw55x.c ****     while(RCU_SCSS_PLLDIG != (RCU_CFG0 & RCU_CFG0_SCSS)){
 387:../Firmware/GD32VW55x_standard_peripheral/system_gd32vw55x.c ****     }
 388:../Firmware/GD32VW55x_standard_peripheral/system_gd32vw55x.c **** }
 389:../Firmware/GD32VW55x_standard_peripheral/system_gd32vw55x.c **** #elif defined (__SYSTEM_CLOCK_160M_PLLDIG_HXTAL)
 390:../Firmware/GD32VW55x_standard_peripheral/system_gd32vw55x.c **** /*!
 391:../Firmware/GD32VW55x_standard_peripheral/system_gd32vw55x.c ****     \brief      configure the system clock to 160M by PLL which selects HXTAL as its clock source
 392:../Firmware/GD32VW55x_standard_peripheral/system_gd32vw55x.c ****     \param[in]  none
 393:../Firmware/GD32VW55x_standard_peripheral/system_gd32vw55x.c ****     \param[out] none
 394:../Firmware/GD32VW55x_standard_peripheral/system_gd32vw55x.c ****     \retval     none
 395:../Firmware/GD32VW55x_standard_peripheral/system_gd32vw55x.c **** */
 396:../Firmware/GD32VW55x_standard_peripheral/system_gd32vw55x.c **** static void system_clock_160m_hxtal(void)
 397:../Firmware/GD32VW55x_standard_peripheral/system_gd32vw55x.c **** {
 275              		.loc 1 397 1
 276              		.cfi_startproc
 277 0000 0111     		addi	sp,sp,-32
 278              		.cfi_def_cfa_offset 32
 279 0002 22CE     		sw	s0,28(sp)
 280              		.cfi_offset 8, -4
 281 0004 0010     		addi	s0,sp,32
 282              		.cfi_def_cfa 8, 0
 398:../Firmware/GD32VW55x_standard_peripheral/system_gd32vw55x.c ****     uint32_t timeout = 0U;
 283              		.loc 1 398 14
 284 0006 232604FE 		sw	zero,-20(s0)
 399:../Firmware/GD32VW55x_standard_peripheral/system_gd32vw55x.c ****     uint32_t stab_flag = 0U;
 285              		.loc 1 399 14
 286 000a 232404FE 		sw	zero,-24(s0)
 400:../Firmware/GD32VW55x_standard_peripheral/system_gd32vw55x.c ****     __IO uint32_t reg_temp;
 401:../Firmware/GD32VW55x_standard_peripheral/system_gd32vw55x.c **** 
 402:../Firmware/GD32VW55x_standard_peripheral/system_gd32vw55x.c ****     /* power up HXTAL */
 403:../Firmware/GD32VW55x_standard_peripheral/system_gd32vw55x.c ****     RCU_CTL |= RCU_CTL_HXTALPU;
 287              		.loc 1 403 13
 288 000e B7470240 		li	a5,1073889280
 289 0012 93870780 		addi	a5,a5,-2048
 290 0016 9443     		lw	a3,0(a5)
 291 0018 B7470240 		li	a5,1073889280
 292 001c 93870780 		addi	a5,a5,-2048
 293 0020 37070010 		li	a4,268435456
 294 0024 558F     		or	a4,a3,a4
 295 0026 98C3     		sw	a4,0(a5)
 404:../Firmware/GD32VW55x_standard_peripheral/system_gd32vw55x.c ****     /* enable HXTAL */
 405:../Firmware/GD32VW55x_standard_peripheral/system_gd32vw55x.c ****     RCU_CTL |= RCU_CTL_HXTALEN;
 296              		.loc 1 405 13
 297 0028 B7470240 		li	a5,1073889280
 298 002c 93870780 		addi	a5,a5,-2048
 299 0030 9443     		lw	a3,0(a5)
 300 0032 B7470240 		li	a5,1073889280
 301 0036 93870780 		addi	a5,a5,-2048
 302 003a 4167     		li	a4,65536
 303 003c 558F     		or	a4,a3,a4
 304 003e 98C3     		sw	a4,0(a5)
 305              	.LBB3:
 406:../Firmware/GD32VW55x_standard_peripheral/system_gd32vw55x.c ****     HXTALSTB_DELAY
 306              		.loc 1 406 5
 307 0040 232004FE 		sw	zero,-32(s0)
 308 0044 31A0     		j	.L15
 309              	.L16:
 310              		.loc 1 406 5 is_stmt 0 discriminator 3
 311 0046 832704FE 		lw	a5,-32(s0)
 312 004a 8507     		addi	a5,a5,1
 313 004c 2320F4FE 		sw	a5,-32(s0)
 314              	.L15:
 315              		.loc 1 406 5 discriminator 1
 316 0050 032704FE 		lw	a4,-32(s0)
 317 0054 8967     		li	a5,8192
 318 0056 E368F7FE 		bltu	a4,a5,.L16
 319              	.LBE3:
 407:../Firmware/GD32VW55x_standard_peripheral/system_gd32vw55x.c ****     RCU_CTL |= RCU_CTL_HXTALREADY;
 320              		.loc 1 407 13 is_stmt 1
 321 005a B7470240 		li	a5,1073889280
 322 005e 93870780 		addi	a5,a5,-2048
 323 0062 9443     		lw	a3,0(a5)
 324 0064 B7470240 		li	a5,1073889280
 325 0068 93870780 		addi	a5,a5,-2048
 326 006c 37070080 		li	a4,-2147483648
 327 0070 558F     		or	a4,a3,a4
 328 0072 98C3     		sw	a4,0(a5)
 329              	.L18:
 408:../Firmware/GD32VW55x_standard_peripheral/system_gd32vw55x.c **** 
 409:../Firmware/GD32VW55x_standard_peripheral/system_gd32vw55x.c ****     /* wait until HXTAL is stable or the startup time is longer than HXTAL_STARTUP_TIMEOUT */
 410:../Firmware/GD32VW55x_standard_peripheral/system_gd32vw55x.c ****     do{
 411:../Firmware/GD32VW55x_standard_peripheral/system_gd32vw55x.c ****         timeout++;
 330              		.loc 1 411 16 discriminator 2
 331 0074 8327C4FE 		lw	a5,-20(s0)
 332 0078 8507     		addi	a5,a5,1
 333 007a 2326F4FE 		sw	a5,-20(s0)
 412:../Firmware/GD32VW55x_standard_peripheral/system_gd32vw55x.c ****         stab_flag = (RCU_CTL & RCU_CTL_HXTALSTB);
 334              		.loc 1 412 22 discriminator 2
 335 007e B7470240 		li	a5,1073889280
 336 0082 93870780 		addi	a5,a5,-2048
 337 0086 9843     		lw	a4,0(a5)
 338              		.loc 1 412 19 discriminator 2
 339 0088 B7070200 		li	a5,131072
 340 008c F98F     		and	a5,a4,a5
 341 008e 2324F4FE 		sw	a5,-24(s0)
 413:../Firmware/GD32VW55x_standard_peripheral/system_gd32vw55x.c ****     }while((0U == stab_flag) && (HXTAL_STARTUP_TIMEOUT != timeout));
 342              		.loc 1 413 5 discriminator 2
 343 0092 832784FE 		lw	a5,-24(s0)
 344 0096 99E7     		bne	a5,zero,.L17
 345              		.loc 1 413 30 discriminator 1
 346 0098 0327C4FE 		lw	a4,-20(s0)
 347 009c C167     		li	a5,65536
 348 009e FD17     		addi	a5,a5,-1
 349 00a0 E31AF7FC 		bne	a4,a5,.L18
 350              	.L17:
 414:../Firmware/GD32VW55x_standard_peripheral/system_gd32vw55x.c **** 
 415:../Firmware/GD32VW55x_standard_peripheral/system_gd32vw55x.c ****     if(0U == (RCU_CTL & RCU_CTL_HXTALSTB)){
 351              		.loc 1 415 15
 352 00a4 B7470240 		li	a5,1073889280
 353 00a8 93870780 		addi	a5,a5,-2048
 354 00ac 9843     		lw	a4,0(a5)
 355              		.loc 1 415 23
 356 00ae B7070200 		li	a5,131072
 357 00b2 F98F     		and	a5,a4,a5
 358              		.loc 1 415 7
 359 00b4 91E3     		bne	a5,zero,.L19
 360              	.L20:
 416:../Firmware/GD32VW55x_standard_peripheral/system_gd32vw55x.c ****         /* if fail */
 417:../Firmware/GD32VW55x_standard_peripheral/system_gd32vw55x.c ****         while(1){
 361              		.loc 1 417 14 discriminator 1
 362 00b6 01A0     		j	.L20
 363              	.L19:
 418:../Firmware/GD32VW55x_standard_peripheral/system_gd32vw55x.c ****         }
 419:../Firmware/GD32VW55x_standard_peripheral/system_gd32vw55x.c ****     }
 420:../Firmware/GD32VW55x_standard_peripheral/system_gd32vw55x.c **** 
 421:../Firmware/GD32VW55x_standard_peripheral/system_gd32vw55x.c ****     /* HXTAL is stable */
 422:../Firmware/GD32VW55x_standard_peripheral/system_gd32vw55x.c ****     /* AHB = SYSCLK */
 423:../Firmware/GD32VW55x_standard_peripheral/system_gd32vw55x.c ****     RCU_CFG0 |= RCU_AHB_CKSYS_DIV1;
 364              		.loc 1 423 14
 365 00b8 B7470240 		li	a5,1073889280
 366 00bc 13878780 		addi	a4,a5,-2040
 367 00c0 B7470240 		li	a5,1073889280
 368 00c4 93878780 		addi	a5,a5,-2040
 369 00c8 1843     		lw	a4,0(a4)
 370 00ca 98C3     		sw	a4,0(a5)
 424:../Firmware/GD32VW55x_standard_peripheral/system_gd32vw55x.c ****     /* APB2 = AHB */
 425:../Firmware/GD32VW55x_standard_peripheral/system_gd32vw55x.c ****     RCU_CFG0 |= RCU_APB2_CKAHB_DIV1;
 371              		.loc 1 425 14
 372 00cc B7470240 		li	a5,1073889280
 373 00d0 13878780 		addi	a4,a5,-2040
 374 00d4 B7470240 		li	a5,1073889280
 375 00d8 93878780 		addi	a5,a5,-2040
 376 00dc 1843     		lw	a4,0(a4)
 377 00de 98C3     		sw	a4,0(a5)
 426:../Firmware/GD32VW55x_standard_peripheral/system_gd32vw55x.c ****     /* APB1 = AHB/2 */
 427:../Firmware/GD32VW55x_standard_peripheral/system_gd32vw55x.c ****     RCU_CFG0 |= RCU_APB1_CKAHB_DIV2;
 378              		.loc 1 427 14
 379 00e0 B7470240 		li	a5,1073889280
 380 00e4 93878780 		addi	a5,a5,-2040
 381 00e8 9443     		lw	a3,0(a5)
 382 00ea B7470240 		li	a5,1073889280
 383 00ee 93878780 		addi	a5,a5,-2040
 384 00f2 0567     		li	a4,4096
 385 00f4 558F     		or	a4,a3,a4
 386 00f6 98C3     		sw	a4,0(a5)
 428:../Firmware/GD32VW55x_standard_peripheral/system_gd32vw55x.c **** 
 429:../Firmware/GD32VW55x_standard_peripheral/system_gd32vw55x.c ****     RCU_PLL |= RCU_PLLSRC_HXTAL;
 387              		.loc 1 429 13
 388 00f8 B7470240 		li	a5,1073889280
 389 00fc 93874780 		addi	a5,a5,-2044
 390 0100 9443     		lw	a3,0(a5)
 391 0102 B7470240 		li	a5,1073889280
 392 0106 93874780 		addi	a5,a5,-2044
 393 010a 2167     		li	a4,32768
 394 010c 558F     		or	a4,a3,a4
 395 010e 98C3     		sw	a4,0(a5)
 430:../Firmware/GD32VW55x_standard_peripheral/system_gd32vw55x.c **** 
 431:../Firmware/GD32VW55x_standard_peripheral/system_gd32vw55x.c ****     /* PLLDIG = 960/HXTAL */
 432:../Firmware/GD32VW55x_standard_peripheral/system_gd32vw55x.c ****     RCU_PLLDIGCFG1 = ((960 << 21) / (HXTAL_VALUE/1000000)) & 0x7FFFFFFF;
 396              		.loc 1 432 5
 397 0110 B7470240 		li	a5,1073889280
 398 0114 93874789 		addi	a5,a5,-1900
 399              		.loc 1 432 20
 400 0118 37070003 		li	a4,50331648
 401 011c 98C3     		sw	a4,0(a5)
 433:../Firmware/GD32VW55x_standard_peripheral/system_gd32vw55x.c **** 
 434:../Firmware/GD32VW55x_standard_peripheral/system_gd32vw55x.c ****     /* PLLDIG OUT = 480M */
 435:../Firmware/GD32VW55x_standard_peripheral/system_gd32vw55x.c ****     RCU_PLLDIGCFG0 |= ( RCU_PLLDIG_480M );
 402              		.loc 1 435 20
 403 011e B7470240 		li	a5,1073889280
 404 0122 93874788 		addi	a5,a5,-1916
 405 0126 9443     		lw	a3,0(a5)
 406 0128 B7470240 		li	a5,1073889280
 407 012c 93874788 		addi	a5,a5,-1916
 408 0130 37070003 		li	a4,50331648
 409 0134 558F     		or	a4,a3,a4
 410 0136 98C3     		sw	a4,0(a5)
 436:../Firmware/GD32VW55x_standard_peripheral/system_gd32vw55x.c ****     /* SYS clock = 160M */
 437:../Firmware/GD32VW55x_standard_peripheral/system_gd32vw55x.c ****     RCU_PLLDIGCFG0 |= ( RCU_PLLDIG_SYS_DIV3 );
 411              		.loc 1 437 20
 412 0138 B7470240 		li	a5,1073889280
 413 013c 93874788 		addi	a5,a5,-1916
 414 0140 9443     		lw	a3,0(a5)
 415 0142 B7470240 		li	a5,1073889280
 416 0146 93874788 		addi	a5,a5,-1916
 417 014a 37070008 		li	a4,134217728
 418 014e 558F     		or	a4,a3,a4
 419 0150 98C3     		sw	a4,0(a5)
 438:../Firmware/GD32VW55x_standard_peripheral/system_gd32vw55x.c ****     /* enable PLLDIG */
 439:../Firmware/GD32VW55x_standard_peripheral/system_gd32vw55x.c ****     RCU_CFG1 |= (RCU_CFG1_BGPU);
 420              		.loc 1 439 14
 421 0152 B7470240 		li	a5,1073889280
 422 0156 9387C788 		addi	a5,a5,-1908
 423 015a 9443     		lw	a3,0(a5)
 424 015c B7470240 		li	a5,1073889280
 425 0160 9387C788 		addi	a5,a5,-1908
 426 0164 37070800 		li	a4,524288
 427 0168 558F     		or	a4,a3,a4
 428 016a 98C3     		sw	a4,0(a5)
 440:../Firmware/GD32VW55x_standard_peripheral/system_gd32vw55x.c ****     RCU_CTL |= (RCU_CTL_PLLDIGEN | RCU_CTL_PLLDIGPU);
 429              		.loc 1 440 13
 430 016c B7470240 		li	a5,1073889280
 431 0170 93870780 		addi	a5,a5,-2048
 432 0174 9443     		lw	a3,0(a5)
 433 0176 B7470240 		li	a5,1073889280
 434 017a 93870780 		addi	a5,a5,-2048
 435 017e 37073000 		li	a4,3145728
 436 0182 558F     		or	a4,a3,a4
 437 0184 98C3     		sw	a4,0(a5)
 441:../Firmware/GD32VW55x_standard_peripheral/system_gd32vw55x.c ****     /* wait until PLLDIG is stable */
 442:../Firmware/GD32VW55x_standard_peripheral/system_gd32vw55x.c ****     while(0U == (RCU_CTL & RCU_CTL_PLLDIGSTB)){
 438              		.loc 1 442 10
 439 0186 0100     		nop
 440              	.L21:
 441              		.loc 1 442 18 discriminator 1
 442 0188 B7470240 		li	a5,1073889280
 443 018c 93870780 		addi	a5,a5,-2048
 444 0190 9843     		lw	a4,0(a5)
 445              		.loc 1 442 26 discriminator 1
 446 0192 B7078000 		li	a5,8388608
 447 0196 F98F     		and	a5,a4,a5
 448              		.loc 1 442 10 discriminator 1
 449 0198 E5DB     		beq	a5,zero,.L21
 443:../Firmware/GD32VW55x_standard_peripheral/system_gd32vw55x.c ****     }
 444:../Firmware/GD32VW55x_standard_peripheral/system_gd32vw55x.c ****     reg_temp = RCU_CFG0;
 450              		.loc 1 444 16
 451 019a B7470240 		li	a5,1073889280
 452 019e 93878780 		addi	a5,a5,-2040
 453 01a2 9C43     		lw	a5,0(a5)
 454              		.loc 1 444 14
 455 01a4 2322F4FE 		sw	a5,-28(s0)
 445:../Firmware/GD32VW55x_standard_peripheral/system_gd32vw55x.c ****     /* select PLLDIG as system clock */
 446:../Firmware/GD32VW55x_standard_peripheral/system_gd32vw55x.c ****     reg_temp &= ~RCU_CFG0_SCS;
 456              		.loc 1 446 14
 457 01a8 832744FE 		lw	a5,-28(s0)
 458 01ac F19B     		andi	a5,a5,-4
 459 01ae 2322F4FE 		sw	a5,-28(s0)
 447:../Firmware/GD32VW55x_standard_peripheral/system_gd32vw55x.c ****     reg_temp |= RCU_CKSYSSRC_PLLDIG;
 460              		.loc 1 447 14
 461 01b2 832744FE 		lw	a5,-28(s0)
 462 01b6 93E72700 		ori	a5,a5,2
 463 01ba 2322F4FE 		sw	a5,-28(s0)
 448:../Firmware/GD32VW55x_standard_peripheral/system_gd32vw55x.c ****     RCU_CFG0 = reg_temp;
 464              		.loc 1 448 5
 465 01be B7470240 		li	a5,1073889280
 466 01c2 93878780 		addi	a5,a5,-2040
 467              		.loc 1 448 14
 468 01c6 032744FE 		lw	a4,-28(s0)
 469 01ca 98C3     		sw	a4,0(a5)
 449:../Firmware/GD32VW55x_standard_peripheral/system_gd32vw55x.c **** 
 450:../Firmware/GD32VW55x_standard_peripheral/system_gd32vw55x.c ****     /* wait until PLLDIG is selected as system clock */
 451:../Firmware/GD32VW55x_standard_peripheral/system_gd32vw55x.c ****     while(RCU_SCSS_PLLDIG != (RCU_CFG0 & RCU_CFG0_SCSS)){
 470              		.loc 1 451 10
 471 01cc 0100     		nop
 472              	.L22:
 473              		.loc 1 451 31 discriminator 1
 474 01ce B7470240 		li	a5,1073889280
 475 01d2 93878780 		addi	a5,a5,-2040
 476 01d6 9C43     		lw	a5,0(a5)
 477              		.loc 1 451 40 discriminator 1
 478 01d8 13F7C700 		andi	a4,a5,12
 479              		.loc 1 451 10 discriminator 1
 480 01dc A147     		li	a5,8
 481 01de E318F7FE 		bne	a4,a5,.L22
 452:../Firmware/GD32VW55x_standard_peripheral/system_gd32vw55x.c ****     }
 453:../Firmware/GD32VW55x_standard_peripheral/system_gd32vw55x.c **** } /* __SYSTEM_CLOCK_IRC16M */
 482              		.loc 1 453 1
 483 01e2 0100     		nop
 484 01e4 0100     		nop
 485 01e6 7244     		lw	s0,28(sp)
 486              		.cfi_restore 8
 487              		.cfi_def_cfa 2, 32
 488 01e8 0561     		addi	sp,sp,32
 489              		.cfi_def_cfa_offset 0
 490 01ea 8280     		jr	ra
 491              		.cfi_endproc
 492              	.LFE350:
 494              		.section	.rodata
 495              		.align	2
 496              	.LC0:
 497 0000 00       		.string	""
 498 0001 00       		.string	""
 499 0002 00       		.string	""
 500 0003 00       		.string	""
 501 0004 00       		.string	""
 502 0005 00       		.string	""
 503 0006 00       		.string	""
 504 0007 00       		.string	""
 505 0008 01020304 		.ascii	"\001\002\003\004\006\007\b\t"
 505      06070809 
 506              		.section	.text.SystemCoreClockUpdate,"ax",@progbits
 507              		.align	1
 508              		.globl	SystemCoreClockUpdate
 510              	SystemCoreClockUpdate:
 511              	.LFB351:
 454:../Firmware/GD32VW55x_standard_peripheral/system_gd32vw55x.c **** #elif defined (__SYSTEM_CLOCK_48M_PLLDIG_HXTAL)
 455:../Firmware/GD32VW55x_standard_peripheral/system_gd32vw55x.c **** /*!
 456:../Firmware/GD32VW55x_standard_peripheral/system_gd32vw55x.c ****     \brief      configure the system clock to 48M by PLL which selects HXTAL as its clock source
 457:../Firmware/GD32VW55x_standard_peripheral/system_gd32vw55x.c ****     \param[in]  none
 458:../Firmware/GD32VW55x_standard_peripheral/system_gd32vw55x.c ****     \param[out] none
 459:../Firmware/GD32VW55x_standard_peripheral/system_gd32vw55x.c ****     \retval     none
 460:../Firmware/GD32VW55x_standard_peripheral/system_gd32vw55x.c **** */
 461:../Firmware/GD32VW55x_standard_peripheral/system_gd32vw55x.c **** static void system_clock_48m_hxtal(void)
 462:../Firmware/GD32VW55x_standard_peripheral/system_gd32vw55x.c **** {
 463:../Firmware/GD32VW55x_standard_peripheral/system_gd32vw55x.c ****     uint32_t timeout = 0U;
 464:../Firmware/GD32VW55x_standard_peripheral/system_gd32vw55x.c ****     uint32_t stab_flag = 0U;
 465:../Firmware/GD32VW55x_standard_peripheral/system_gd32vw55x.c ****     __IO uint32_t reg_temp;
 466:../Firmware/GD32VW55x_standard_peripheral/system_gd32vw55x.c **** 
 467:../Firmware/GD32VW55x_standard_peripheral/system_gd32vw55x.c ****     /* power up HXTAL */
 468:../Firmware/GD32VW55x_standard_peripheral/system_gd32vw55x.c ****     RCU_CTL |= RCU_CTL_HXTALPU;
 469:../Firmware/GD32VW55x_standard_peripheral/system_gd32vw55x.c ****     /* enable HXTAL */
 470:../Firmware/GD32VW55x_standard_peripheral/system_gd32vw55x.c ****     RCU_CTL |= RCU_CTL_HXTALEN;
 471:../Firmware/GD32VW55x_standard_peripheral/system_gd32vw55x.c ****     HXTALSTB_DELAY
 472:../Firmware/GD32VW55x_standard_peripheral/system_gd32vw55x.c ****     RCU_CTL |= RCU_CTL_HXTALREADY;
 473:../Firmware/GD32VW55x_standard_peripheral/system_gd32vw55x.c **** 
 474:../Firmware/GD32VW55x_standard_peripheral/system_gd32vw55x.c ****     /* wait until HXTAL is stable or the startup time is longer than HXTAL_STARTUP_TIMEOUT */
 475:../Firmware/GD32VW55x_standard_peripheral/system_gd32vw55x.c ****     do{
 476:../Firmware/GD32VW55x_standard_peripheral/system_gd32vw55x.c ****         timeout++;
 477:../Firmware/GD32VW55x_standard_peripheral/system_gd32vw55x.c ****         stab_flag = (RCU_CTL & RCU_CTL_HXTALSTB);
 478:../Firmware/GD32VW55x_standard_peripheral/system_gd32vw55x.c ****     }while((0U == stab_flag) && (HXTAL_STARTUP_TIMEOUT != timeout));
 479:../Firmware/GD32VW55x_standard_peripheral/system_gd32vw55x.c **** 
 480:../Firmware/GD32VW55x_standard_peripheral/system_gd32vw55x.c ****     if(0U == (RCU_CTL & RCU_CTL_HXTALSTB)){
 481:../Firmware/GD32VW55x_standard_peripheral/system_gd32vw55x.c ****         /* if fail */
 482:../Firmware/GD32VW55x_standard_peripheral/system_gd32vw55x.c ****         while(1){
 483:../Firmware/GD32VW55x_standard_peripheral/system_gd32vw55x.c ****         }
 484:../Firmware/GD32VW55x_standard_peripheral/system_gd32vw55x.c ****     }
 485:../Firmware/GD32VW55x_standard_peripheral/system_gd32vw55x.c **** 
 486:../Firmware/GD32VW55x_standard_peripheral/system_gd32vw55x.c ****     /* HXTAL is stable */
 487:../Firmware/GD32VW55x_standard_peripheral/system_gd32vw55x.c ****     /* AHB = SYSCLK */
 488:../Firmware/GD32VW55x_standard_peripheral/system_gd32vw55x.c ****     RCU_CFG0 |= RCU_AHB_CKSYS_DIV1;
 489:../Firmware/GD32VW55x_standard_peripheral/system_gd32vw55x.c ****     /* APB2 = AHB */
 490:../Firmware/GD32VW55x_standard_peripheral/system_gd32vw55x.c ****     RCU_CFG0 |= RCU_APB2_CKAHB_DIV1;
 491:../Firmware/GD32VW55x_standard_peripheral/system_gd32vw55x.c ****     /* APB1 = AHB/2 */
 492:../Firmware/GD32VW55x_standard_peripheral/system_gd32vw55x.c ****     RCU_CFG0 |= RCU_APB1_CKAHB_DIV2;
 493:../Firmware/GD32VW55x_standard_peripheral/system_gd32vw55x.c **** 
 494:../Firmware/GD32VW55x_standard_peripheral/system_gd32vw55x.c ****     RCU_PLL |= RCU_PLLSRC_HXTAL;
 495:../Firmware/GD32VW55x_standard_peripheral/system_gd32vw55x.c **** 
 496:../Firmware/GD32VW55x_standard_peripheral/system_gd32vw55x.c ****     /* PLLDIG = 960/HXTAL */
 497:../Firmware/GD32VW55x_standard_peripheral/system_gd32vw55x.c ****     RCU_PLLDIGCFG1 = ((960 << 21) / (HXTAL_VALUE/1000000)) & 0x7FFFFFFF;
 498:../Firmware/GD32VW55x_standard_peripheral/system_gd32vw55x.c **** 
 499:../Firmware/GD32VW55x_standard_peripheral/system_gd32vw55x.c ****     /* PLLDIG OUT = 480M */
 500:../Firmware/GD32VW55x_standard_peripheral/system_gd32vw55x.c ****     RCU_PLLDIGCFG0 |= ( RCU_PLLDIG_480M );
 501:../Firmware/GD32VW55x_standard_peripheral/system_gd32vw55x.c ****     /* SYS clock = 48M */
 502:../Firmware/GD32VW55x_standard_peripheral/system_gd32vw55x.c ****     RCU_PLLDIGCFG0 |= ( RCU_PLLDIG_SYS_DIV10 );
 503:../Firmware/GD32VW55x_standard_peripheral/system_gd32vw55x.c ****     /* enable PLL */
 504:../Firmware/GD32VW55x_standard_peripheral/system_gd32vw55x.c ****     RCU_CFG1 |= (RCU_CFG1_BGPU);
 505:../Firmware/GD32VW55x_standard_peripheral/system_gd32vw55x.c ****     RCU_CTL |= (RCU_CTL_PLLDIGEN | RCU_CTL_PLLDIGPU);
 506:../Firmware/GD32VW55x_standard_peripheral/system_gd32vw55x.c ****     /* wait until PLL is stable */
 507:../Firmware/GD32VW55x_standard_peripheral/system_gd32vw55x.c ****     while(0U == (RCU_CTL & RCU_CTL_PLLDIGSTB)){
 508:../Firmware/GD32VW55x_standard_peripheral/system_gd32vw55x.c ****     }
 509:../Firmware/GD32VW55x_standard_peripheral/system_gd32vw55x.c **** 
 510:../Firmware/GD32VW55x_standard_peripheral/system_gd32vw55x.c ****     reg_temp = RCU_CFG0;
 511:../Firmware/GD32VW55x_standard_peripheral/system_gd32vw55x.c ****     /* select PLL as system clock */
 512:../Firmware/GD32VW55x_standard_peripheral/system_gd32vw55x.c ****     reg_temp &= ~RCU_CFG0_SCS;
 513:../Firmware/GD32VW55x_standard_peripheral/system_gd32vw55x.c ****     reg_temp |= RCU_CKSYSSRC_PLLDIG;
 514:../Firmware/GD32VW55x_standard_peripheral/system_gd32vw55x.c ****     RCU_CFG0 = reg_temp;
 515:../Firmware/GD32VW55x_standard_peripheral/system_gd32vw55x.c **** 
 516:../Firmware/GD32VW55x_standard_peripheral/system_gd32vw55x.c ****     /* wait until PLL is selected as system clock */
 517:../Firmware/GD32VW55x_standard_peripheral/system_gd32vw55x.c ****     while(RCU_SCSS_PLLDIG != (RCU_CFG0 & RCU_CFG0_SCSS)){
 518:../Firmware/GD32VW55x_standard_peripheral/system_gd32vw55x.c ****     }
 519:../Firmware/GD32VW55x_standard_peripheral/system_gd32vw55x.c **** }
 520:../Firmware/GD32VW55x_standard_peripheral/system_gd32vw55x.c **** #endif
 521:../Firmware/GD32VW55x_standard_peripheral/system_gd32vw55x.c **** 
 522:../Firmware/GD32VW55x_standard_peripheral/system_gd32vw55x.c **** /*!
 523:../Firmware/GD32VW55x_standard_peripheral/system_gd32vw55x.c ****     \brief      update the SystemCoreClock with current core clock retrieved from cpu registers
 524:../Firmware/GD32VW55x_standard_peripheral/system_gd32vw55x.c ****     \param[in]  none
 525:../Firmware/GD32VW55x_standard_peripheral/system_gd32vw55x.c ****     \param[out] none
 526:../Firmware/GD32VW55x_standard_peripheral/system_gd32vw55x.c ****     \retval     none
 527:../Firmware/GD32VW55x_standard_peripheral/system_gd32vw55x.c **** */
 528:../Firmware/GD32VW55x_standard_peripheral/system_gd32vw55x.c **** void SystemCoreClockUpdate (void)
 529:../Firmware/GD32VW55x_standard_peripheral/system_gd32vw55x.c **** {
 512              		.loc 1 529 1
 513              		.cfi_startproc
 514 0000 3971     		addi	sp,sp,-64
 515              		.cfi_def_cfa_offset 64
 516 0002 22DE     		sw	s0,60(sp)
 517              		.cfi_offset 8, -4
 518 0004 8000     		addi	s0,sp,64
 519              		.cfi_def_cfa 8, 0
 530:../Firmware/GD32VW55x_standard_peripheral/system_gd32vw55x.c ****     uint32_t sws;
 531:../Firmware/GD32VW55x_standard_peripheral/system_gd32vw55x.c ****     uint32_t fresel, plldigdiv, outputfre, idx, clk_exp;
 532:../Firmware/GD32VW55x_standard_peripheral/system_gd32vw55x.c **** 
 533:../Firmware/GD32VW55x_standard_peripheral/system_gd32vw55x.c ****     /* exponent of AHB, APB1 and APB2 clock divider */
 534:../Firmware/GD32VW55x_standard_peripheral/system_gd32vw55x.c ****     const uint8_t ahb_exp[16] = {0, 0, 0, 0, 0, 0, 0, 0, 1, 2, 3, 4, 6, 7, 8, 9};
 520              		.loc 1 534 19
 521 0006 97070000 		lla	a5,.LC0
 521      93870700 
 522 000e 9043     		lw	a2,0(a5)
 523 0010 D443     		lw	a3,4(a5)
 524 0012 9847     		lw	a4,8(a5)
 525 0014 DC47     		lw	a5,12(a5)
 526 0016 2324C4FC 		sw	a2,-56(s0)
 527 001a 2326D4FC 		sw	a3,-52(s0)
 528 001e 2328E4FC 		sw	a4,-48(s0)
 529 0022 232AF4FC 		sw	a5,-44(s0)
 535:../Firmware/GD32VW55x_standard_peripheral/system_gd32vw55x.c **** 
 536:../Firmware/GD32VW55x_standard_peripheral/system_gd32vw55x.c ****     sws = GET_BITS(RCU_CFG0, 2, 3);
 530              		.loc 1 536 11
 531 0026 B7470240 		li	a5,1073889280
 532 002a 93878780 		addi	a5,a5,-2040
 533 002e 9C43     		lw	a5,0(a5)
 534 0030 8983     		srli	a5,a5,2
 535              		.loc 1 536 9
 536 0032 8D8B     		andi	a5,a5,3
 537 0034 2324F4FE 		sw	a5,-24(s0)
 537:../Firmware/GD32VW55x_standard_peripheral/system_gd32vw55x.c ****     switch(sws){
 538              		.loc 1 537 5
 539 0038 032784FE 		lw	a4,-24(s0)
 540 003c 8947     		li	a5,2
 541 003e 6304F704 		beq	a4,a5,.L24
 542 0042 032784FE 		lw	a4,-24(s0)
 543 0046 8947     		li	a5,2
 544 0048 63E9E70E 		bgtu	a4,a5,.L25
 545 004c 832784FE 		lw	a5,-24(s0)
 546 0050 99C7     		beq	a5,zero,.L26
 547 0052 032784FE 		lw	a4,-24(s0)
 548 0056 8547     		li	a5,1
 549 0058 630DF700 		beq	a4,a5,.L27
 550 005c F9A8     		j	.L25
 551              	.L26:
 538:../Firmware/GD32VW55x_standard_peripheral/system_gd32vw55x.c ****     /* IRC16M is selected as CK_SYS */
 539:../Firmware/GD32VW55x_standard_peripheral/system_gd32vw55x.c ****     case 0:
 540:../Firmware/GD32VW55x_standard_peripheral/system_gd32vw55x.c ****         SystemCoreClock = IRC16M_VALUE;
 552              		.loc 1 540 25
 553 005e 97070000 		lla	a5,SystemCoreClock
 553      93870700 
 554 0066 3727F400 		li	a4,15998976
 555 006a 13070740 		addi	a4,a4,1024
 556 006e 98C3     		sw	a4,0(a5)
 541:../Firmware/GD32VW55x_standard_peripheral/system_gd32vw55x.c ****         break;
 557              		.loc 1 541 9
 558 0070 F9A8     		j	.L28
 559              	.L27:
 542:../Firmware/GD32VW55x_standard_peripheral/system_gd32vw55x.c ****     /* HXTAL is selected as CK_SYS */
 543:../Firmware/GD32VW55x_standard_peripheral/system_gd32vw55x.c ****     case 1:
 544:../Firmware/GD32VW55x_standard_peripheral/system_gd32vw55x.c ****         SystemCoreClock = HXTAL_VALUE;
 560              		.loc 1 544 25
 561 0072 97070000 		lla	a5,SystemCoreClock
 561      93870700 
 562 007a 37676202 		li	a4,40001536
 563 007e 130707A0 		addi	a4,a4,-1536
 564 0082 98C3     		sw	a4,0(a5)
 545:../Firmware/GD32VW55x_standard_peripheral/system_gd32vw55x.c ****         break;
 565              		.loc 1 545 9
 566 0084 E9A0     		j	.L28
 567              	.L24:
 546:../Firmware/GD32VW55x_standard_peripheral/system_gd32vw55x.c ****     /* PLLDIG is selected as CK_SYS */
 547:../Firmware/GD32VW55x_standard_peripheral/system_gd32vw55x.c ****     case 2:
 548:../Firmware/GD32VW55x_standard_peripheral/system_gd32vw55x.c ****         /* get the value of PLLDIGOSEL[1:0] */
 549:../Firmware/GD32VW55x_standard_peripheral/system_gd32vw55x.c ****         fresel = GET_BITS(RCU_PLLDIGCFG0, 24U, 25U);
 568              		.loc 1 549 18
 569 0086 B7470240 		li	a5,1073889280
 570 008a 93874788 		addi	a5,a5,-1916
 571 008e 9C43     		lw	a5,0(a5)
 572 0090 E183     		srli	a5,a5,24
 573              		.loc 1 549 16
 574 0092 8D8B     		andi	a5,a5,3
 575 0094 2322F4FE 		sw	a5,-28(s0)
 576 0098 032744FE 		lw	a4,-28(s0)
 577 009c 8D47     		li	a5,3
 578 009e 630BF704 		beq	a4,a5,.L29
 579 00a2 032744FE 		lw	a4,-28(s0)
 580 00a6 8D47     		li	a5,3
 581 00a8 63EDE704 		bgtu	a4,a5,.L30
 582 00ac 032744FE 		lw	a4,-28(s0)
 583 00b0 8947     		li	a5,2
 584 00b2 630CF702 		beq	a4,a5,.L31
 585 00b6 032744FE 		lw	a4,-28(s0)
 586 00ba 8947     		li	a5,2
 587 00bc 63E3E704 		bgtu	a4,a5,.L30
 588 00c0 832744FE 		lw	a5,-28(s0)
 589 00c4 99C7     		beq	a5,zero,.L32
 590 00c6 032744FE 		lw	a4,-28(s0)
 591 00ca 8547     		li	a5,1
 592 00cc 6308F700 		beq	a4,a5,.L33
 593 00d0 0DA8     		j	.L30
 594              	.L32:
 550:../Firmware/GD32VW55x_standard_peripheral/system_gd32vw55x.c ****         switch(fresel){
 551:../Firmware/GD32VW55x_standard_peripheral/system_gd32vw55x.c ****         case 0:
 552:../Firmware/GD32VW55x_standard_peripheral/system_gd32vw55x.c ****             outputfre = 192000000;
 595              		.loc 1 552 23
 596 00d2 B7B7710B 		li	a5,192000000
 597 00d6 2326F4FE 		sw	a5,-20(s0)
 553:../Firmware/GD32VW55x_standard_peripheral/system_gd32vw55x.c ****             break;
 598              		.loc 1 553 13
 599 00da 0DA8     		j	.L34
 600              	.L33:
 554:../Firmware/GD32VW55x_standard_peripheral/system_gd32vw55x.c ****         case 1:
 555:../Firmware/GD32VW55x_standard_peripheral/system_gd32vw55x.c ****             outputfre = 240000000;
 601              		.loc 1 555 23
 602 00dc B7274E0E 		li	a5,240001024
 603 00e0 938707C0 		addi	a5,a5,-1024
 604 00e4 2326F4FE 		sw	a5,-20(s0)
 556:../Firmware/GD32VW55x_standard_peripheral/system_gd32vw55x.c ****             break;
 605              		.loc 1 556 13
 606 00e8 15A0     		j	.L34
 607              	.L31:
 557:../Firmware/GD32VW55x_standard_peripheral/system_gd32vw55x.c ****         case 2:
 558:../Firmware/GD32VW55x_standard_peripheral/system_gd32vw55x.c ****             outputfre = 320000000;
 608              		.loc 1 558 23
 609 00ea B7D71213 		li	a5,320000000
 610 00ee 2326F4FE 		sw	a5,-20(s0)
 559:../Firmware/GD32VW55x_standard_peripheral/system_gd32vw55x.c ****             break;
 611              		.loc 1 559 13
 612 00f2 29A8     		j	.L34
 613              	.L29:
 560:../Firmware/GD32VW55x_standard_peripheral/system_gd32vw55x.c ****         case 3:
 561:../Firmware/GD32VW55x_standard_peripheral/system_gd32vw55x.c ****             outputfre = 480000000;
 614              		.loc 1 561 23
 615 00f4 B7479C1C 		li	a5,480002048
 616 00f8 93870780 		addi	a5,a5,-2048
 617 00fc 2326F4FE 		sw	a5,-20(s0)
 562:../Firmware/GD32VW55x_standard_peripheral/system_gd32vw55x.c ****             break;
 618              		.loc 1 562 13
 619 0100 31A0     		j	.L34
 620              	.L30:
 563:../Firmware/GD32VW55x_standard_peripheral/system_gd32vw55x.c ****         default:
 564:../Firmware/GD32VW55x_standard_peripheral/system_gd32vw55x.c ****             outputfre = 192000000;
 621              		.loc 1 564 23
 622 0102 B7B7710B 		li	a5,192000000
 623 0106 2326F4FE 		sw	a5,-20(s0)
 565:../Firmware/GD32VW55x_standard_peripheral/system_gd32vw55x.c ****             break;
 624              		.loc 1 565 13
 625 010a 0100     		nop
 626              	.L34:
 566:../Firmware/GD32VW55x_standard_peripheral/system_gd32vw55x.c ****         }
 567:../Firmware/GD32VW55x_standard_peripheral/system_gd32vw55x.c ****         plldigdiv = (GET_BITS(RCU_PLLDIGCFG0, 26U, 31U) + 1U);
 627              		.loc 1 567 22
 628 010c B7470240 		li	a5,1073889280
 629 0110 93874788 		addi	a5,a5,-1916
 630 0114 9C43     		lw	a5,0(a5)
 631 0116 E983     		srli	a5,a5,26
 632 0118 93F7F703 		andi	a5,a5,63
 633              		.loc 1 567 19
 634 011c 8507     		addi	a5,a5,1
 635 011e 2320F4FE 		sw	a5,-32(s0)
 568:../Firmware/GD32VW55x_standard_peripheral/system_gd32vw55x.c ****         SystemCoreClock = outputfre/plldigdiv;
 636              		.loc 1 568 36
 637 0122 0327C4FE 		lw	a4,-20(s0)
 638 0126 832704FE 		lw	a5,-32(s0)
 639 012a 3357F702 		divu	a4,a4,a5
 640              		.loc 1 568 25
 641 012e 97070000 		lla	a5,SystemCoreClock
 641      93870700 
 642 0136 98C3     		sw	a4,0(a5)
 569:../Firmware/GD32VW55x_standard_peripheral/system_gd32vw55x.c ****         break;
 643              		.loc 1 569 9
 644 0138 19A8     		j	.L28
 645              	.L25:
 570:../Firmware/GD32VW55x_standard_peripheral/system_gd32vw55x.c ****     /* IRC16M is selected as CK_SYS */
 571:../Firmware/GD32VW55x_standard_peripheral/system_gd32vw55x.c ****     default:
 572:../Firmware/GD32VW55x_standard_peripheral/system_gd32vw55x.c ****         SystemCoreClock = IRC16M_VALUE;
 646              		.loc 1 572 25
 647 013a 97070000 		lla	a5,SystemCoreClock
 647      93870700 
 648 0142 3727F400 		li	a4,15998976
 649 0146 13070740 		addi	a4,a4,1024
 650 014a 98C3     		sw	a4,0(a5)
 573:../Firmware/GD32VW55x_standard_peripheral/system_gd32vw55x.c ****         break;
 651              		.loc 1 573 9
 652 014c 0100     		nop
 653              	.L28:
 574:../Firmware/GD32VW55x_standard_peripheral/system_gd32vw55x.c ****     }
 575:../Firmware/GD32VW55x_standard_peripheral/system_gd32vw55x.c ****     /* calculate AHB clock frequency */
 576:../Firmware/GD32VW55x_standard_peripheral/system_gd32vw55x.c ****     idx = GET_BITS(RCU_CFG0, 4, 7);
 654              		.loc 1 576 11
 655 014e B7470240 		li	a5,1073889280
 656 0152 93878780 		addi	a5,a5,-2040
 657 0156 9C43     		lw	a5,0(a5)
 658 0158 9183     		srli	a5,a5,4
 659              		.loc 1 576 9
 660 015a BD8B     		andi	a5,a5,15
 661 015c 232EF4FC 		sw	a5,-36(s0)
 577:../Firmware/GD32VW55x_standard_peripheral/system_gd32vw55x.c ****     clk_exp = ahb_exp[idx];
 662              		.loc 1 577 22
 663 0160 8327C4FD 		lw	a5,-36(s0)
 664 0164 130704FF 		addi	a4,s0,-16
 665 0168 BA97     		add	a5,a4,a5
 666 016a 83C787FD 		lbu	a5,-40(a5)
 667              		.loc 1 577 13
 668 016e 232CF4FC 		sw	a5,-40(s0)
 578:../Firmware/GD32VW55x_standard_peripheral/system_gd32vw55x.c ****     SystemCoreClock = SystemCoreClock >> clk_exp;
 669              		.loc 1 578 39
 670 0172 97070000 		lla	a5,SystemCoreClock
 670      93870700 
 671 017a 9843     		lw	a4,0(a5)
 672 017c 832784FD 		lw	a5,-40(s0)
 673 0180 3357F700 		srl	a4,a4,a5
 674              		.loc 1 578 21
 675 0184 97070000 		lla	a5,SystemCoreClock
 675      93870700 
 676 018c 98C3     		sw	a4,0(a5)
 579:../Firmware/GD32VW55x_standard_peripheral/system_gd32vw55x.c **** }
 677              		.loc 1 579 1
 678 018e 0100     		nop
 679 0190 7254     		lw	s0,60(sp)
 680              		.cfi_restore 8
 681              		.cfi_def_cfa 2, 64
 682 0192 2161     		addi	sp,sp,64
 683              		.cfi_def_cfa_offset 0
 684 0194 8280     		jr	ra
 685              		.cfi_endproc
 686              	.LFE351:
 688              		.section	.text.gd32vw55x_firmware_version_get,"ax",@progbits
 689              		.align	1
 690              		.globl	gd32vw55x_firmware_version_get
 692              	gd32vw55x_firmware_version_get:
 693              	.LFB352:
 580:../Firmware/GD32VW55x_standard_peripheral/system_gd32vw55x.c **** 
 581:../Firmware/GD32VW55x_standard_peripheral/system_gd32vw55x.c **** 
 582:../Firmware/GD32VW55x_standard_peripheral/system_gd32vw55x.c **** #ifdef __FIRMWARE_VERSION_DEFINE
 583:../Firmware/GD32VW55x_standard_peripheral/system_gd32vw55x.c **** /*!
 584:../Firmware/GD32VW55x_standard_peripheral/system_gd32vw55x.c ****     \brief      get firmware version
 585:../Firmware/GD32VW55x_standard_peripheral/system_gd32vw55x.c ****     \param[in]  none
 586:../Firmware/GD32VW55x_standard_peripheral/system_gd32vw55x.c ****     \param[out] none
 587:../Firmware/GD32VW55x_standard_peripheral/system_gd32vw55x.c ****     \retval     firmware version
 588:../Firmware/GD32VW55x_standard_peripheral/system_gd32vw55x.c **** */
 589:../Firmware/GD32VW55x_standard_peripheral/system_gd32vw55x.c **** uint32_t gd32vw55x_firmware_version_get(void)
 590:../Firmware/GD32VW55x_standard_peripheral/system_gd32vw55x.c **** {
 694              		.loc 1 590 1
 695              		.cfi_startproc
 696 0000 4111     		addi	sp,sp,-16
 697              		.cfi_def_cfa_offset 16
 698 0002 22C6     		sw	s0,12(sp)
 699              		.cfi_offset 8, -4
 700 0004 0008     		addi	s0,sp,16
 701              		.cfi_def_cfa 8, 0
 591:../Firmware/GD32VW55x_standard_peripheral/system_gd32vw55x.c ****     return __GD32VW55X_STDPERIPH_VERSION;
 702              		.loc 1 591 12
 703 0006 B7070401 		li	a5,17039360
 592:../Firmware/GD32VW55x_standard_peripheral/system_gd32vw55x.c **** }
 704              		.loc 1 592 1
 705 000a 3E85     		mv	a0,a5
 706 000c 3244     		lw	s0,12(sp)
 707              		.cfi_restore 8
 708              		.cfi_def_cfa 2, 16
 709 000e 4101     		addi	sp,sp,16
 710              		.cfi_def_cfa_offset 0
 711 0010 8280     		jr	ra
 712              		.cfi_endproc
 713              	.LFE352:
 715              		.text
 716              	.Letext0:
 717              		.file 2 "e:\\gd32\\gd32embeddedbuilder_v1.5.2.30854\\tools\\nuclei_riscv_newlibc_prebuilt_win32_20
 718              		.file 3 "e:\\gd32\\gd32embeddedbuilder_v1.5.2.30854\\tools\\nuclei_riscv_newlibc_prebuilt_win32_20
 719              		.file 4 "../Firmware/GD32VW55x_standard_peripheral/system_gd32vw55x.h"
DEFINED SYMBOLS
                            *ABS*:0000000000000000 system_gd32vw55x.c
C:\Users\CYMR90~1\AppData\Local\Temp\ccScBURM.s:14     .sdata.SystemCoreClock:0000000000000000 SystemCoreClock
C:\Users\CYMR90~1\AppData\Local\Temp\ccScBURM.s:19     .text._soft_delay_:0000000000000000 _soft_delay_
C:\Users\CYMR90~1\AppData\Local\Temp\ccScBURM.s:23     .text._soft_delay_:0000000000000000 .L0 
C:\Users\CYMR90~1\AppData\Local\Temp\ccScBURM.s:24     .text._soft_delay_:0000000000000000 .L0 
C:\Users\CYMR90~1\AppData\Local\Temp\ccScBURM.s:25     .text._soft_delay_:0000000000000002 .L0 
C:\Users\CYMR90~1\AppData\Local\Temp\ccScBURM.s:27     .text._soft_delay_:0000000000000004 .L0 
C:\Users\CYMR90~1\AppData\Local\Temp\ccScBURM.s:29     .text._soft_delay_:0000000000000006 .L0 
C:\Users\CYMR90~1\AppData\Local\Temp\ccScBURM.s:32     .text._soft_delay_:000000000000000a .L0 
C:\Users\CYMR90~1\AppData\Local\Temp\ccScBURM.s:34     .text._soft_delay_:000000000000000e .L0 
C:\Users\CYMR90~1\AppData\Local\Temp\ccScBURM.s:37     .text._soft_delay_:0000000000000010 .L0 
C:\Users\CYMR90~1\AppData\Local\Temp\ccScBURM.s:42     .text._soft_delay_:000000000000001a .L0 
C:\Users\CYMR90~1\AppData\Local\Temp\ccScBURM.s:49     .text._soft_delay_:0000000000000028 .L0 
C:\Users\CYMR90~1\AppData\Local\Temp\ccScBURM.s:51     .text._soft_delay_:000000000000002c .L0 
C:\Users\CYMR90~1\AppData\Local\Temp\ccScBURM.s:53     .text._soft_delay_:0000000000000030 .L0 
C:\Users\CYMR90~1\AppData\Local\Temp\ccScBURM.s:56     .text._soft_delay_:0000000000000036 .L0 
C:\Users\CYMR90~1\AppData\Local\Temp\ccScBURM.s:57     .text._soft_delay_:0000000000000036 .L0 
C:\Users\CYMR90~1\AppData\Local\Temp\ccScBURM.s:59     .text._soft_delay_:0000000000000038 .L0 
C:\Users\CYMR90~1\AppData\Local\Temp\ccScBURM.s:61     .text._soft_delay_:000000000000003a .L0 
C:\Users\CYMR90~1\AppData\Local\Temp\ccScBURM.s:68     .text.SystemInit:0000000000000000 SystemInit
C:\Users\CYMR90~1\AppData\Local\Temp\ccScBURM.s:71     .text.SystemInit:0000000000000000 .L0 
C:\Users\CYMR90~1\AppData\Local\Temp\ccScBURM.s:72     .text.SystemInit:0000000000000000 .L0 
C:\Users\CYMR90~1\AppData\Local\Temp\ccScBURM.s:73     .text.SystemInit:0000000000000002 .L0 
C:\Users\CYMR90~1\AppData\Local\Temp\ccScBURM.s:76     .text.SystemInit:0000000000000006 .L0 
C:\Users\CYMR90~1\AppData\Local\Temp\ccScBURM.s:77     .text.SystemInit:0000000000000006 .L0 
C:\Users\CYMR90~1\AppData\Local\Temp\ccScBURM.s:79     .text.SystemInit:0000000000000008 .L0 
C:\Users\CYMR90~1\AppData\Local\Temp\ccScBURM.s:81     .text.SystemInit:0000000000000008 .L0 
C:\Users\CYMR90~1\AppData\Local\Temp\ccScBURM.s:89     .text.SystemInit:0000000000000020 .L0 
C:\Users\CYMR90~1\AppData\Local\Temp\ccScBURM.s:92     .text.SystemInit:0000000000000022 .L0 
C:\Users\CYMR90~1\AppData\Local\Temp\ccScBURM.s:96     .text.SystemInit:000000000000002c .L0 
C:\Users\CYMR90~1\AppData\Local\Temp\ccScBURM.s:98     .text.SystemInit:000000000000002e .L0 
C:\Users\CYMR90~1\AppData\Local\Temp\ccScBURM.s:100    .text.SystemInit:0000000000000030 .L0 
C:\Users\CYMR90~1\AppData\Local\Temp\ccScBURM.s:104    .text.SystemInit:000000000000003a .L0 
C:\Users\CYMR90~1\AppData\Local\Temp\ccScBURM.s:106    .text.SystemInit:000000000000003e .L0 
C:\Users\CYMR90~1\AppData\Local\Temp\ccScBURM.s:110    .text.SystemInit:0000000000000044 .L0 
C:\Users\CYMR90~1\AppData\Local\Temp\ccScBURM.s:114    .text.SystemInit:000000000000004a .L0 
C:\Users\CYMR90~1\AppData\Local\Temp\ccScBURM.s:119    .text.SystemInit:0000000000000054 .L0 
C:\Users\CYMR90~1\AppData\Local\Temp\ccScBURM.s:123    .text.SystemInit:0000000000000060 .L0 
C:\Users\CYMR90~1\AppData\Local\Temp\ccScBURM.s:141    .text.SystemInit:000000000000009a .L0 
C:\Users\CYMR90~1\AppData\Local\Temp\ccScBURM.s:146    .text.SystemInit:00000000000000a4 .L0 
C:\Users\CYMR90~1\AppData\Local\Temp\ccScBURM.s:150    .text.SystemInit:00000000000000b0 .L0 
C:\Users\CYMR90~1\AppData\Local\Temp\ccScBURM.s:168    .text.SystemInit:00000000000000ea .L0 
C:\Users\CYMR90~1\AppData\Local\Temp\ccScBURM.s:173    .text.SystemInit:00000000000000f4 .L0 
C:\Users\CYMR90~1\AppData\Local\Temp\ccScBURM.s:179    .text.SystemInit:0000000000000100 .L0 
C:\Users\CYMR90~1\AppData\Local\Temp\ccScBURM.s:187    .text.SystemInit:0000000000000116 .L0 
C:\Users\CYMR90~1\AppData\Local\Temp\ccScBURM.s:190    .text.SystemInit:0000000000000122 .L0 
C:\Users\CYMR90~1\AppData\Local\Temp\ccScBURM.s:193    .text.SystemInit:000000000000012a .L0 
C:\Users\CYMR90~1\AppData\Local\Temp\ccScBURM.s:195    .text.SystemInit:000000000000012e .L0 
C:\Users\CYMR90~1\AppData\Local\Temp\ccScBURM.s:205    .text.SystemInit:000000000000014a .L0 
C:\Users\CYMR90~1\AppData\Local\Temp\ccScBURM.s:208    .text.SystemInit:0000000000000152 .L0 
C:\Users\CYMR90~1\AppData\Local\Temp\ccScBURM.s:210    .text.SystemInit:0000000000000156 .L0 
C:\Users\CYMR90~1\AppData\Local\Temp\ccScBURM.s:213    .text.SystemInit:000000000000015e .L0 
C:\Users\CYMR90~1\AppData\Local\Temp\ccScBURM.s:215    .text.SystemInit:0000000000000162 .L0 
C:\Users\CYMR90~1\AppData\Local\Temp\ccScBURM.s:218    .text.SystemInit:000000000000016a .L0 
C:\Users\CYMR90~1\AppData\Local\Temp\ccScBURM.s:221    .text.SystemInit:0000000000000170 .L0 
C:\Users\CYMR90~1\AppData\Local\Temp\ccScBURM.s:224    .text.SystemInit:0000000000000178 .L0 
C:\Users\CYMR90~1\AppData\Local\Temp\ccScBURM.s:243    .text.system_clock_config:0000000000000000 system_clock_config
C:\Users\CYMR90~1\AppData\Local\Temp\ccScBURM.s:226    .text.SystemInit:000000000000017c .L0 
C:\Users\CYMR90~1\AppData\Local\Temp\ccScBURM.s:228    .text.SystemInit:0000000000000184 .L0 
C:\Users\CYMR90~1\AppData\Local\Temp\ccScBURM.s:230    .text.SystemInit:0000000000000188 .L0 
C:\Users\CYMR90~1\AppData\Local\Temp\ccScBURM.s:232    .text.SystemInit:000000000000018a .L0 
C:\Users\CYMR90~1\AppData\Local\Temp\ccScBURM.s:233    .text.SystemInit:000000000000018a .L0 
C:\Users\CYMR90~1\AppData\Local\Temp\ccScBURM.s:235    .text.SystemInit:000000000000018c .L0 
C:\Users\CYMR90~1\AppData\Local\Temp\ccScBURM.s:237    .text.SystemInit:000000000000018e .L0 
C:\Users\CYMR90~1\AppData\Local\Temp\ccScBURM.s:246    .text.system_clock_config:0000000000000000 .L0 
C:\Users\CYMR90~1\AppData\Local\Temp\ccScBURM.s:247    .text.system_clock_config:0000000000000000 .L0 
C:\Users\CYMR90~1\AppData\Local\Temp\ccScBURM.s:248    .text.system_clock_config:0000000000000002 .L0 
C:\Users\CYMR90~1\AppData\Local\Temp\ccScBURM.s:251    .text.system_clock_config:0000000000000006 .L0 
C:\Users\CYMR90~1\AppData\Local\Temp\ccScBURM.s:252    .text.system_clock_config:0000000000000006 .L0 
C:\Users\CYMR90~1\AppData\Local\Temp\ccScBURM.s:254    .text.system_clock_config:0000000000000008 .L0 
C:\Users\CYMR90~1\AppData\Local\Temp\ccScBURM.s:273    .text.system_clock_160m_hxtal:0000000000000000 system_clock_160m_hxtal
C:\Users\CYMR90~1\AppData\Local\Temp\ccScBURM.s:256    .text.system_clock_config:0000000000000008 .L0 
C:\Users\CYMR90~1\AppData\Local\Temp\ccScBURM.s:258    .text.system_clock_config:0000000000000010 .L0 
C:\Users\CYMR90~1\AppData\Local\Temp\ccScBURM.s:260    .text.system_clock_config:0000000000000014 .L0 
C:\Users\CYMR90~1\AppData\Local\Temp\ccScBURM.s:262    .text.system_clock_config:0000000000000016 .L0 
C:\Users\CYMR90~1\AppData\Local\Temp\ccScBURM.s:263    .text.system_clock_config:0000000000000016 .L0 
C:\Users\CYMR90~1\AppData\Local\Temp\ccScBURM.s:265    .text.system_clock_config:0000000000000018 .L0 
C:\Users\CYMR90~1\AppData\Local\Temp\ccScBURM.s:267    .text.system_clock_config:000000000000001a .L0 
C:\Users\CYMR90~1\AppData\Local\Temp\ccScBURM.s:276    .text.system_clock_160m_hxtal:0000000000000000 .L0 
C:\Users\CYMR90~1\AppData\Local\Temp\ccScBURM.s:277    .text.system_clock_160m_hxtal:0000000000000000 .L0 
C:\Users\CYMR90~1\AppData\Local\Temp\ccScBURM.s:278    .text.system_clock_160m_hxtal:0000000000000002 .L0 
C:\Users\CYMR90~1\AppData\Local\Temp\ccScBURM.s:280    .text.system_clock_160m_hxtal:0000000000000004 .L0 
C:\Users\CYMR90~1\AppData\Local\Temp\ccScBURM.s:282    .text.system_clock_160m_hxtal:0000000000000006 .L0 
C:\Users\CYMR90~1\AppData\Local\Temp\ccScBURM.s:284    .text.system_clock_160m_hxtal:0000000000000006 .L0 
C:\Users\CYMR90~1\AppData\Local\Temp\ccScBURM.s:286    .text.system_clock_160m_hxtal:000000000000000a .L0 
C:\Users\CYMR90~1\AppData\Local\Temp\ccScBURM.s:288    .text.system_clock_160m_hxtal:000000000000000e .L0 
C:\Users\CYMR90~1\AppData\Local\Temp\ccScBURM.s:297    .text.system_clock_160m_hxtal:0000000000000028 .L0 
C:\Users\CYMR90~1\AppData\Local\Temp\ccScBURM.s:307    .text.system_clock_160m_hxtal:0000000000000040 .L0 
C:\Users\CYMR90~1\AppData\Local\Temp\ccScBURM.s:311    .text.system_clock_160m_hxtal:0000000000000046 .L0 
C:\Users\CYMR90~1\AppData\Local\Temp\ccScBURM.s:316    .text.system_clock_160m_hxtal:0000000000000050 .L0 
C:\Users\CYMR90~1\AppData\Local\Temp\ccScBURM.s:321    .text.system_clock_160m_hxtal:000000000000005a .L0 
C:\Users\CYMR90~1\AppData\Local\Temp\ccScBURM.s:331    .text.system_clock_160m_hxtal:0000000000000074 .L0 
C:\Users\CYMR90~1\AppData\Local\Temp\ccScBURM.s:335    .text.system_clock_160m_hxtal:000000000000007e .L0 
C:\Users\CYMR90~1\AppData\Local\Temp\ccScBURM.s:339    .text.system_clock_160m_hxtal:0000000000000088 .L0 
C:\Users\CYMR90~1\AppData\Local\Temp\ccScBURM.s:343    .text.system_clock_160m_hxtal:0000000000000092 .L0 
C:\Users\CYMR90~1\AppData\Local\Temp\ccScBURM.s:346    .text.system_clock_160m_hxtal:0000000000000098 .L0 
C:\Users\CYMR90~1\AppData\Local\Temp\ccScBURM.s:352    .text.system_clock_160m_hxtal:00000000000000a4 .L0 
C:\Users\CYMR90~1\AppData\Local\Temp\ccScBURM.s:356    .text.system_clock_160m_hxtal:00000000000000ae .L0 
C:\Users\CYMR90~1\AppData\Local\Temp\ccScBURM.s:359    .text.system_clock_160m_hxtal:00000000000000b4 .L0 
C:\Users\CYMR90~1\AppData\Local\Temp\ccScBURM.s:362    .text.system_clock_160m_hxtal:00000000000000b6 .L0 
C:\Users\CYMR90~1\AppData\Local\Temp\ccScBURM.s:365    .text.system_clock_160m_hxtal:00000000000000b8 .L0 
C:\Users\CYMR90~1\AppData\Local\Temp\ccScBURM.s:372    .text.system_clock_160m_hxtal:00000000000000cc .L0 
C:\Users\CYMR90~1\AppData\Local\Temp\ccScBURM.s:379    .text.system_clock_160m_hxtal:00000000000000e0 .L0 
C:\Users\CYMR90~1\AppData\Local\Temp\ccScBURM.s:388    .text.system_clock_160m_hxtal:00000000000000f8 .L0 
C:\Users\CYMR90~1\AppData\Local\Temp\ccScBURM.s:397    .text.system_clock_160m_hxtal:0000000000000110 .L0 
C:\Users\CYMR90~1\AppData\Local\Temp\ccScBURM.s:400    .text.system_clock_160m_hxtal:0000000000000118 .L0 
C:\Users\CYMR90~1\AppData\Local\Temp\ccScBURM.s:403    .text.system_clock_160m_hxtal:000000000000011e .L0 
C:\Users\CYMR90~1\AppData\Local\Temp\ccScBURM.s:412    .text.system_clock_160m_hxtal:0000000000000138 .L0 
C:\Users\CYMR90~1\AppData\Local\Temp\ccScBURM.s:421    .text.system_clock_160m_hxtal:0000000000000152 .L0 
C:\Users\CYMR90~1\AppData\Local\Temp\ccScBURM.s:430    .text.system_clock_160m_hxtal:000000000000016c .L0 
C:\Users\CYMR90~1\AppData\Local\Temp\ccScBURM.s:439    .text.system_clock_160m_hxtal:0000000000000186 .L0 
C:\Users\CYMR90~1\AppData\Local\Temp\ccScBURM.s:442    .text.system_clock_160m_hxtal:0000000000000188 .L0 
C:\Users\CYMR90~1\AppData\Local\Temp\ccScBURM.s:446    .text.system_clock_160m_hxtal:0000000000000192 .L0 
C:\Users\CYMR90~1\AppData\Local\Temp\ccScBURM.s:449    .text.system_clock_160m_hxtal:0000000000000198 .L0 
C:\Users\CYMR90~1\AppData\Local\Temp\ccScBURM.s:451    .text.system_clock_160m_hxtal:000000000000019a .L0 
C:\Users\CYMR90~1\AppData\Local\Temp\ccScBURM.s:455    .text.system_clock_160m_hxtal:00000000000001a4 .L0 
C:\Users\CYMR90~1\AppData\Local\Temp\ccScBURM.s:457    .text.system_clock_160m_hxtal:00000000000001a8 .L0 
C:\Users\CYMR90~1\AppData\Local\Temp\ccScBURM.s:461    .text.system_clock_160m_hxtal:00000000000001b2 .L0 
C:\Users\CYMR90~1\AppData\Local\Temp\ccScBURM.s:465    .text.system_clock_160m_hxtal:00000000000001be .L0 
C:\Users\CYMR90~1\AppData\Local\Temp\ccScBURM.s:468    .text.system_clock_160m_hxtal:00000000000001c6 .L0 
C:\Users\CYMR90~1\AppData\Local\Temp\ccScBURM.s:471    .text.system_clock_160m_hxtal:00000000000001cc .L0 
C:\Users\CYMR90~1\AppData\Local\Temp\ccScBURM.s:474    .text.system_clock_160m_hxtal:00000000000001ce .L0 
C:\Users\CYMR90~1\AppData\Local\Temp\ccScBURM.s:478    .text.system_clock_160m_hxtal:00000000000001d8 .L0 
C:\Users\CYMR90~1\AppData\Local\Temp\ccScBURM.s:480    .text.system_clock_160m_hxtal:00000000000001dc .L0 
C:\Users\CYMR90~1\AppData\Local\Temp\ccScBURM.s:483    .text.system_clock_160m_hxtal:00000000000001e2 .L0 
C:\Users\CYMR90~1\AppData\Local\Temp\ccScBURM.s:486    .text.system_clock_160m_hxtal:00000000000001e8 .L0 
C:\Users\CYMR90~1\AppData\Local\Temp\ccScBURM.s:487    .text.system_clock_160m_hxtal:00000000000001e8 .L0 
C:\Users\CYMR90~1\AppData\Local\Temp\ccScBURM.s:489    .text.system_clock_160m_hxtal:00000000000001ea .L0 
C:\Users\CYMR90~1\AppData\Local\Temp\ccScBURM.s:491    .text.system_clock_160m_hxtal:00000000000001ec .L0 
C:\Users\CYMR90~1\AppData\Local\Temp\ccScBURM.s:510    .text.SystemCoreClockUpdate:0000000000000000 SystemCoreClockUpdate
C:\Users\CYMR90~1\AppData\Local\Temp\ccScBURM.s:513    .text.SystemCoreClockUpdate:0000000000000000 .L0 
C:\Users\CYMR90~1\AppData\Local\Temp\ccScBURM.s:514    .text.SystemCoreClockUpdate:0000000000000000 .L0 
C:\Users\CYMR90~1\AppData\Local\Temp\ccScBURM.s:515    .text.SystemCoreClockUpdate:0000000000000002 .L0 
C:\Users\CYMR90~1\AppData\Local\Temp\ccScBURM.s:517    .text.SystemCoreClockUpdate:0000000000000004 .L0 
C:\Users\CYMR90~1\AppData\Local\Temp\ccScBURM.s:519    .text.SystemCoreClockUpdate:0000000000000006 .L0 
C:\Users\CYMR90~1\AppData\Local\Temp\ccScBURM.s:521    .text.SystemCoreClockUpdate:0000000000000006 .L0 
C:\Users\CYMR90~1\AppData\Local\Temp\ccScBURM.s:531    .text.SystemCoreClockUpdate:0000000000000026 .L0 
C:\Users\CYMR90~1\AppData\Local\Temp\ccScBURM.s:536    .text.SystemCoreClockUpdate:0000000000000032 .L0 
C:\Users\CYMR90~1\AppData\Local\Temp\ccScBURM.s:539    .text.SystemCoreClockUpdate:0000000000000038 .L0 
C:\Users\CYMR90~1\AppData\Local\Temp\ccScBURM.s:553    .text.SystemCoreClockUpdate:000000000000005e .L0 
C:\Users\CYMR90~1\AppData\Local\Temp\ccScBURM.s:558    .text.SystemCoreClockUpdate:0000000000000070 .L0 
C:\Users\CYMR90~1\AppData\Local\Temp\ccScBURM.s:561    .text.SystemCoreClockUpdate:0000000000000072 .L0 
C:\Users\CYMR90~1\AppData\Local\Temp\ccScBURM.s:566    .text.SystemCoreClockUpdate:0000000000000084 .L0 
C:\Users\CYMR90~1\AppData\Local\Temp\ccScBURM.s:569    .text.SystemCoreClockUpdate:0000000000000086 .L0 
C:\Users\CYMR90~1\AppData\Local\Temp\ccScBURM.s:574    .text.SystemCoreClockUpdate:0000000000000092 .L0 
C:\Users\CYMR90~1\AppData\Local\Temp\ccScBURM.s:596    .text.SystemCoreClockUpdate:00000000000000d2 .L0 
C:\Users\CYMR90~1\AppData\Local\Temp\ccScBURM.s:599    .text.SystemCoreClockUpdate:00000000000000da .L0 
C:\Users\CYMR90~1\AppData\Local\Temp\ccScBURM.s:602    .text.SystemCoreClockUpdate:00000000000000dc .L0 
C:\Users\CYMR90~1\AppData\Local\Temp\ccScBURM.s:606    .text.SystemCoreClockUpdate:00000000000000e8 .L0 
C:\Users\CYMR90~1\AppData\Local\Temp\ccScBURM.s:609    .text.SystemCoreClockUpdate:00000000000000ea .L0 
C:\Users\CYMR90~1\AppData\Local\Temp\ccScBURM.s:612    .text.SystemCoreClockUpdate:00000000000000f2 .L0 
C:\Users\CYMR90~1\AppData\Local\Temp\ccScBURM.s:615    .text.SystemCoreClockUpdate:00000000000000f4 .L0 
C:\Users\CYMR90~1\AppData\Local\Temp\ccScBURM.s:619    .text.SystemCoreClockUpdate:0000000000000100 .L0 
C:\Users\CYMR90~1\AppData\Local\Temp\ccScBURM.s:622    .text.SystemCoreClockUpdate:0000000000000102 .L0 
C:\Users\CYMR90~1\AppData\Local\Temp\ccScBURM.s:625    .text.SystemCoreClockUpdate:000000000000010a .L0 
C:\Users\CYMR90~1\AppData\Local\Temp\ccScBURM.s:628    .text.SystemCoreClockUpdate:000000000000010c .L0 
C:\Users\CYMR90~1\AppData\Local\Temp\ccScBURM.s:634    .text.SystemCoreClockUpdate:000000000000011c .L0 
C:\Users\CYMR90~1\AppData\Local\Temp\ccScBURM.s:637    .text.SystemCoreClockUpdate:0000000000000122 .L0 
C:\Users\CYMR90~1\AppData\Local\Temp\ccScBURM.s:641    .text.SystemCoreClockUpdate:000000000000012e .L0 
C:\Users\CYMR90~1\AppData\Local\Temp\ccScBURM.s:644    .text.SystemCoreClockUpdate:0000000000000138 .L0 
C:\Users\CYMR90~1\AppData\Local\Temp\ccScBURM.s:647    .text.SystemCoreClockUpdate:000000000000013a .L0 
C:\Users\CYMR90~1\AppData\Local\Temp\ccScBURM.s:652    .text.SystemCoreClockUpdate:000000000000014c .L0 
C:\Users\CYMR90~1\AppData\Local\Temp\ccScBURM.s:655    .text.SystemCoreClockUpdate:000000000000014e .L0 
C:\Users\CYMR90~1\AppData\Local\Temp\ccScBURM.s:660    .text.SystemCoreClockUpdate:000000000000015a .L0 
C:\Users\CYMR90~1\AppData\Local\Temp\ccScBURM.s:663    .text.SystemCoreClockUpdate:0000000000000160 .L0 
C:\Users\CYMR90~1\AppData\Local\Temp\ccScBURM.s:668    .text.SystemCoreClockUpdate:000000000000016e .L0 
C:\Users\CYMR90~1\AppData\Local\Temp\ccScBURM.s:670    .text.SystemCoreClockUpdate:0000000000000172 .L0 
C:\Users\CYMR90~1\AppData\Local\Temp\ccScBURM.s:675    .text.SystemCoreClockUpdate:0000000000000184 .L0 
C:\Users\CYMR90~1\AppData\Local\Temp\ccScBURM.s:678    .text.SystemCoreClockUpdate:000000000000018e .L0 
C:\Users\CYMR90~1\AppData\Local\Temp\ccScBURM.s:680    .text.SystemCoreClockUpdate:0000000000000192 .L0 
C:\Users\CYMR90~1\AppData\Local\Temp\ccScBURM.s:681    .text.SystemCoreClockUpdate:0000000000000192 .L0 
C:\Users\CYMR90~1\AppData\Local\Temp\ccScBURM.s:683    .text.SystemCoreClockUpdate:0000000000000194 .L0 
C:\Users\CYMR90~1\AppData\Local\Temp\ccScBURM.s:685    .text.SystemCoreClockUpdate:0000000000000196 .L0 
C:\Users\CYMR90~1\AppData\Local\Temp\ccScBURM.s:692    .text.gd32vw55x_firmware_version_get:0000000000000000 gd32vw55x_firmware_version_get
C:\Users\CYMR90~1\AppData\Local\Temp\ccScBURM.s:695    .text.gd32vw55x_firmware_version_get:0000000000000000 .L0 
C:\Users\CYMR90~1\AppData\Local\Temp\ccScBURM.s:696    .text.gd32vw55x_firmware_version_get:0000000000000000 .L0 
C:\Users\CYMR90~1\AppData\Local\Temp\ccScBURM.s:697    .text.gd32vw55x_firmware_version_get:0000000000000002 .L0 
C:\Users\CYMR90~1\AppData\Local\Temp\ccScBURM.s:699    .text.gd32vw55x_firmware_version_get:0000000000000004 .L0 
C:\Users\CYMR90~1\AppData\Local\Temp\ccScBURM.s:701    .text.gd32vw55x_firmware_version_get:0000000000000006 .L0 
C:\Users\CYMR90~1\AppData\Local\Temp\ccScBURM.s:703    .text.gd32vw55x_firmware_version_get:0000000000000006 .L0 
C:\Users\CYMR90~1\AppData\Local\Temp\ccScBURM.s:705    .text.gd32vw55x_firmware_version_get:000000000000000a .L0 
C:\Users\CYMR90~1\AppData\Local\Temp\ccScBURM.s:707    .text.gd32vw55x_firmware_version_get:000000000000000e .L0 
C:\Users\CYMR90~1\AppData\Local\Temp\ccScBURM.s:708    .text.gd32vw55x_firmware_version_get:000000000000000e .L0 
C:\Users\CYMR90~1\AppData\Local\Temp\ccScBURM.s:710    .text.gd32vw55x_firmware_version_get:0000000000000010 .L0 
C:\Users\CYMR90~1\AppData\Local\Temp\ccScBURM.s:712    .text.gd32vw55x_firmware_version_get:0000000000000012 .L0 
C:\Users\CYMR90~1\AppData\Local\Temp\ccScBURM.s:64     .text._soft_delay_:000000000000003a .L0 
C:\Users\CYMR90~1\AppData\Local\Temp\ccScBURM.s:240    .text.SystemInit:000000000000018e .L0 
C:\Users\CYMR90~1\AppData\Local\Temp\ccScBURM.s:270    .text.system_clock_config:000000000000001a .L0 
C:\Users\CYMR90~1\AppData\Local\Temp\ccScBURM.s:494    .text.system_clock_160m_hxtal:00000000000001ec .L0 
C:\Users\CYMR90~1\AppData\Local\Temp\ccScBURM.s:688    .text.SystemCoreClockUpdate:0000000000000196 .L0 
C:\Users\CYMR90~1\AppData\Local\Temp\ccScBURM.s:715    .text.gd32vw55x_firmware_version_get:0000000000000012 .L0 
                     .debug_frame:0000000000000000 .L0 
C:\Users\CYMR90~1\AppData\Local\Temp\ccScBURM.s:40     .text._soft_delay_:000000000000001a .L2
C:\Users\CYMR90~1\AppData\Local\Temp\ccScBURM.s:35     .text._soft_delay_:0000000000000010 .L3
C:\Users\CYMR90~1\AppData\Local\Temp\ccScBURM.s:90     .text.SystemInit:0000000000000022 .L5
C:\Users\CYMR90~1\AppData\Local\Temp\ccScBURM.s:176    .text.SystemInit:0000000000000100 .L6
C:\Users\CYMR90~1\AppData\Local\Temp\ccScBURM.s:117    .text.SystemInit:0000000000000054 .L7
C:\Users\CYMR90~1\AppData\Local\Temp\ccScBURM.s:112    .text.SystemInit:000000000000004a .L8
C:\Users\CYMR90~1\AppData\Local\Temp\ccScBURM.s:144    .text.SystemInit:00000000000000a4 .L9
C:\Users\CYMR90~1\AppData\Local\Temp\ccScBURM.s:139    .text.SystemInit:000000000000009a .L10
C:\Users\CYMR90~1\AppData\Local\Temp\ccScBURM.s:171    .text.SystemInit:00000000000000f4 .L11
C:\Users\CYMR90~1\AppData\Local\Temp\ccScBURM.s:166    .text.SystemInit:00000000000000ea .L12
C:\Users\CYMR90~1\AppData\Local\Temp\ccScBURM.s:314    .text.system_clock_160m_hxtal:0000000000000050 .L15
C:\Users\CYMR90~1\AppData\Local\Temp\ccScBURM.s:309    .text.system_clock_160m_hxtal:0000000000000046 .L16
C:\Users\CYMR90~1\AppData\Local\Temp\ccScBURM.s:350    .text.system_clock_160m_hxtal:00000000000000a4 .L17
C:\Users\CYMR90~1\AppData\Local\Temp\ccScBURM.s:329    .text.system_clock_160m_hxtal:0000000000000074 .L18
C:\Users\CYMR90~1\AppData\Local\Temp\ccScBURM.s:363    .text.system_clock_160m_hxtal:00000000000000b8 .L19
C:\Users\CYMR90~1\AppData\Local\Temp\ccScBURM.s:360    .text.system_clock_160m_hxtal:00000000000000b6 .L20
C:\Users\CYMR90~1\AppData\Local\Temp\ccScBURM.s:440    .text.system_clock_160m_hxtal:0000000000000188 .L21
C:\Users\CYMR90~1\AppData\Local\Temp\ccScBURM.s:472    .text.system_clock_160m_hxtal:00000000000001ce .L22
C:\Users\CYMR90~1\AppData\Local\Temp\ccScBURM.s:496    .rodata:0000000000000000 .LC0
C:\Users\CYMR90~1\AppData\Local\Temp\ccScBURM.s:521    .text.SystemCoreClockUpdate:0000000000000006 .L0 
C:\Users\CYMR90~1\AppData\Local\Temp\ccScBURM.s:553    .text.SystemCoreClockUpdate:000000000000005e .L0 
C:\Users\CYMR90~1\AppData\Local\Temp\ccScBURM.s:561    .text.SystemCoreClockUpdate:0000000000000072 .L0 
C:\Users\CYMR90~1\AppData\Local\Temp\ccScBURM.s:641    .text.SystemCoreClockUpdate:000000000000012e .L0 
C:\Users\CYMR90~1\AppData\Local\Temp\ccScBURM.s:647    .text.SystemCoreClockUpdate:000000000000013a .L0 
C:\Users\CYMR90~1\AppData\Local\Temp\ccScBURM.s:670    .text.SystemCoreClockUpdate:0000000000000172 .L0 
C:\Users\CYMR90~1\AppData\Local\Temp\ccScBURM.s:675    .text.SystemCoreClockUpdate:0000000000000184 .L0 
C:\Users\CYMR90~1\AppData\Local\Temp\ccScBURM.s:567    .text.SystemCoreClockUpdate:0000000000000086 .L24
C:\Users\CYMR90~1\AppData\Local\Temp\ccScBURM.s:645    .text.SystemCoreClockUpdate:000000000000013a .L25
C:\Users\CYMR90~1\AppData\Local\Temp\ccScBURM.s:551    .text.SystemCoreClockUpdate:000000000000005e .L26
C:\Users\CYMR90~1\AppData\Local\Temp\ccScBURM.s:559    .text.SystemCoreClockUpdate:0000000000000072 .L27
C:\Users\CYMR90~1\AppData\Local\Temp\ccScBURM.s:653    .text.SystemCoreClockUpdate:000000000000014e .L28
C:\Users\CYMR90~1\AppData\Local\Temp\ccScBURM.s:613    .text.SystemCoreClockUpdate:00000000000000f4 .L29
C:\Users\CYMR90~1\AppData\Local\Temp\ccScBURM.s:620    .text.SystemCoreClockUpdate:0000000000000102 .L30
C:\Users\CYMR90~1\AppData\Local\Temp\ccScBURM.s:607    .text.SystemCoreClockUpdate:00000000000000ea .L31
C:\Users\CYMR90~1\AppData\Local\Temp\ccScBURM.s:594    .text.SystemCoreClockUpdate:00000000000000d2 .L32
C:\Users\CYMR90~1\AppData\Local\Temp\ccScBURM.s:600    .text.SystemCoreClockUpdate:00000000000000dc .L33
C:\Users\CYMR90~1\AppData\Local\Temp\ccScBURM.s:626    .text.SystemCoreClockUpdate:000000000000010c .L34
C:\Users\CYMR90~1\AppData\Local\Temp\ccScBURM.s:1053   .debug_abbrev:0000000000000000 .Ldebug_abbrev0
C:\Users\CYMR90~1\AppData\Local\Temp\ccScBURM.s:21822  .debug_str:000000000000ae6f .LASF5588
C:\Users\CYMR90~1\AppData\Local\Temp\ccScBURM.s:29595  .debug_str:000000000002a275 .LASF5589
C:\Users\CYMR90~1\AppData\Local\Temp\ccScBURM.s:24718  .debug_str:0000000000016911 .LASF5590
C:\Users\CYMR90~1\AppData\Local\Temp\ccScBURM.s:1431   .debug_ranges:0000000000000000 .Ldebug_ranges0
C:\Users\CYMR90~1\AppData\Local\Temp\ccScBURM.s:19098  .debug_line:0000000000000000 .Ldebug_line0
C:\Users\CYMR90~1\AppData\Local\Temp\ccScBURM.s:1447   .debug_macro:0000000000000000 .Ldebug_macro0
C:\Users\CYMR90~1\AppData\Local\Temp\ccScBURM.s:30255  .debug_str:000000000002cde4 .LASF5562
C:\Users\CYMR90~1\AppData\Local\Temp\ccScBURM.s:19116  .debug_str:0000000000000123 .LASF5563
C:\Users\CYMR90~1\AppData\Local\Temp\ccScBURM.s:20034  .debug_str:0000000000003b0d .LASF5564
C:\Users\CYMR90~1\AppData\Local\Temp\ccScBURM.s:25175  .debug_str:000000000001870f .LASF5565
C:\Users\CYMR90~1\AppData\Local\Temp\ccScBURM.s:21312  .debug_str:0000000000008e7e .LASF5568
C:\Users\CYMR90~1\AppData\Local\Temp\ccScBURM.s:24630  .debug_str:000000000001634c .LASF5566
C:\Users\CYMR90~1\AppData\Local\Temp\ccScBURM.s:26493  .debug_str:000000000001defc .LASF5567
C:\Users\CYMR90~1\AppData\Local\Temp\ccScBURM.s:22632  .debug_str:000000000000e481 .LASF5569
C:\Users\CYMR90~1\AppData\Local\Temp\ccScBURM.s:24108  .debug_str:00000000000142b2 .LASF5570
C:\Users\CYMR90~1\AppData\Local\Temp\ccScBURM.s:26901  .debug_str:000000000001f727 .LASF5571
C:\Users\CYMR90~1\AppData\Local\Temp\ccScBURM.s:25383  .debug_str:000000000001954c .LASF5572
C:\Users\CYMR90~1\AppData\Local\Temp\ccScBURM.s:19230  .debug_str:00000000000007ed .LASF5573
C:\Users\CYMR90~1\AppData\Local\Temp\ccScBURM.s:28437  .debug_str:00000000000258a9 .LASF5574
C:\Users\CYMR90~1\AppData\Local\Temp\ccScBURM.s:26923  .debug_str:000000000001f890 .LASF854
C:\Users\CYMR90~1\AppData\Local\Temp\ccScBURM.s:24398  .debug_str:00000000000154c7 .LASF5575
C:\Users\CYMR90~1\AppData\Local\Temp\ccScBURM.s:28369  .debug_str:000000000002539e .LASF5576
C:\Users\CYMR90~1\AppData\Local\Temp\ccScBURM.s:28553  .debug_str:0000000000025fea .LASF5577
C:\Users\CYMR90~1\AppData\Local\Temp\ccScBURM.s:22030  .debug_str:000000000000bc94 .LASF5591
C:\Users\CYMR90~1\AppData\Local\Temp\ccScBURM.s:19290  .debug_str:0000000000000be9 .LASF5592
C:\Users\CYMR90~1\AppData\Local\Temp\ccScBURM.s:693    .text.gd32vw55x_firmware_version_get:0000000000000000 .LFB352
C:\Users\CYMR90~1\AppData\Local\Temp\ccScBURM.s:713    .text.gd32vw55x_firmware_version_get:0000000000000012 .LFE352
C:\Users\CYMR90~1\AppData\Local\Temp\ccScBURM.s:28989  .debug_str:0000000000027bb7 .LASF5586
C:\Users\CYMR90~1\AppData\Local\Temp\ccScBURM.s:511    .text.SystemCoreClockUpdate:0000000000000000 .LFB351
C:\Users\CYMR90~1\AppData\Local\Temp\ccScBURM.s:686    .text.SystemCoreClockUpdate:0000000000000196 .LFE351
C:\Users\CYMR90~1\AppData\Local\Temp\ccScBURM.s:20158  .debug_str:000000000000433b .LASF5578
C:\Users\CYMR90~1\AppData\Local\Temp\ccScBURM.s:24328  .debug_str:00000000000150b8 .LASF5579
C:\Users\CYMR90~1\AppData\Local\Temp\ccScBURM.s:24326  .debug_str:00000000000150ae .LASF5580
C:\Users\CYMR90~1\AppData\Local\Temp\ccScBURM.s:22010  .debug_str:000000000000bb5c .LASF5581
C:\Users\CYMR90~1\AppData\Local\Temp\ccScBURM.s:27987  .debug_str:000000000002395a .LASF5582
C:\Users\CYMR90~1\AppData\Local\Temp\ccScBURM.s:22022  .debug_str:000000000000bc16 .LASF5593
C:\Users\CYMR90~1\AppData\Local\Temp\ccScBURM.s:274    .text.system_clock_160m_hxtal:0000000000000000 .LFB350
C:\Users\CYMR90~1\AppData\Local\Temp\ccScBURM.s:492    .text.system_clock_160m_hxtal:00000000000001ec .LFE350
C:\Users\CYMR90~1\AppData\Local\Temp\ccScBURM.s:29735  .debug_str:000000000002ab13 .LASF5583
C:\Users\CYMR90~1\AppData\Local\Temp\ccScBURM.s:27825  .debug_str:0000000000022f8e .LASF5584
C:\Users\CYMR90~1\AppData\Local\Temp\ccScBURM.s:22084  .debug_str:000000000000c14b .LASF5585
C:\Users\CYMR90~1\AppData\Local\Temp\ccScBURM.s:305    .text.system_clock_160m_hxtal:0000000000000040 .LBB3
C:\Users\CYMR90~1\AppData\Local\Temp\ccScBURM.s:319    .text.system_clock_160m_hxtal:000000000000005a .LBE3
C:\Users\CYMR90~1\AppData\Local\Temp\ccScBURM.s:25451  .debug_str:0000000000019a4e .LASF5594
C:\Users\CYMR90~1\AppData\Local\Temp\ccScBURM.s:244    .text.system_clock_config:0000000000000000 .LFB349
C:\Users\CYMR90~1\AppData\Local\Temp\ccScBURM.s:268    .text.system_clock_config:000000000000001a .LFE349
C:\Users\CYMR90~1\AppData\Local\Temp\ccScBURM.s:20050  .debug_str:0000000000003bde .LASF5587
C:\Users\CYMR90~1\AppData\Local\Temp\ccScBURM.s:69     .text.SystemInit:0000000000000000 .LFB348
C:\Users\CYMR90~1\AppData\Local\Temp\ccScBURM.s:238    .text.SystemInit:000000000000018e .LFE348
C:\Users\CYMR90~1\AppData\Local\Temp\ccScBURM.s:108    .text.SystemInit:0000000000000044 .LBB2
C:\Users\CYMR90~1\AppData\Local\Temp\ccScBURM.s:177    .text.SystemInit:0000000000000100 .LBE2
C:\Users\CYMR90~1\AppData\Local\Temp\ccScBURM.s:26569  .debug_str:000000000001e359 .LASF5595
C:\Users\CYMR90~1\AppData\Local\Temp\ccScBURM.s:20     .text._soft_delay_:0000000000000000 .LFB347
C:\Users\CYMR90~1\AppData\Local\Temp\ccScBURM.s:62     .text._soft_delay_:000000000000003a .LFE347
C:\Users\CYMR90~1\AppData\Local\Temp\ccScBURM.s:24686  .debug_str:00000000000166ef .LASF5596
C:\Users\CYMR90~1\AppData\Local\Temp\ccScBURM.s:721    .debug_info:0000000000000000 .Ldebug_info0
C:\Users\CYMR90~1\AppData\Local\Temp\ccScBURM.s:2080   .debug_macro:0000000000000000 .Ldebug_macro2
C:\Users\CYMR90~1\AppData\Local\Temp\ccScBURM.s:24803  .debug_str:0000000000017094 .LASF314
C:\Users\CYMR90~1\AppData\Local\Temp\ccScBURM.s:3027   .debug_macro:0000000000000000 .Ldebug_macro3
C:\Users\CYMR90~1\AppData\Local\Temp\ccScBURM.s:21262  .debug_str:0000000000008b0d .LASF368
C:\Users\CYMR90~1\AppData\Local\Temp\ccScBURM.s:20832  .debug_str:0000000000006dbe .LASF369
C:\Users\CYMR90~1\AppData\Local\Temp\ccScBURM.s:25051  .debug_str:0000000000017fc3 .LASF370
C:\Users\CYMR90~1\AppData\Local\Temp\ccScBURM.s:3191   .debug_macro:0000000000000000 .Ldebug_macro4
C:\Users\CYMR90~1\AppData\Local\Temp\ccScBURM.s:3211   .debug_macro:0000000000000000 .Ldebug_macro5
C:\Users\CYMR90~1\AppData\Local\Temp\ccScBURM.s:23718  .debug_str:0000000000012967 .LASF389
C:\Users\CYMR90~1\AppData\Local\Temp\ccScBURM.s:3255   .debug_macro:0000000000000000 .Ldebug_macro6
C:\Users\CYMR90~1\AppData\Local\Temp\ccScBURM.s:3269   .debug_macro:0000000000000000 .Ldebug_macro7
C:\Users\CYMR90~1\AppData\Local\Temp\ccScBURM.s:3337   .debug_macro:0000000000000000 .Ldebug_macro8
C:\Users\CYMR90~1\AppData\Local\Temp\ccScBURM.s:3363   .debug_macro:0000000000000000 .Ldebug_macro9
C:\Users\CYMR90~1\AppData\Local\Temp\ccScBURM.s:3392   .debug_macro:0000000000000000 .Ldebug_macro10
C:\Users\CYMR90~1\AppData\Local\Temp\ccScBURM.s:25187  .debug_str:00000000000187fc .LASF432
C:\Users\CYMR90~1\AppData\Local\Temp\ccScBURM.s:3406   .debug_macro:0000000000000000 .Ldebug_macro11
C:\Users\CYMR90~1\AppData\Local\Temp\ccScBURM.s:3450   .debug_macro:0000000000000000 .Ldebug_macro12
C:\Users\CYMR90~1\AppData\Local\Temp\ccScBURM.s:3476   .debug_macro:0000000000000000 .Ldebug_macro13
C:\Users\CYMR90~1\AppData\Local\Temp\ccScBURM.s:28713  .debug_str:00000000000269ad .LASF568
C:\Users\CYMR90~1\AppData\Local\Temp\ccScBURM.s:3847   .debug_macro:0000000000000000 .Ldebug_macro14
C:\Users\CYMR90~1\AppData\Local\Temp\ccScBURM.s:23242  .debug_str:0000000000010a16 .LASF571
C:\Users\CYMR90~1\AppData\Local\Temp\ccScBURM.s:28063  .debug_str:0000000000023dbe .LASF572
C:\Users\CYMR90~1\AppData\Local\Temp\ccScBURM.s:3858   .debug_macro:0000000000000000 .Ldebug_macro15
C:\Users\CYMR90~1\AppData\Local\Temp\ccScBURM.s:3872   .debug_macro:0000000000000000 .Ldebug_macro16
C:\Users\CYMR90~1\AppData\Local\Temp\ccScBURM.s:19790  .debug_str:0000000000002ab5 .LASF577
C:\Users\CYMR90~1\AppData\Local\Temp\ccScBURM.s:3904   .debug_macro:0000000000000000 .Ldebug_macro17
C:\Users\CYMR90~1\AppData\Local\Temp\ccScBURM.s:3930   .debug_macro:0000000000000000 .Ldebug_macro18
C:\Users\CYMR90~1\AppData\Local\Temp\ccScBURM.s:3941   .debug_macro:0000000000000000 .Ldebug_macro19
C:\Users\CYMR90~1\AppData\Local\Temp\ccScBURM.s:3985   .debug_macro:0000000000000000 .Ldebug_macro20
C:\Users\CYMR90~1\AppData\Local\Temp\ccScBURM.s:4155   .debug_macro:0000000000000000 .Ldebug_macro21
C:\Users\CYMR90~1\AppData\Local\Temp\ccScBURM.s:4166   .debug_macro:0000000000000000 .Ldebug_macro22
C:\Users\CYMR90~1\AppData\Local\Temp\ccScBURM.s:23724  .debug_str:00000000000129c0 .LASF674
C:\Users\CYMR90~1\AppData\Local\Temp\ccScBURM.s:4222   .debug_macro:0000000000000000 .Ldebug_macro23
C:\Users\CYMR90~1\AppData\Local\Temp\ccScBURM.s:4239   .debug_macro:0000000000000000 .Ldebug_macro24
C:\Users\CYMR90~1\AppData\Local\Temp\ccScBURM.s:26893  .debug_str:000000000001f6b7 .LASF692
C:\Users\CYMR90~1\AppData\Local\Temp\ccScBURM.s:25057  .debug_str:0000000000017ff4 .LASF693
C:\Users\CYMR90~1\AppData\Local\Temp\ccScBURM.s:4283   .debug_macro:0000000000000000 .Ldebug_macro25
C:\Users\CYMR90~1\AppData\Local\Temp\ccScBURM.s:20302  .debug_str:0000000000004d2c .LASF699
C:\Users\CYMR90~1\AppData\Local\Temp\ccScBURM.s:21402  .debug_str:0000000000009398 .LASF700
C:\Users\CYMR90~1\AppData\Local\Temp\ccScBURM.s:4303   .debug_macro:0000000000000000 .Ldebug_macro26
C:\Users\CYMR90~1\AppData\Local\Temp\ccScBURM.s:4314   .debug_macro:0000000000000000 .Ldebug_macro27
C:\Users\CYMR90~1\AppData\Local\Temp\ccScBURM.s:4358   .debug_macro:0000000000000000 .Ldebug_macro28
C:\Users\CYMR90~1\AppData\Local\Temp\ccScBURM.s:20662  .debug_str:0000000000006308 .LASF748
C:\Users\CYMR90~1\AppData\Local\Temp\ccScBURM.s:4459   .debug_macro:0000000000000000 .Ldebug_macro29
C:\Users\CYMR90~1\AppData\Local\Temp\ccScBURM.s:4476   .debug_macro:0000000000000000 .Ldebug_macro30
C:\Users\CYMR90~1\AppData\Local\Temp\ccScBURM.s:19166  .debug_str:0000000000000433 .LASF762
C:\Users\CYMR90~1\AppData\Local\Temp\ccScBURM.s:20476  .debug_str:00000000000057b0 .LASF763
C:\Users\CYMR90~1\AppData\Local\Temp\ccScBURM.s:4508   .debug_macro:0000000000000000 .Ldebug_macro31
C:\Users\CYMR90~1\AppData\Local\Temp\ccScBURM.s:4522   .debug_macro:0000000000000000 .Ldebug_macro32
C:\Users\CYMR90~1\AppData\Local\Temp\ccScBURM.s:4692   .debug_macro:0000000000000000 .Ldebug_macro33
C:\Users\CYMR90~1\AppData\Local\Temp\ccScBURM.s:22910  .debug_str:000000000000f57f .LASF849
C:\Users\CYMR90~1\AppData\Local\Temp\ccScBURM.s:25271  .debug_str:0000000000018df9 .LASF850
C:\Users\CYMR90~1\AppData\Local\Temp\ccScBURM.s:4778   .debug_macro:0000000000000000 .Ldebug_macro34
C:\Users\CYMR90~1\AppData\Local\Temp\ccScBURM.s:4903   .debug_macro:0000000000000000 .Ldebug_macro35
C:\Users\CYMR90~1\AppData\Local\Temp\ccScBURM.s:19442  .debug_str:00000000000014fc .LASF950
C:\Users\CYMR90~1\AppData\Local\Temp\ccScBURM.s:5115   .debug_macro:0000000000000000 .Ldebug_macro36
C:\Users\CYMR90~1\AppData\Local\Temp\ccScBURM.s:21150  .debug_str:000000000000841b .LASF956
C:\Users\CYMR90~1\AppData\Local\Temp\ccScBURM.s:20712  .debug_str:0000000000006605 .LASF957
C:\Users\CYMR90~1\AppData\Local\Temp\ccScBURM.s:19608  .debug_str:0000000000001f96 .LASF958
C:\Users\CYMR90~1\AppData\Local\Temp\ccScBURM.s:5135   .debug_macro:0000000000000000 .Ldebug_macro37
C:\Users\CYMR90~1\AppData\Local\Temp\ccScBURM.s:5227   .debug_macro:0000000000000000 .Ldebug_macro38
C:\Users\CYMR90~1\AppData\Local\Temp\ccScBURM.s:6873   .debug_macro:0000000000000000 .Ldebug_macro39
C:\Users\CYMR90~1\AppData\Local\Temp\ccScBURM.s:6965   .debug_macro:0000000000000000 .Ldebug_macro40
C:\Users\CYMR90~1\AppData\Local\Temp\ccScBURM.s:7021   .debug_macro:0000000000000000 .Ldebug_macro41
C:\Users\CYMR90~1\AppData\Local\Temp\ccScBURM.s:7035   .debug_macro:0000000000000000 .Ldebug_macro42
C:\Users\CYMR90~1\AppData\Local\Temp\ccScBURM.s:24592  .debug_str:0000000000016120 .LASF1654
C:\Users\CYMR90~1\AppData\Local\Temp\ccScBURM.s:21524  .debug_str:0000000000009ba2 .LASF1655
C:\Users\CYMR90~1\AppData\Local\Temp\ccScBURM.s:7259   .debug_macro:0000000000000000 .Ldebug_macro43
C:\Users\CYMR90~1\AppData\Local\Temp\ccScBURM.s:7306   .debug_macro:0000000000000000 .Ldebug_macro44
C:\Users\CYMR90~1\AppData\Local\Temp\ccScBURM.s:7461   .debug_macro:0000000000000000 .Ldebug_macro45
C:\Users\CYMR90~1\AppData\Local\Temp\ccScBURM.s:7517   .debug_macro:0000000000000000 .Ldebug_macro46
C:\Users\CYMR90~1\AppData\Local\Temp\ccScBURM.s:7528   .debug_macro:0000000000000000 .Ldebug_macro47
C:\Users\CYMR90~1\AppData\Local\Temp\ccScBURM.s:29491  .debug_str:0000000000029c99 .LASF1781
C:\Users\CYMR90~1\AppData\Local\Temp\ccScBURM.s:24358  .debug_str:00000000000152ab .LASF1782
C:\Users\CYMR90~1\AppData\Local\Temp\ccScBURM.s:7659   .debug_macro:0000000000000000 .Ldebug_macro48
C:\Users\CYMR90~1\AppData\Local\Temp\ccScBURM.s:8231   .debug_macro:0000000000000000 .Ldebug_macro49
C:\Users\CYMR90~1\AppData\Local\Temp\ccScBURM.s:8518   .debug_macro:0000000000000000 .Ldebug_macro50
C:\Users\CYMR90~1\AppData\Local\Temp\ccScBURM.s:8547   .debug_macro:0000000000000000 .Ldebug_macro51
C:\Users\CYMR90~1\AppData\Local\Temp\ccScBURM.s:8624   .debug_macro:0000000000000000 .Ldebug_macro52
C:\Users\CYMR90~1\AppData\Local\Temp\ccScBURM.s:9157   .debug_macro:0000000000000000 .Ldebug_macro53
C:\Users\CYMR90~1\AppData\Local\Temp\ccScBURM.s:9180   .debug_macro:0000000000000000 .Ldebug_macro54
C:\Users\CYMR90~1\AppData\Local\Temp\ccScBURM.s:9446   .debug_macro:0000000000000000 .Ldebug_macro55
C:\Users\CYMR90~1\AppData\Local\Temp\ccScBURM.s:9925   .debug_macro:0000000000000000 .Ldebug_macro56
C:\Users\CYMR90~1\AppData\Local\Temp\ccScBURM.s:10254  .debug_macro:0000000000000000 .Ldebug_macro57
C:\Users\CYMR90~1\AppData\Local\Temp\ccScBURM.s:10343  .debug_macro:0000000000000000 .Ldebug_macro58
C:\Users\CYMR90~1\AppData\Local\Temp\ccScBURM.s:11158  .debug_macro:0000000000000000 .Ldebug_macro59
C:\Users\CYMR90~1\AppData\Local\Temp\ccScBURM.s:11349  .debug_macro:0000000000000000 .Ldebug_macro60
C:\Users\CYMR90~1\AppData\Local\Temp\ccScBURM.s:11852  .debug_macro:0000000000000000 .Ldebug_macro61
C:\Users\CYMR90~1\AppData\Local\Temp\ccScBURM.s:11998  .debug_macro:0000000000000000 .Ldebug_macro62
C:\Users\CYMR90~1\AppData\Local\Temp\ccScBURM.s:12528  .debug_macro:0000000000000000 .Ldebug_macro63
C:\Users\CYMR90~1\AppData\Local\Temp\ccScBURM.s:12950  .debug_macro:0000000000000000 .Ldebug_macro64
C:\Users\CYMR90~1\AppData\Local\Temp\ccScBURM.s:15724  .debug_macro:0000000000000000 .Ldebug_macro65
C:\Users\CYMR90~1\AppData\Local\Temp\ccScBURM.s:16800  .debug_macro:0000000000000000 .Ldebug_macro66
C:\Users\CYMR90~1\AppData\Local\Temp\ccScBURM.s:17069  .debug_macro:0000000000000000 .Ldebug_macro67
C:\Users\CYMR90~1\AppData\Local\Temp\ccScBURM.s:17341  .debug_macro:0000000000000000 .Ldebug_macro68
C:\Users\CYMR90~1\AppData\Local\Temp\ccScBURM.s:18369  .debug_macro:0000000000000000 .Ldebug_macro69
C:\Users\CYMR90~1\AppData\Local\Temp\ccScBURM.s:18413  .debug_macro:0000000000000000 .Ldebug_macro70
C:\Users\CYMR90~1\AppData\Local\Temp\ccScBURM.s:19039  .debug_macro:0000000000000000 .Ldebug_macro71
C:\Users\CYMR90~1\AppData\Local\Temp\ccScBURM.s:20068  .debug_str:0000000000003ce1 .LASF5556
C:\Users\CYMR90~1\AppData\Local\Temp\ccScBURM.s:26131  .debug_str:000000000001c621 .LASF5557
C:\Users\CYMR90~1\AppData\Local\Temp\ccScBURM.s:24546  .debug_str:0000000000015dfd .LASF5558
C:\Users\CYMR90~1\AppData\Local\Temp\ccScBURM.s:19324  .debug_str:0000000000000dbe .LASF5559
C:\Users\CYMR90~1\AppData\Local\Temp\ccScBURM.s:19832  .debug_str:0000000000002d61 .LASF5560
C:\Users\CYMR90~1\AppData\Local\Temp\ccScBURM.s:22034  .debug_str:000000000000bce5 .LASF5561
C:\Users\CYMR90~1\AppData\Local\Temp\ccScBURM.s:20458  .debug_str:0000000000005675 .LASF0
C:\Users\CYMR90~1\AppData\Local\Temp\ccScBURM.s:24785  .debug_str:0000000000016f95 .LASF1
C:\Users\CYMR90~1\AppData\Local\Temp\ccScBURM.s:23076  .debug_str:000000000001004f .LASF2
C:\Users\CYMR90~1\AppData\Local\Temp\ccScBURM.s:23132  .debug_str:00000000000103b2 .LASF3
C:\Users\CYMR90~1\AppData\Local\Temp\ccScBURM.s:24402  .debug_str:00000000000154e5 .LASF4
C:\Users\CYMR90~1\AppData\Local\Temp\ccScBURM.s:29885  .debug_str:000000000002b4c3 .LASF5
C:\Users\CYMR90~1\AppData\Local\Temp\ccScBURM.s:20688  .debug_str:00000000000064b0 .LASF6
C:\Users\CYMR90~1\AppData\Local\Temp\ccScBURM.s:29213  .debug_str:0000000000028af0 .LASF7
C:\Users\CYMR90~1\AppData\Local\Temp\ccScBURM.s:28175  .debug_str:00000000000245d8 .LASF8
C:\Users\CYMR90~1\AppData\Local\Temp\ccScBURM.s:26113  .debug_str:000000000001c4df .LASF9
C:\Users\CYMR90~1\AppData\Local\Temp\ccScBURM.s:25469  .debug_str:0000000000019b74 .LASF10
C:\Users\CYMR90~1\AppData\Local\Temp\ccScBURM.s:25327  .debug_str:00000000000191fc .LASF11
C:\Users\CYMR90~1\AppData\Local\Temp\ccScBURM.s:29727  .debug_str:000000000002aab5 .LASF12
C:\Users\CYMR90~1\AppData\Local\Temp\ccScBURM.s:25339  .debug_str:00000000000192b0 .LASF13
C:\Users\CYMR90~1\AppData\Local\Temp\ccScBURM.s:21678  .debug_str:000000000000a576 .LASF14
C:\Users\CYMR90~1\AppData\Local\Temp\ccScBURM.s:26689  .debug_str:000000000001ea8e .LASF15
C:\Users\CYMR90~1\AppData\Local\Temp\ccScBURM.s:27439  .debug_str:0000000000021885 .LASF16
C:\Users\CYMR90~1\AppData\Local\Temp\ccScBURM.s:21724  .debug_str:000000000000a83a .LASF17
C:\Users\CYMR90~1\AppData\Local\Temp\ccScBURM.s:28451  .debug_str:0000000000025986 .LASF18
C:\Users\CYMR90~1\AppData\Local\Temp\ccScBURM.s:22688  .debug_str:000000000000e818 .LASF19
C:\Users\CYMR90~1\AppData\Local\Temp\ccScBURM.s:19774  .debug_str:00000000000029b1 .LASF20
C:\Users\CYMR90~1\AppData\Local\Temp\ccScBURM.s:25141  .debug_str:000000000001853a .LASF21
C:\Users\CYMR90~1\AppData\Local\Temp\ccScBURM.s:25139  .debug_str:0000000000018520 .LASF22
C:\Users\CYMR90~1\AppData\Local\Temp\ccScBURM.s:27739  .debug_str:0000000000022ac0 .LASF23
C:\Users\CYMR90~1\AppData\Local\Temp\ccScBURM.s:26065  .debug_str:000000000001c249 .LASF24
C:\Users\CYMR90~1\AppData\Local\Temp\ccScBURM.s:20008  .debug_str:000000000000394a .LASF25
C:\Users\CYMR90~1\AppData\Local\Temp\ccScBURM.s:24526  .debug_str:0000000000015ca2 .LASF26
C:\Users\CYMR90~1\AppData\Local\Temp\ccScBURM.s:27743  .debug_str:0000000000022aec .LASF27
C:\Users\CYMR90~1\AppData\Local\Temp\ccScBURM.s:27447  .debug_str:00000000000218e2 .LASF28
C:\Users\CYMR90~1\AppData\Local\Temp\ccScBURM.s:20410  .debug_str:00000000000053a3 .LASF29
C:\Users\CYMR90~1\AppData\Local\Temp\ccScBURM.s:26469  .debug_str:000000000001dd45 .LASF30
C:\Users\CYMR90~1\AppData\Local\Temp\ccScBURM.s:19392  .debug_str:0000000000001232 .LASF31
C:\Users\CYMR90~1\AppData\Local\Temp\ccScBURM.s:26927  .debug_str:000000000001f8af .LASF32
C:\Users\CYMR90~1\AppData\Local\Temp\ccScBURM.s:21566  .debug_str:0000000000009e23 .LASF33
C:\Users\CYMR90~1\AppData\Local\Temp\ccScBURM.s:21418  .debug_str:0000000000009483 .LASF34
C:\Users\CYMR90~1\AppData\Local\Temp\ccScBURM.s:22720  .debug_str:000000000000ea0f .LASF35
C:\Users\CYMR90~1\AppData\Local\Temp\ccScBURM.s:25581  .debug_str:000000000001a1d8 .LASF36
C:\Users\CYMR90~1\AppData\Local\Temp\ccScBURM.s:20924  .debug_str:0000000000007416 .LASF37
C:\Users\CYMR90~1\AppData\Local\Temp\ccScBURM.s:23074  .debug_str:000000000001002c .LASF38
C:\Users\CYMR90~1\AppData\Local\Temp\ccScBURM.s:19972  .debug_str:00000000000036a4 .LASF39
C:\Users\CYMR90~1\AppData\Local\Temp\ccScBURM.s:19766  .debug_str:000000000000291f .LASF40
C:\Users\CYMR90~1\AppData\Local\Temp\ccScBURM.s:23232  .debug_str:0000000000010989 .LASF41
C:\Users\CYMR90~1\AppData\Local\Temp\ccScBURM.s:23656  .debug_str:000000000001253e .LASF42
C:\Users\CYMR90~1\AppData\Local\Temp\ccScBURM.s:23918  .debug_str:0000000000013720 .LASF43
C:\Users\CYMR90~1\AppData\Local\Temp\ccScBURM.s:25571  .debug_str:000000000001a146 .LASF44
C:\Users\CYMR90~1\AppData\Local\Temp\ccScBURM.s:23520  .debug_str:0000000000011caa .LASF45
C:\Users\CYMR90~1\AppData\Local\Temp\ccScBURM.s:20238  .debug_str:0000000000004899 .LASF46
C:\Users\CYMR90~1\AppData\Local\Temp\ccScBURM.s:26475  .debug_str:000000000001ddaa .LASF47
C:\Users\CYMR90~1\AppData\Local\Temp\ccScBURM.s:28177  .debug_str:00000000000245ed .LASF48
C:\Users\CYMR90~1\AppData\Local\Temp\ccScBURM.s:22464  .debug_str:000000000000da4b .LASF49
C:\Users\CYMR90~1\AppData\Local\Temp\ccScBURM.s:19604  .debug_str:0000000000001f63 .LASF50
C:\Users\CYMR90~1\AppData\Local\Temp\ccScBURM.s:19118  .debug_str:0000000000000131 .LASF51
C:\Users\CYMR90~1\AppData\Local\Temp\ccScBURM.s:29503  .debug_str:0000000000029d2d .LASF52
C:\Users\CYMR90~1\AppData\Local\Temp\ccScBURM.s:22278  .debug_str:000000000000ce2c .LASF53
C:\Users\CYMR90~1\AppData\Local\Temp\ccScBURM.s:23994  .debug_str:0000000000013ba2 .LASF54
C:\Users\CYMR90~1\AppData\Local\Temp\ccScBURM.s:23038  .debug_str:000000000000fda2 .LASF55
C:\Users\CYMR90~1\AppData\Local\Temp\ccScBURM.s:21010  .debug_str:0000000000007998 .LASF56
C:\Users\CYMR90~1\AppData\Local\Temp\ccScBURM.s:24380  .debug_str:00000000000153ba .LASF57
C:\Users\CYMR90~1\AppData\Local\Temp\ccScBURM.s:19346  .debug_str:0000000000000f90 .LASF58
C:\Users\CYMR90~1\AppData\Local\Temp\ccScBURM.s:28455  .debug_str:00000000000259c6 .LASF59
C:\Users\CYMR90~1\AppData\Local\Temp\ccScBURM.s:23926  .debug_str:000000000001377b .LASF60
C:\Users\CYMR90~1\AppData\Local\Temp\ccScBURM.s:25849  .debug_str:000000000001b4f2 .LASF61
C:\Users\CYMR90~1\AppData\Local\Temp\ccScBURM.s:19834  .debug_str:0000000000002da4 .LASF62
C:\Users\CYMR90~1\AppData\Local\Temp\ccScBURM.s:22458  .debug_str:000000000000da07 .LASF63
C:\Users\CYMR90~1\AppData\Local\Temp\ccScBURM.s:22190  .debug_str:000000000000c7c6 .LASF64
C:\Users\CYMR90~1\AppData\Local\Temp\ccScBURM.s:25557  .debug_str:000000000001a07d .LASF65
C:\Users\CYMR90~1\AppData\Local\Temp\ccScBURM.s:24220  .debug_str:0000000000014999 .LASF66
C:\Users\CYMR90~1\AppData\Local\Temp\ccScBURM.s:29285  .debug_str:0000000000028f62 .LASF67
C:\Users\CYMR90~1\AppData\Local\Temp\ccScBURM.s:29729  .debug_str:000000000002aac8 .LASF68
C:\Users\CYMR90~1\AppData\Local\Temp\ccScBURM.s:23474  .debug_str:000000000001196d .LASF69
C:\Users\CYMR90~1\AppData\Local\Temp\ccScBURM.s:22616  .debug_str:000000000000e389 .LASF70
C:\Users\CYMR90~1\AppData\Local\Temp\ccScBURM.s:20250  .debug_str:00000000000049ec .LASF71
C:\Users\CYMR90~1\AppData\Local\Temp\ccScBURM.s:23508  .debug_str:0000000000011be7 .LASF72
C:\Users\CYMR90~1\AppData\Local\Temp\ccScBURM.s:23140  .debug_str:0000000000010423 .LASF73
C:\Users\CYMR90~1\AppData\Local\Temp\ccScBURM.s:23736  .debug_str:0000000000012ab1 .LASF74
C:\Users\CYMR90~1\AppData\Local\Temp\ccScBURM.s:23580  .debug_str:0000000000012065 .LASF75
C:\Users\CYMR90~1\AppData\Local\Temp\ccScBURM.s:23676  .debug_str:000000000001269c .LASF76
C:\Users\CYMR90~1\AppData\Local\Temp\ccScBURM.s:28095  .debug_str:0000000000024068 .LASF77
C:\Users\CYMR90~1\AppData\Local\Temp\ccScBURM.s:26039  .debug_str:000000000001c0b4 .LASF78
C:\Users\CYMR90~1\AppData\Local\Temp\ccScBURM.s:26439  .debug_str:000000000001daeb .LASF79
C:\Users\CYMR90~1\AppData\Local\Temp\ccScBURM.s:29265  .debug_str:0000000000028e13 .LASF80
C:\Users\CYMR90~1\AppData\Local\Temp\ccScBURM.s:21518  .debug_str:0000000000009b2e .LASF81
C:\Users\CYMR90~1\AppData\Local\Temp\ccScBURM.s:21710  .debug_str:000000000000a70e .LASF82
C:\Users\CYMR90~1\AppData\Local\Temp\ccScBURM.s:29393  .debug_str:00000000000296ec .LASF83
C:\Users\CYMR90~1\AppData\Local\Temp\ccScBURM.s:21458  .debug_str:0000000000009725 .LASF84
C:\Users\CYMR90~1\AppData\Local\Temp\ccScBURM.s:20748  .debug_str:0000000000006860 .LASF85
C:\Users\CYMR90~1\AppData\Local\Temp\ccScBURM.s:25755  .debug_str:000000000001aeba .LASF86
C:\Users\CYMR90~1\AppData\Local\Temp\ccScBURM.s:29423  .debug_str:0000000000029876 .LASF87
C:\Users\CYMR90~1\AppData\Local\Temp\ccScBURM.s:26867  .debug_str:000000000001f52d .LASF88
C:\Users\CYMR90~1\AppData\Local\Temp\ccScBURM.s:25673  .debug_str:000000000001a97e .LASF89
C:\Users\CYMR90~1\AppData\Local\Temp\ccScBURM.s:26897  .debug_str:000000000001f6ea .LASF90
C:\Users\CYMR90~1\AppData\Local\Temp\ccScBURM.s:29633  .debug_str:000000000002a51e .LASF91
C:\Users\CYMR90~1\AppData\Local\Temp\ccScBURM.s:28463  .debug_str:0000000000025a3e .LASF92
C:\Users\CYMR90~1\AppData\Local\Temp\ccScBURM.s:21594  .debug_str:0000000000009ffc .LASF93
C:\Users\CYMR90~1\AppData\Local\Temp\ccScBURM.s:26321  .debug_str:000000000001d3a0 .LASF94
C:\Users\CYMR90~1\AppData\Local\Temp\ccScBURM.s:23954  .debug_str:0000000000013934 .LASF95
C:\Users\CYMR90~1\AppData\Local\Temp\ccScBURM.s:23938  .debug_str:0000000000013844 .LASF96
C:\Users\CYMR90~1\AppData\Local\Temp\ccScBURM.s:29933  .debug_str:000000000002b805 .LASF97
C:\Users\CYMR90~1\AppData\Local\Temp\ccScBURM.s:23592  .debug_str:0000000000012142 .LASF98
C:\Users\CYMR90~1\AppData\Local\Temp\ccScBURM.s:27465  .debug_str:0000000000021a09 .LASF99
C:\Users\CYMR90~1\AppData\Local\Temp\ccScBURM.s:21910  .debug_str:000000000000b453 .LASF100
C:\Users\CYMR90~1\AppData\Local\Temp\ccScBURM.s:23086  .debug_str:00000000000100bd .LASF101
C:\Users\CYMR90~1\AppData\Local\Temp\ccScBURM.s:24444  .debug_str:000000000001573c .LASF102
C:\Users\CYMR90~1\AppData\Local\Temp\ccScBURM.s:23362  .debug_str:00000000000111b3 .LASF103
C:\Users\CYMR90~1\AppData\Local\Temp\ccScBURM.s:22374  .debug_str:000000000000d46c .LASF104
C:\Users\CYMR90~1\AppData\Local\Temp\ccScBURM.s:23530  .debug_str:0000000000011d41 .LASF105
C:\Users\CYMR90~1\AppData\Local\Temp\ccScBURM.s:26139  .debug_str:000000000001c697 .LASF106
C:\Users\CYMR90~1\AppData\Local\Temp\ccScBURM.s:23356  .debug_str:000000000001114e .LASF107
C:\Users\CYMR90~1\AppData\Local\Temp\ccScBURM.s:22370  .debug_str:000000000000d448 .LASF108
C:\Users\CYMR90~1\AppData\Local\Temp\ccScBURM.s:23790  .debug_str:0000000000012e18 .LASF109
C:\Users\CYMR90~1\AppData\Local\Temp\ccScBURM.s:22744  .debug_str:000000000000eba9 .LASF110
C:\Users\CYMR90~1\AppData\Local\Temp\ccScBURM.s:25193  .debug_str:0000000000018858 .LASF111
C:\Users\CYMR90~1\AppData\Local\Temp\ccScBURM.s:21848  .debug_str:000000000000b0ac .LASF112
C:\Users\CYMR90~1\AppData\Local\Temp\ccScBURM.s:21592  .debug_str:0000000000009fd3 .LASF113
C:\Users\CYMR90~1\AppData\Local\Temp\ccScBURM.s:24476  .debug_str:000000000001593c .LASF114
C:\Users\CYMR90~1\AppData\Local\Temp\ccScBURM.s:29325  .debug_str:000000000002925d .LASF115
C:\Users\CYMR90~1\AppData\Local\Temp\ccScBURM.s:27983  .debug_str:000000000002391d .LASF116
C:\Users\CYMR90~1\AppData\Local\Temp\ccScBURM.s:21350  .debug_str:0000000000009093 .LASF117
C:\Users\CYMR90~1\AppData\Local\Temp\ccScBURM.s:25905  .debug_str:000000000001b86d .LASF118
C:\Users\CYMR90~1\AppData\Local\Temp\ccScBURM.s:30041  .debug_str:000000000002bf80 .LASF119
C:\Users\CYMR90~1\AppData\Local\Temp\ccScBURM.s:22662  .debug_str:000000000000e62d .LASF120
C:\Users\CYMR90~1\AppData\Local\Temp\ccScBURM.s:28079  .debug_str:0000000000023e8d .LASF121
C:\Users\CYMR90~1\AppData\Local\Temp\ccScBURM.s:22152  .debug_str:000000000000c555 .LASF122
C:\Users\CYMR90~1\AppData\Local\Temp\ccScBURM.s:22264  .debug_str:000000000000cd7f .LASF123
C:\Users\CYMR90~1\AppData\Local\Temp\ccScBURM.s:19940  .debug_str:00000000000034b5 .LASF124
C:\Users\CYMR90~1\AppData\Local\Temp\ccScBURM.s:20214  .debug_str:00000000000046dd .LASF125
C:\Users\CYMR90~1\AppData\Local\Temp\ccScBURM.s:29005  .debug_str:0000000000027c99 .LASF126
C:\Users\CYMR90~1\AppData\Local\Temp\ccScBURM.s:23536  .debug_str:0000000000011d7f .LASF127
C:\Users\CYMR90~1\AppData\Local\Temp\ccScBURM.s:26297  .debug_str:000000000001d242 .LASF128
C:\Users\CYMR90~1\AppData\Local\Temp\ccScBURM.s:21426  .debug_str:00000000000094fb .LASF129
C:\Users\CYMR90~1\AppData\Local\Temp\ccScBURM.s:28579  .debug_str:000000000002614b .LASF130
C:\Users\CYMR90~1\AppData\Local\Temp\ccScBURM.s:28879  .debug_str:0000000000027444 .LASF131
C:\Users\CYMR90~1\AppData\Local\Temp\ccScBURM.s:28693  .debug_str:0000000000026852 .LASF132
C:\Users\CYMR90~1\AppData\Local\Temp\ccScBURM.s:22638  .debug_str:000000000000e4bc .LASF133
C:\Users\CYMR90~1\AppData\Local\Temp\ccScBURM.s:27999  .debug_str:00000000000239f1 .LASF134
C:\Users\CYMR90~1\AppData\Local\Temp\ccScBURM.s:20208  .debug_str:0000000000004676 .LASF135
C:\Users\CYMR90~1\AppData\Local\Temp\ccScBURM.s:21054  .debug_str:0000000000007c74 .LASF136
C:\Users\CYMR90~1\AppData\Local\Temp\ccScBURM.s:29721  .debug_str:000000000002aa5e .LASF137
C:\Users\CYMR90~1\AppData\Local\Temp\ccScBURM.s:23786  .debug_str:0000000000012de8 .LASF138
C:\Users\CYMR90~1\AppData\Local\Temp\ccScBURM.s:29211  .debug_str:0000000000028ae0 .LASF139
C:\Users\CYMR90~1\AppData\Local\Temp\ccScBURM.s:28347  .debug_str:000000000002520d .LASF140
C:\Users\CYMR90~1\AppData\Local\Temp\ccScBURM.s:25995  .debug_str:000000000001bde4 .LASF141
C:\Users\CYMR90~1\AppData\Local\Temp\ccScBURM.s:21554  .debug_str:0000000000009d64 .LASF142
C:\Users\CYMR90~1\AppData\Local\Temp\ccScBURM.s:29793  .debug_str:000000000002ae80 .LASF143
C:\Users\CYMR90~1\AppData\Local\Temp\ccScBURM.s:25163  .debug_str:000000000001864e .LASF144
C:\Users\CYMR90~1\AppData\Local\Temp\ccScBURM.s:24232  .debug_str:0000000000014a7e .LASF145
C:\Users\CYMR90~1\AppData\Local\Temp\ccScBURM.s:22224  .debug_str:000000000000caa2 .LASF146
C:\Users\CYMR90~1\AppData\Local\Temp\ccScBURM.s:20248  .debug_str:00000000000049d5 .LASF147
C:\Users\CYMR90~1\AppData\Local\Temp\ccScBURM.s:22786  .debug_str:000000000000ee2b .LASF148
C:\Users\CYMR90~1\AppData\Local\Temp\ccScBURM.s:25143  .debug_str:000000000001854e .LASF149
C:\Users\CYMR90~1\AppData\Local\Temp\ccScBURM.s:19192  .debug_str:000000000000058b .LASF150
C:\Users\CYMR90~1\AppData\Local\Temp\ccScBURM.s:27449  .debug_str:00000000000218fc .LASF151
C:\Users\CYMR90~1\AppData\Local\Temp\ccScBURM.s:23780  .debug_str:0000000000012d66 .LASF152
C:\Users\CYMR90~1\AppData\Local\Temp\ccScBURM.s:28353  .debug_str:0000000000025260 .LASF153
C:\Users\CYMR90~1\AppData\Local\Temp\ccScBURM.s:26199  .debug_str:000000000001cada .LASF154
C:\Users\CYMR90~1\AppData\Local\Temp\ccScBURM.s:23194  .debug_str:0000000000010747 .LASF155
C:\Users\CYMR90~1\AppData\Local\Temp\ccScBURM.s:26213  .debug_str:000000000001cbdf .LASF156
C:\Users\CYMR90~1\AppData\Local\Temp\ccScBURM.s:26327  .debug_str:000000000001d408 .LASF157
C:\Users\CYMR90~1\AppData\Local\Temp\ccScBURM.s:22080  .debug_str:000000000000c10b .LASF158
C:\Users\CYMR90~1\AppData\Local\Temp\ccScBURM.s:21154  .debug_str:000000000000843d .LASF159
C:\Users\CYMR90~1\AppData\Local\Temp\ccScBURM.s:25855  .debug_str:000000000001b546 .LASF160
C:\Users\CYMR90~1\AppData\Local\Temp\ccScBURM.s:27273  .debug_str:0000000000020e37 .LASF161
C:\Users\CYMR90~1\AppData\Local\Temp\ccScBURM.s:25461  .debug_str:0000000000019ae2 .LASF162
C:\Users\CYMR90~1\AppData\Local\Temp\ccScBURM.s:27991  .debug_str:000000000002397f .LASF163
C:\Users\CYMR90~1\AppData\Local\Temp\ccScBURM.s:29619  .debug_str:000000000002a450 .LASF164
C:\Users\CYMR90~1\AppData\Local\Temp\ccScBURM.s:20914  .debug_str:0000000000007392 .LASF165
C:\Users\CYMR90~1\AppData\Local\Temp\ccScBURM.s:29313  .debug_str:000000000002912e .LASF166
C:\Users\CYMR90~1\AppData\Local\Temp\ccScBURM.s:29137  .debug_str:000000000002863b .LASF167
C:\Users\CYMR90~1\AppData\Local\Temp\ccScBURM.s:27913  .debug_str:00000000000234a1 .LASF168
C:\Users\CYMR90~1\AppData\Local\Temp\ccScBURM.s:24927  .debug_str:000000000001781e .LASF169
C:\Users\CYMR90~1\AppData\Local\Temp\ccScBURM.s:28753  .debug_str:0000000000026bf3 .LASF170
C:\Users\CYMR90~1\AppData\Local\Temp\ccScBURM.s:24554  .debug_str:0000000000015e67 .LASF171
C:\Users\CYMR90~1\AppData\Local\Temp\ccScBURM.s:26119  .debug_str:000000000001c53e .LASF172
C:\Users\CYMR90~1\AppData\Local\Temp\ccScBURM.s:21546  .debug_str:0000000000009cf0 .LASF173
C:\Users\CYMR90~1\AppData\Local\Temp\ccScBURM.s:27805  .debug_str:0000000000022e7e .LASF174
C:\Users\CYMR90~1\AppData\Local\Temp\ccScBURM.s:20584  .debug_str:0000000000005e50 .LASF175
C:\Users\CYMR90~1\AppData\Local\Temp\ccScBURM.s:21394  .debug_str:000000000000932f .LASF176
C:\Users\CYMR90~1\AppData\Local\Temp\ccScBURM.s:20088  .debug_str:0000000000003e3c .LASF177
C:\Users\CYMR90~1\AppData\Local\Temp\ccScBURM.s:25335  .debug_str:000000000001926e .LASF178
C:\Users\CYMR90~1\AppData\Local\Temp\ccScBURM.s:22316  .debug_str:000000000000d0bd .LASF179
C:\Users\CYMR90~1\AppData\Local\Temp\ccScBURM.s:19598  .debug_str:0000000000001f09 .LASF180
C:\Users\CYMR90~1\AppData\Local\Temp\ccScBURM.s:29929  .debug_str:000000000002b7da .LASF181
C:\Users\CYMR90~1\AppData\Local\Temp\ccScBURM.s:19378  .debug_str:0000000000001187 .LASF182
C:\Users\CYMR90~1\AppData\Local\Temp\ccScBURM.s:23896  .debug_str:0000000000013595 .LASF183
C:\Users\CYMR90~1\AppData\Local\Temp\ccScBURM.s:24296  .debug_str:0000000000014eaf .LASF184
C:\Users\CYMR90~1\AppData\Local\Temp\ccScBURM.s:29147  .debug_str:00000000000286ea .LASF185
C:\Users\CYMR90~1\AppData\Local\Temp\ccScBURM.s:24837  .debug_str:0000000000017282 .LASF186
C:\Users\CYMR90~1\AppData\Local\Temp\ccScBURM.s:20898  .debug_str:0000000000007231 .LASF187
C:\Users\CYMR90~1\AppData\Local\Temp\ccScBURM.s:26845  .debug_str:000000000001f413 .LASF188
C:\Users\CYMR90~1\AppData\Local\Temp\ccScBURM.s:22682  .debug_str:000000000000e7be .LASF189
C:\Users\CYMR90~1\AppData\Local\Temp\ccScBURM.s:24000  .debug_str:0000000000013c01 .LASF190
C:\Users\CYMR90~1\AppData\Local\Temp\ccScBURM.s:27331  .debug_str:0000000000021157 .LASF191
C:\Users\CYMR90~1\AppData\Local\Temp\ccScBURM.s:24710  .debug_str:00000000000168bc .LASF192
C:\Users\CYMR90~1\AppData\Local\Temp\ccScBURM.s:27561  .debug_str:0000000000021ffd .LASF193
C:\Users\CYMR90~1\AppData\Local\Temp\ccScBURM.s:20538  .debug_str:0000000000005b89 .LASF194
C:\Users\CYMR90~1\AppData\Local\Temp\ccScBURM.s:19910  .debug_str:00000000000032c0 .LASF195
C:\Users\CYMR90~1\AppData\Local\Temp\ccScBURM.s:22510  .debug_str:000000000000dcd4 .LASF196
C:\Users\CYMR90~1\AppData\Local\Temp\ccScBURM.s:23422  .debug_str:000000000001155b .LASF197
C:\Users\CYMR90~1\AppData\Local\Temp\ccScBURM.s:20396  .debug_str:00000000000052c3 .LASF198
C:\Users\CYMR90~1\AppData\Local\Temp\ccScBURM.s:29037  .debug_str:0000000000027ee0 .LASF199
C:\Users\CYMR90~1\AppData\Local\Temp\ccScBURM.s:27215  .debug_str:0000000000020ad2 .LASF200
C:\Users\CYMR90~1\AppData\Local\Temp\ccScBURM.s:26335  .debug_str:000000000001d466 .LASF201
C:\Users\CYMR90~1\AppData\Local\Temp\ccScBURM.s:21522  .debug_str:0000000000009b61 .LASF202
C:\Users\CYMR90~1\AppData\Local\Temp\ccScBURM.s:29481  .debug_str:0000000000029bf9 .LASF203
C:\Users\CYMR90~1\AppData\Local\Temp\ccScBURM.s:19922  .debug_str:0000000000003391 .LASF204
C:\Users\CYMR90~1\AppData\Local\Temp\ccScBURM.s:22916  .debug_str:000000000000f5d9 .LASF205
C:\Users\CYMR90~1\AppData\Local\Temp\ccScBURM.s:29221  .debug_str:0000000000028b51 .LASF206
C:\Users\CYMR90~1\AppData\Local\Temp\ccScBURM.s:24116  .debug_str:0000000000014333 .LASF207
C:\Users\CYMR90~1\AppData\Local\Temp\ccScBURM.s:26885  .debug_str:000000000001f648 .LASF208
C:\Users\CYMR90~1\AppData\Local\Temp\ccScBURM.s:22146  .debug_str:000000000000c504 .LASF209
C:\Users\CYMR90~1\AppData\Local\Temp\ccScBURM.s:30137  .debug_str:000000000002c5b6 .LASF210
C:\Users\CYMR90~1\AppData\Local\Temp\ccScBURM.s:24088  .debug_str:0000000000014185 .LASF211
C:\Users\CYMR90~1\AppData\Local\Temp\ccScBURM.s:26727  .debug_str:000000000001eca1 .LASF212
C:\Users\CYMR90~1\AppData\Local\Temp\ccScBURM.s:25355  .debug_str:000000000001939c .LASF213
C:\Users\CYMR90~1\AppData\Local\Temp\ccScBURM.s:20624  .debug_str:000000000000609c .LASF214
C:\Users\CYMR90~1\AppData\Local\Temp\ccScBURM.s:24096  .debug_str:00000000000141f5 .LASF215
C:\Users\CYMR90~1\AppData\Local\Temp\ccScBURM.s:26035  .debug_str:000000000001c064 .LASF216
C:\Users\CYMR90~1\AppData\Local\Temp\ccScBURM.s:26993  .debug_str:000000000001fcc1 .LASF217
C:\Users\CYMR90~1\AppData\Local\Temp\ccScBURM.s:22994  .debug_str:000000000000faf2 .LASF218
C:\Users\CYMR90~1\AppData\Local\Temp\ccScBURM.s:28355  .debug_str:000000000002529c .LASF219
C:\Users\CYMR90~1\AppData\Local\Temp\ccScBURM.s:28169  .debug_str:000000000002457f .LASF220
C:\Users\CYMR90~1\AppData\Local\Temp\ccScBURM.s:27703  .debug_str:0000000000022829 .LASF221
C:\Users\CYMR90~1\AppData\Local\Temp\ccScBURM.s:24366  .debug_str:0000000000015309 .LASF222
C:\Users\CYMR90~1\AppData\Local\Temp\ccScBURM.s:20594  .debug_str:0000000000005ed2 .LASF223
C:\Users\CYMR90~1\AppData\Local\Temp\ccScBURM.s:21254  .debug_str:0000000000008a84 .LASF224
C:\Users\CYMR90~1\AppData\Local\Temp\ccScBURM.s:29803  .debug_str:000000000002af04 .LASF225
C:\Users\CYMR90~1\AppData\Local\Temp\ccScBURM.s:22580  .debug_str:000000000000e170 .LASF226
C:\Users\CYMR90~1\AppData\Local\Temp\ccScBURM.s:26195  .debug_str:000000000001caac .LASF227
C:\Users\CYMR90~1\AppData\Local\Temp\ccScBURM.s:26045  .debug_str:000000000001c10a .LASF228
C:\Users\CYMR90~1\AppData\Local\Temp\ccScBURM.s:22524  .debug_str:000000000000ddb1 .LASF229
C:\Users\CYMR90~1\AppData\Local\Temp\ccScBURM.s:26767  .debug_str:000000000001ef0c .LASF230
C:\Users\CYMR90~1\AppData\Local\Temp\ccScBURM.s:21306  .debug_str:0000000000008ddd .LASF231
C:\Users\CYMR90~1\AppData\Local\Temp\ccScBURM.s:20636  .debug_str:0000000000006171 .LASF232
C:\Users\CYMR90~1\AppData\Local\Temp\ccScBURM.s:21206  .debug_str:000000000000875a .LASF233
C:\Users\CYMR90~1\AppData\Local\Temp\ccScBURM.s:23186  .debug_str:00000000000106c4 .LASF234
C:\Users\CYMR90~1\AppData\Local\Temp\ccScBURM.s:22912  .debug_str:000000000000f591 .LASF235
C:\Users\CYMR90~1\AppData\Local\Temp\ccScBURM.s:27921  .debug_str:000000000002354d .LASF236
C:\Users\CYMR90~1\AppData\Local\Temp\ccScBURM.s:22934  .debug_str:000000000000f6e2 .LASF237
C:\Users\CYMR90~1\AppData\Local\Temp\ccScBURM.s:28575  .debug_str:000000000002610f .LASF238
C:\Users\CYMR90~1\AppData\Local\Temp\ccScBURM.s:27905  .debug_str:0000000000023422 .LASF239
C:\Users\CYMR90~1\AppData\Local\Temp\ccScBURM.s:28135  .debug_str:000000000002435c .LASF240
C:\Users\CYMR90~1\AppData\Local\Temp\ccScBURM.s:21022  .debug_str:0000000000007aa3 .LASF241
C:\Users\CYMR90~1\AppData\Local\Temp\ccScBURM.s:22602  .debug_str:000000000000e2a8 .LASF242
C:\Users\CYMR90~1\AppData\Local\Temp\ccScBURM.s:23576  .debug_str:0000000000011ffd .LASF243
C:\Users\CYMR90~1\AppData\Local\Temp\ccScBURM.s:27931  .debug_str:00000000000235c5 .LASF244
C:\Users\CYMR90~1\AppData\Local\Temp\ccScBURM.s:23764  .debug_str:0000000000012c46 .LASF245
C:\Users\CYMR90~1\AppData\Local\Temp\ccScBURM.s:26779  .debug_str:000000000001eff1 .LASF246
C:\Users\CYMR90~1\AppData\Local\Temp\ccScBURM.s:25127  .debug_str:000000000001843a .LASF247
C:\Users\CYMR90~1\AppData\Local\Temp\ccScBURM.s:24642  .debug_str:00000000000163f3 .LASF248
C:\Users\CYMR90~1\AppData\Local\Temp\ccScBURM.s:26135  .debug_str:000000000001c667 .LASF249
C:\Users\CYMR90~1\AppData\Local\Temp\ccScBURM.s:25519  .debug_str:0000000000019e44 .LASF250
C:\Users\CYMR90~1\AppData\Local\Temp\ccScBURM.s:26067  .debug_str:000000000001c258 .LASF251
C:\Users\CYMR90~1\AppData\Local\Temp\ccScBURM.s:27751  .debug_str:0000000000022b71 .LASF252
C:\Users\CYMR90~1\AppData\Local\Temp\ccScBURM.s:22494  .debug_str:000000000000dc12 .LASF253
C:\Users\CYMR90~1\AppData\Local\Temp\ccScBURM.s:28427  .debug_str:0000000000025816 .LASF254
C:\Users\CYMR90~1\AppData\Local\Temp\ccScBURM.s:22356  .debug_str:000000000000d33e .LASF255
C:\Users\CYMR90~1\AppData\Local\Temp\ccScBURM.s:25425  .debug_str:0000000000019894 .LASF256
C:\Users\CYMR90~1\AppData\Local\Temp\ccScBURM.s:22598  .debug_str:000000000000e276 .LASF257
C:\Users\CYMR90~1\AppData\Local\Temp\ccScBURM.s:26715  .debug_str:000000000001ebd2 .LASF258
C:\Users\CYMR90~1\AppData\Local\Temp\ccScBURM.s:21810  .debug_str:000000000000ad70 .LASF259
C:\Users\CYMR90~1\AppData\Local\Temp\ccScBURM.s:19266  .debug_str:0000000000000a25 .LASF260
C:\Users\CYMR90~1\AppData\Local\Temp\ccScBURM.s:29541  .debug_str:0000000000029f6c .LASF261
C:\Users\CYMR90~1\AppData\Local\Temp\ccScBURM.s:29017  .debug_str:0000000000027d3f .LASF262
C:\Users\CYMR90~1\AppData\Local\Temp\ccScBURM.s:24068  .debug_str:0000000000014007 .LASF263
C:\Users\CYMR90~1\AppData\Local\Temp\ccScBURM.s:26019  .debug_str:000000000001bf77 .LASF264
C:\Users\CYMR90~1\AppData\Local\Temp\ccScBURM.s:23042  .debug_str:000000000000fde9 .LASF265
C:\Users\CYMR90~1\AppData\Local\Temp\ccScBURM.s:22526  .debug_str:000000000000ddf2 .LASF266
C:\Users\CYMR90~1\AppData\Local\Temp\ccScBURM.s:21860  .debug_str:000000000000b171 .LASF267
C:\Users\CYMR90~1\AppData\Local\Temp\ccScBURM.s:26121  .debug_str:000000000001c553 .LASF268
C:\Users\CYMR90~1\AppData\Local\Temp\ccScBURM.s:22170  .debug_str:000000000000c6a1 .LASF269
C:\Users\CYMR90~1\AppData\Local\Temp\ccScBURM.s:23106  .debug_str:000000000001022a .LASF270
C:\Users\CYMR90~1\AppData\Local\Temp\ccScBURM.s:24340  .debug_str:0000000000015156 .LASF271
C:\Users\CYMR90~1\AppData\Local\Temp\ccScBURM.s:28675  .debug_str:0000000000026758 .LASF272
C:\Users\CYMR90~1\AppData\Local\Temp\ccScBURM.s:20792  .debug_str:0000000000006aff .LASF273
C:\Users\CYMR90~1\AppData\Local\Temp\ccScBURM.s:19716  .debug_str:0000000000002596 .LASF274
C:\Users\CYMR90~1\AppData\Local\Temp\ccScBURM.s:20882  .debug_str:000000000000711a .LASF275
C:\Users\CYMR90~1\AppData\Local\Temp\ccScBURM.s:19976  .debug_str:00000000000036e0 .LASF276
C:\Users\CYMR90~1\AppData\Local\Temp\ccScBURM.s:22064  .debug_str:000000000000c004 .LASF277
C:\Users\CYMR90~1\AppData\Local\Temp\ccScBURM.s:19402  .debug_str:00000000000012a6 .LASF278
C:\Users\CYMR90~1\AppData\Local\Temp\ccScBURM.s:20716  .debug_str:000000000000662f .LASF279
C:\Users\CYMR90~1\AppData\Local\Temp\ccScBURM.s:29335  .debug_str:00000000000292f1 .LASF280
C:\Users\CYMR90~1\AppData\Local\Temp\ccScBURM.s:21570  .debug_str:0000000000009e5b .LASF281
C:\Users\CYMR90~1\AppData\Local\Temp\ccScBURM.s:20684  .debug_str:0000000000006473 .LASF282
C:\Users\CYMR90~1\AppData\Local\Temp\ccScBURM.s:20588  .debug_str:0000000000005e80 .LASF283
C:\Users\CYMR90~1\AppData\Local\Temp\ccScBURM.s:20352  .debug_str:000000000000503a .LASF284
C:\Users\CYMR90~1\AppData\Local\Temp\ccScBURM.s:28233  .debug_str:00000000000249d4 .LASF285
C:\Users\CYMR90~1\AppData\Local\Temp\ccScBURM.s:29049  .debug_str:0000000000027fd6 .LASF286
C:\Users\CYMR90~1\AppData\Local\Temp\ccScBURM.s:29321  .debug_str:000000000002918b .LASF287
C:\Users\CYMR90~1\AppData\Local\Temp\ccScBURM.s:29235  .debug_str:0000000000028c22 .LASF288
C:\Users\CYMR90~1\AppData\Local\Temp\ccScBURM.s:30071  .debug_str:000000000002c154 .LASF289
C:\Users\CYMR90~1\AppData\Local\Temp\ccScBURM.s:25071  .debug_str:00000000000180ed .LASF290
C:\Users\CYMR90~1\AppData\Local\Temp\ccScBURM.s:24120  .debug_str:0000000000014359 .LASF291
C:\Users\CYMR90~1\AppData\Local\Temp\ccScBURM.s:28269  .debug_str:0000000000024c2d .LASF292
C:\Users\CYMR90~1\AppData\Local\Temp\ccScBURM.s:20002  .debug_str:00000000000038e2 .LASF293
C:\Users\CYMR90~1\AppData\Local\Temp\ccScBURM.s:27227  .debug_str:0000000000020b97 .LASF294
C:\Users\CYMR90~1\AppData\Local\Temp\ccScBURM.s:20274  .debug_str:0000000000004b5f .LASF295
C:\Users\CYMR90~1\AppData\Local\Temp\ccScBURM.s:29663  .debug_str:000000000002a6fe .LASF296
C:\Users\CYMR90~1\AppData\Local\Temp\ccScBURM.s:29851  .debug_str:000000000002b259 .LASF297
C:\Users\CYMR90~1\AppData\Local\Temp\ccScBURM.s:24947  .debug_str:0000000000017997 .LASF298
C:\Users\CYMR90~1\AppData\Local\Temp\ccScBURM.s:19250  .debug_str:000000000000091f .LASF299
C:\Users\CYMR90~1\AppData\Local\Temp\ccScBURM.s:23014  .debug_str:000000000000fc33 .LASF300
C:\Users\CYMR90~1\AppData\Local\Temp\ccScBURM.s:25697  .debug_str:000000000001aaf6 .LASF301
C:\Users\CYMR90~1\AppData\Local\Temp\ccScBURM.s:24226  .debug_str:00000000000149f0 .LASF302
C:\Users\CYMR90~1\AppData\Local\Temp\ccScBURM.s:23712  .debug_str:0000000000012903 .LASF303
C:\Users\CYMR90~1\AppData\Local\Temp\ccScBURM.s:19638  .debug_str:00000000000020fb .LASF304
C:\Users\CYMR90~1\AppData\Local\Temp\ccScBURM.s:22178  .debug_str:000000000000c725 .LASF305
C:\Users\CYMR90~1\AppData\Local\Temp\ccScBURM.s:27431  .debug_str:000000000002181f .LASF306
C:\Users\CYMR90~1\AppData\Local\Temp\ccScBURM.s:23030  .debug_str:000000000000fd3c .LASF307
C:\Users\CYMR90~1\AppData\Local\Temp\ccScBURM.s:28253  .debug_str:0000000000024b18 .LASF308
C:\Users\CYMR90~1\AppData\Local\Temp\ccScBURM.s:27873  .debug_str:000000000002322b .LASF309
C:\Users\CYMR90~1\AppData\Local\Temp\ccScBURM.s:22582  .debug_str:000000000000e189 .LASF310
C:\Users\CYMR90~1\AppData\Local\Temp\ccScBURM.s:28571  .debug_str:00000000000260e4 .LASF311
C:\Users\CYMR90~1\AppData\Local\Temp\ccScBURM.s:28089  .debug_str:0000000000024001 .LASF312
C:\Users\CYMR90~1\AppData\Local\Temp\ccScBURM.s:22298  .debug_str:000000000000cf4a .LASF313
C:\Users\CYMR90~1\AppData\Local\Temp\ccScBURM.s:25213  .debug_str:00000000000189b2 .LASF315
C:\Users\CYMR90~1\AppData\Local\Temp\ccScBURM.s:25573  .debug_str:000000000001a163 .LASF316
C:\Users\CYMR90~1\AppData\Local\Temp\ccScBURM.s:25911  .debug_str:000000000001b8ab .LASF317
C:\Users\CYMR90~1\AppData\Local\Temp\ccScBURM.s:23022  .debug_str:000000000000fcd0 .LASF318
C:\Users\CYMR90~1\AppData\Local\Temp\ccScBURM.s:21930  .debug_str:000000000000b619 .LASF319
C:\Users\CYMR90~1\AppData\Local\Temp\ccScBURM.s:29283  .debug_str:0000000000028f56 .LASF320
C:\Users\CYMR90~1\AppData\Local\Temp\ccScBURM.s:22492  .debug_str:000000000000dc05 .LASF321
C:\Users\CYMR90~1\AppData\Local\Temp\ccScBURM.s:28521  .debug_str:0000000000025daa .LASF322
C:\Users\CYMR90~1\AppData\Local\Temp\ccScBURM.s:19134  .debug_str:0000000000000230 .LASF323
C:\Users\CYMR90~1\AppData\Local\Temp\ccScBURM.s:29685  .debug_str:000000000002a833 .LASF324
C:\Users\CYMR90~1\AppData\Local\Temp\ccScBURM.s:20058  .debug_str:0000000000003c49 .LASF325
C:\Users\CYMR90~1\AppData\Local\Temp\ccScBURM.s:24056  .debug_str:0000000000013f4a .LASF326
C:\Users\CYMR90~1\AppData\Local\Temp\ccScBURM.s:23714  .debug_str:0000000000012918 .LASF327
C:\Users\CYMR90~1\AppData\Local\Temp\ccScBURM.s:26563  .debug_str:000000000001e2db .LASF328
C:\Users\CYMR90~1\AppData\Local\Temp\ccScBURM.s:26555  .debug_str:000000000001e28a .LASF329
C:\Users\CYMR90~1\AppData\Local\Temp\ccScBURM.s:28715  .debug_str:00000000000269bf .LASF330
C:\Users\CYMR90~1\AppData\Local\Temp\ccScBURM.s:29263  .debug_str:0000000000028e04 .LASF331
C:\Users\CYMR90~1\AppData\Local\Temp\ccScBURM.s:29445  .debug_str:00000000000299ca .LASF332
C:\Users\CYMR90~1\AppData\Local\Temp\ccScBURM.s:25547  .debug_str:0000000000019fe8 .LASF333
C:\Users\CYMR90~1\AppData\Local\Temp\ccScBURM.s:24993  .debug_str:0000000000017c4b .LASF334
C:\Users\CYMR90~1\AppData\Local\Temp\ccScBURM.s:29303  .debug_str:000000000002909f .LASF335
C:\Users\CYMR90~1\AppData\Local\Temp\ccScBURM.s:23638  .debug_str:0000000000012419 .LASF336
C:\Users\CYMR90~1\AppData\Local\Temp\ccScBURM.s:27281  .debug_str:0000000000020ea3 .LASF337
C:\Users\CYMR90~1\AppData\Local\Temp\ccScBURM.s:21682  .debug_str:000000000000a59f .LASF338
C:\Users\CYMR90~1\AppData\Local\Temp\ccScBURM.s:23850  .debug_str:0000000000013221 .LASF339
C:\Users\CYMR90~1\AppData\Local\Temp\ccScBURM.s:25747  .debug_str:000000000001ae08 .LASF340
C:\Users\CYMR90~1\AppData\Local\Temp\ccScBURM.s:21992  .debug_str:000000000000ba46 .LASF341
C:\Users\CYMR90~1\AppData\Local\Temp\ccScBURM.s:19384  .debug_str:00000000000011d2 .LASF342
C:\Users\CYMR90~1\AppData\Local\Temp\ccScBURM.s:29413  .debug_str:00000000000297e5 .LASF343
C:\Users\CYMR90~1\AppData\Local\Temp\ccScBURM.s:30011  .debug_str:000000000002bd2b .LASF344
C:\Users\CYMR90~1\AppData\Local\Temp\ccScBURM.s:22902  .debug_str:000000000000f509 .LASF345
C:\Users\CYMR90~1\AppData\Local\Temp\ccScBURM.s:19238  .debug_str:0000000000000868 .LASF346
C:\Users\CYMR90~1\AppData\Local\Temp\ccScBURM.s:27077  .debug_str:00000000000201d5 .LASF347
C:\Users\CYMR90~1\AppData\Local\Temp\ccScBURM.s:29027  .debug_str:0000000000027e0e .LASF348
C:\Users\CYMR90~1\AppData\Local\Temp\ccScBURM.s:26557  .debug_str:000000000001e296 .LASF349
C:\Users\CYMR90~1\AppData\Local\Temp\ccScBURM.s:19172  .debug_str:0000000000000487 .LASF350
C:\Users\CYMR90~1\AppData\Local\Temp\ccScBURM.s:26849  .debug_str:000000000001f443 .LASF351
C:\Users\CYMR90~1\AppData\Local\Temp\ccScBURM.s:28513  .debug_str:0000000000025d40 .LASF352
C:\Users\CYMR90~1\AppData\Local\Temp\ccScBURM.s:26181  .debug_str:000000000001c9fa .LASF353
C:\Users\CYMR90~1\AppData\Local\Temp\ccScBURM.s:26349  .debug_str:000000000001d55c .LASF354
C:\Users\CYMR90~1\AppData\Local\Temp\ccScBURM.s:22380  .debug_str:000000000000d562 .LASF355
C:\Users\CYMR90~1\AppData\Local\Temp\ccScBURM.s:25503  .debug_str:0000000000019d72 .LASF356
C:\Users\CYMR90~1\AppData\Local\Temp\ccScBURM.s:28937  .debug_str:00000000000277ce .LASF357
C:\Users\CYMR90~1\AppData\Local\Temp\ccScBURM.s:23704  .debug_str:0000000000012858 .LASF358
C:\Users\CYMR90~1\AppData\Local\Temp\ccScBURM.s:21778  .debug_str:000000000000ab90 .LASF359
C:\Users\CYMR90~1\AppData\Local\Temp\ccScBURM.s:26729  .debug_str:000000000001ecb9 .LASF360
C:\Users\CYMR90~1\AppData\Local\Temp\ccScBURM.s:23446  .debug_str:00000000000116f6 .LASF361
C:\Users\CYMR90~1\AppData\Local\Temp\ccScBURM.s:29203  .debug_str:0000000000028a60 .LASF362
C:\Users\CYMR90~1\AppData\Local\Temp\ccScBURM.s:21334  .debug_str:0000000000008fbf .LASF363
C:\Users\CYMR90~1\AppData\Local\Temp\ccScBURM.s:29099  .debug_str:000000000002837a .LASF364
C:\Users\CYMR90~1\AppData\Local\Temp\ccScBURM.s:20752  .debug_str:00000000000068c5 .LASF365
C:\Users\CYMR90~1\AppData\Local\Temp\ccScBURM.s:23840  .debug_str:000000000001315d .LASF366
C:\Users\CYMR90~1\AppData\Local\Temp\ccScBURM.s:21030  .debug_str:0000000000007b21 .LASF367
C:\Users\CYMR90~1\AppData\Local\Temp\ccScBURM.s:25039  .debug_str:0000000000017f10 .LASF371
C:\Users\CYMR90~1\AppData\Local\Temp\ccScBURM.s:28755  .debug_str:0000000000026c38 .LASF372
C:\Users\CYMR90~1\AppData\Local\Temp\ccScBURM.s:21760  .debug_str:000000000000aa5e .LASF373
C:\Users\CYMR90~1\AppData\Local\Temp\ccScBURM.s:24825  .debug_str:00000000000171db .LASF374
C:\Users\CYMR90~1\AppData\Local\Temp\ccScBURM.s:25025  .debug_str:0000000000017e48 .LASF375
C:\Users\CYMR90~1\AppData\Local\Temp\ccScBURM.s:27525  .debug_str:0000000000021df9 .LASF376
C:\Users\CYMR90~1\AppData\Local\Temp\ccScBURM.s:26197  .debug_str:000000000001cac5 .LASF377
C:\Users\CYMR90~1\AppData\Local\Temp\ccScBURM.s:29843  .debug_str:000000000002b1e6 .LASF378
C:\Users\CYMR90~1\AppData\Local\Temp\ccScBURM.s:19732  .debug_str:00000000000026cd .LASF379
C:\Users\CYMR90~1\AppData\Local\Temp\ccScBURM.s:29785  .debug_str:000000000002ae18 .LASF380
C:\Users\CYMR90~1\AppData\Local\Temp\ccScBURM.s:25919  .debug_str:000000000001b8fc .LASF381
C:\Users\CYMR90~1\AppData\Local\Temp\ccScBURM.s:20808  .debug_str:0000000000006c0c .LASF382
C:\Users\CYMR90~1\AppData\Local\Temp\ccScBURM.s:22148  .debug_str:000000000000c51f .LASF383
C:\Users\CYMR90~1\AppData\Local\Temp\ccScBURM.s:25441  .debug_str:00000000000199b1 .LASF384
C:\Users\CYMR90~1\AppData\Local\Temp\ccScBURM.s:23136  .debug_str:00000000000103f4 .LASF385
C:\Users\CYMR90~1\AppData\Local\Temp\ccScBURM.s:19664  .debug_str:000000000000229a .LASF386
C:\Users\CYMR90~1\AppData\Local\Temp\ccScBURM.s:22746  .debug_str:000000000000ebc9 .LASF387
C:\Users\CYMR90~1\AppData\Local\Temp\ccScBURM.s:21304  .debug_str:0000000000008dc9 .LASF388
C:\Users\CYMR90~1\AppData\Local\Temp\ccScBURM.s:20146  .debug_str:0000000000004283 .LASF390
C:\Users\CYMR90~1\AppData\Local\Temp\ccScBURM.s:28039  .debug_str:0000000000023c40 .LASF391
C:\Users\CYMR90~1\AppData\Local\Temp\ccScBURM.s:27177  .debug_str:000000000002087b .LASF392
C:\Users\CYMR90~1\AppData\Local\Temp\ccScBURM.s:28893  .debug_str:0000000000027510 .LASF393
C:\Users\CYMR90~1\AppData\Local\Temp\ccScBURM.s:19690  .debug_str:00000000000023f8 .LASF394
C:\Users\CYMR90~1\AppData\Local\Temp\ccScBURM.s:21804  .debug_str:000000000000ad0c .LASF395
C:\Users\CYMR90~1\AppData\Local\Temp\ccScBURM.s:25553  .debug_str:000000000001a048 .LASF396
C:\Users\CYMR90~1\AppData\Local\Temp\ccScBURM.s:29661  .debug_str:000000000002a6ec .LASF397
C:\Users\CYMR90~1\AppData\Local\Temp\ccScBURM.s:24392  .debug_str:0000000000015483 .LASF398
C:\Users\CYMR90~1\AppData\Local\Temp\ccScBURM.s:26809  .debug_str:000000000001f1bc .LASF399
C:\Users\CYMR90~1\AppData\Local\Temp\ccScBURM.s:21294  .debug_str:0000000000008cd4 .LASF400
C:\Users\CYMR90~1\AppData\Local\Temp\ccScBURM.s:24881  .debug_str:000000000001753e .LASF401
C:\Users\CYMR90~1\AppData\Local\Temp\ccScBURM.s:20652  .debug_str:0000000000006272 .LASF402
C:\Users\CYMR90~1\AppData\Local\Temp\ccScBURM.s:21736  .debug_str:000000000000a8d2 .LASF403
C:\Users\CYMR90~1\AppData\Local\Temp\ccScBURM.s:22802  .debug_str:000000000000eefa .LASF404
C:\Users\CYMR90~1\AppData\Local\Temp\ccScBURM.s:26105  .debug_str:000000000001c473 .LASF405
C:\Users\CYMR90~1\AppData\Local\Temp\ccScBURM.s:24320  .debug_str:000000000001505c .LASF406
C:\Users\CYMR90~1\AppData\Local\Temp\ccScBURM.s:25287  .debug_str:0000000000018eb8 .LASF407
C:\Users\CYMR90~1\AppData\Local\Temp\ccScBURM.s:27473  .debug_str:0000000000021aa6 .LASF408
C:\Users\CYMR90~1\AppData\Local\Temp\ccScBURM.s:20606  .debug_str:0000000000005f8d .LASF409
C:\Users\CYMR90~1\AppData\Local\Temp\ccScBURM.s:24500  .debug_str:0000000000015ab3 .LASF410
C:\Users\CYMR90~1\AppData\Local\Temp\ccScBURM.s:27595  .debug_str:000000000002221a .LASF411
C:\Users\CYMR90~1\AppData\Local\Temp\ccScBURM.s:20784  .debug_str:0000000000006aa6 .LASF412
C:\Users\CYMR90~1\AppData\Local\Temp\ccScBURM.s:29297  .debug_str:0000000000029038 .LASF413
C:\Users\CYMR90~1\AppData\Local\Temp\ccScBURM.s:22904  .debug_str:000000000000f517 .LASF414
C:\Users\CYMR90~1\AppData\Local\Temp\ccScBURM.s:28631  .debug_str:000000000002649e .LASF415
C:\Users\CYMR90~1\AppData\Local\Temp\ccScBURM.s:30135  .debug_str:000000000002c5ab .LASF416
C:\Users\CYMR90~1\AppData\Local\Temp\ccScBURM.s:21224  .debug_str:0000000000008883 .LASF417
C:\Users\CYMR90~1\AppData\Local\Temp\ccScBURM.s:29509  .debug_str:0000000000029d84 .LASF418
C:\Users\CYMR90~1\AppData\Local\Temp\ccScBURM.s:20852  .debug_str:0000000000006f16 .LASF419
C:\Users\CYMR90~1\AppData\Local\Temp\ccScBURM.s:29705  .debug_str:000000000002a949 .LASF420
C:\Users\CYMR90~1\AppData\Local\Temp\ccScBURM.s:22074  .debug_str:000000000000c0bb .LASF421
C:\Users\CYMR90~1\AppData\Local\Temp\ccScBURM.s:22276  .debug_str:000000000000ce20 .LASF422
C:\Users\CYMR90~1\AppData\Local\Temp\ccScBURM.s:26709  .debug_str:000000000001eb93 .LASF423
C:\Users\CYMR90~1\AppData\Local\Temp\ccScBURM.s:25325  .debug_str:00000000000191e3 .LASF424
C:\Users\CYMR90~1\AppData\Local\Temp\ccScBURM.s:19146  .debug_str:00000000000002f9 .LASF425
C:\Users\CYMR90~1\AppData\Local\Temp\ccScBURM.s:29209  .debug_str:0000000000028abd .LASF426
C:\Users\CYMR90~1\AppData\Local\Temp\ccScBURM.s:24584  .debug_str:000000000001609c .LASF427
C:\Users\CYMR90~1\AppData\Local\Temp\ccScBURM.s:26487  .debug_str:000000000001de97 .LASF428
C:\Users\CYMR90~1\AppData\Local\Temp\ccScBURM.s:23084  .debug_str:00000000000100b4 .LASF429
C:\Users\CYMR90~1\AppData\Local\Temp\ccScBURM.s:24779  .debug_str:0000000000016f32 .LASF430
C:\Users\CYMR90~1\AppData\Local\Temp\ccScBURM.s:27547  .debug_str:0000000000021f23 .LASF431
C:\Users\CYMR90~1\AppData\Local\Temp\ccScBURM.s:22260  .debug_str:000000000000cd40 .LASF433
C:\Users\CYMR90~1\AppData\Local\Temp\ccScBURM.s:20328  .debug_str:0000000000004eb9 .LASF434
C:\Users\CYMR90~1\AppData\Local\Temp\ccScBURM.s:24967  .debug_str:0000000000017ac6 .LASF435
C:\Users\CYMR90~1\AppData\Local\Temp\ccScBURM.s:20870  .debug_str:000000000000703f .LASF436
C:\Users\CYMR90~1\AppData\Local\Temp\ccScBURM.s:29225  .debug_str:0000000000028b8d .LASF437
C:\Users\CYMR90~1\AppData\Local\Temp\ccScBURM.s:19110  .debug_str:00000000000000c7 .LASF438
C:\Users\CYMR90~1\AppData\Local\Temp\ccScBURM.s:26745  .debug_str:000000000001edba .LASF439
C:\Users\CYMR90~1\AppData\Local\Temp\ccScBURM.s:22500  .debug_str:000000000000dc6a .LASF440
C:\Users\CYMR90~1\AppData\Local\Temp\ccScBURM.s:27779  .debug_str:0000000000022cff .LASF441
C:\Users\CYMR90~1\AppData\Local\Temp\ccScBURM.s:23376  .debug_str:000000000001128c .LASF442
C:\Users\CYMR90~1\AppData\Local\Temp\ccScBURM.s:23214  .debug_str:0000000000010875 .LASF443
C:\Users\CYMR90~1\AppData\Local\Temp\ccScBURM.s:30129  .debug_str:000000000002c55f .LASF444
C:\Users\CYMR90~1\AppData\Local\Temp\ccScBURM.s:30069  .debug_str:000000000002c14e .LASF445
C:\Users\CYMR90~1\AppData\Local\Temp\ccScBURM.s:23562  .debug_str:0000000000011f2e .LASF446
C:\Users\CYMR90~1\AppData\Local\Temp\ccScBURM.s:27753  .debug_str:0000000000022b83 .LASF447
C:\Users\CYMR90~1\AppData\Local\Temp\ccScBURM.s:27249  .debug_str:0000000000020cfd .LASF448
C:\Users\CYMR90~1\AppData\Local\Temp\ccScBURM.s:20890  .debug_str:00000000000071a8 .LASF449
C:\Users\CYMR90~1\AppData\Local\Temp\ccScBURM.s:19620  .debug_str:000000000000201f .LASF450
C:\Users\CYMR90~1\AppData\Local\Temp\ccScBURM.s:24234  .debug_str:0000000000014a92 .LASF451
C:\Users\CYMR90~1\AppData\Local\Temp\ccScBURM.s:19610  .debug_str:0000000000001fac .LASF452
C:\Users\CYMR90~1\AppData\Local\Temp\ccScBURM.s:30075  .debug_str:000000000002c194 .LASF453
C:\Users\CYMR90~1\AppData\Local\Temp\ccScBURM.s:22668  .debug_str:000000000000e694 .LASF454
C:\Users\CYMR90~1\AppData\Local\Temp\ccScBURM.s:27375  .debug_str:00000000000214a1 .LASF455
C:\Users\CYMR90~1\AppData\Local\Temp\ccScBURM.s:22352  .debug_str:000000000000d31c .LASF456
C:\Users\CYMR90~1\AppData\Local\Temp\ccScBURM.s:20664  .debug_str:000000000000631f .LASF457
C:\Users\CYMR90~1\AppData\Local\Temp\ccScBURM.s:23280  .debug_str:0000000000010d3f .LASF458
C:\Users\CYMR90~1\AppData\Local\Temp\ccScBURM.s:27131  .debug_str:00000000000205bf .LASF459
C:\Users\CYMR90~1\AppData\Local\Temp\ccScBURM.s:28257  .debug_str:0000000000024b4e .LASF460
C:\Users\CYMR90~1\AppData\Local\Temp\ccScBURM.s:24742  .debug_str:0000000000016b2e .LASF461
C:\Users\CYMR90~1\AppData\Local\Temp\ccScBURM.s:25603  .debug_str:000000000001a4bf .LASF462
C:\Users\CYMR90~1\AppData\Local\Temp\ccScBURM.s:22516  .debug_str:000000000000dd36 .LASF463
C:\Users\CYMR90~1\AppData\Local\Temp\ccScBURM.s:23650  .debug_str:00000000000124e3 .LASF464
C:\Users\CYMR90~1\AppData\Local\Temp\ccScBURM.s:20802  .debug_str:0000000000006bc6 .LASF465
C:\Users\CYMR90~1\AppData\Local\Temp\ccScBURM.s:21352  .debug_str:00000000000090a2 .LASF466
C:\Users\CYMR90~1\AppData\Local\Temp\ccScBURM.s:23420  .debug_str:0000000000011544 .LASF467
C:\Users\CYMR90~1\AppData\Local\Temp\ccScBURM.s:19956  .debug_str:00000000000035c8 .LASF468
C:\Users\CYMR90~1\AppData\Local\Temp\ccScBURM.s:23178  .debug_str:000000000001063f .LASF469
C:\Users\CYMR90~1\AppData\Local\Temp\ccScBURM.s:23062  .debug_str:000000000000ff46 .LASF470
C:\Users\CYMR90~1\AppData\Local\Temp\ccScBURM.s:22642  .debug_str:000000000000e508 .LASF471
C:\Users\CYMR90~1\AppData\Local\Temp\ccScBURM.s:19322  .debug_str:0000000000000da1 .LASF472
C:\Users\CYMR90~1\AppData\Local\Temp\ccScBURM.s:20916  .debug_str:00000000000073a9 .LASF473
C:\Users\CYMR90~1\AppData\Local\Temp\ccScBURM.s:19268  .debug_str:0000000000000a63 .LASF474
C:\Users\CYMR90~1\AppData\Local\Temp\ccScBURM.s:20124  .debug_str:0000000000004099 .LASF475
C:\Users\CYMR90~1\AppData\Local\Temp\ccScBURM.s:19490  .debug_str:0000000000001892 .LASF476
C:\Users\CYMR90~1\AppData\Local\Temp\ccScBURM.s:24528  .debug_str:0000000000015cbf .LASF477
C:\Users\CYMR90~1\AppData\Local\Temp\ccScBURM.s:21948  .debug_str:000000000000b77d .LASF478
C:\Users\CYMR90~1\AppData\Local\Temp\ccScBURM.s:29701  .debug_str:000000000002a919 .LASF479
C:\Users\CYMR90~1\AppData\Local\Temp\ccScBURM.s:25121  .debug_str:00000000000183e0 .LASF480
C:\Users\CYMR90~1\AppData\Local\Temp\ccScBURM.s:21870  .debug_str:000000000000b206 .LASF481
C:\Users\CYMR90~1\AppData\Local\Temp\ccScBURM.s:20702  .debug_str:000000000000656f .LASF482
C:\Users\CYMR90~1\AppData\Local\Temp\ccScBURM.s:19234  .debug_str:0000000000000821 .LASF483
C:\Users\CYMR90~1\AppData\Local\Temp\ccScBURM.s:25069  .debug_str:00000000000180ca .LASF484
C:\Users\CYMR90~1\AppData\Local\Temp\ccScBURM.s:20338  .debug_str:0000000000004f57 .LASF485
C:\Users\CYMR90~1\AppData\Local\Temp\ccScBURM.s:23998  .debug_str:0000000000013beb .LASF486
C:\Users\CYMR90~1\AppData\Local\Temp\ccScBURM.s:23202  .debug_str:00000000000107d1 .LASF487
C:\Users\CYMR90~1\AppData\Local\Temp\ccScBURM.s:23768  .debug_str:0000000000012ca8 .LASF488
C:\Users\CYMR90~1\AppData\Local\Temp\ccScBURM.s:22234  .debug_str:000000000000cbff .LASF489
C:\Users\CYMR90~1\AppData\Local\Temp\ccScBURM.s:21222  .debug_str:0000000000008875 .LASF490
C:\Users\CYMR90~1\AppData\Local\Temp\ccScBURM.s:22862  .debug_str:000000000000f288 .LASF491
C:\Users\CYMR90~1\AppData\Local\Temp\ccScBURM.s:23168  .debug_str:00000000000105c3 .LASF492
C:\Users\CYMR90~1\AppData\Local\Temp\ccScBURM.s:23068  .debug_str:000000000000ffba .LASF493
C:\Users\CYMR90~1\AppData\Local\Temp\ccScBURM.s:25315  .debug_str:0000000000019148 .LASF494
C:\Users\CYMR90~1\AppData\Local\Temp\ccScBURM.s:30153  .debug_str:000000000002c6b8 .LASF495
C:\Users\CYMR90~1\AppData\Local\Temp\ccScBURM.s:30091  .debug_str:000000000002c2ee .LASF496
C:\Users\CYMR90~1\AppData\Local\Temp\ccScBURM.s:22908  .debug_str:000000000000f55e .LASF497
C:\Users\CYMR90~1\AppData\Local\Temp\ccScBURM.s:29319  .debug_str:0000000000029166 .LASF498
C:\Users\CYMR90~1\AppData\Local\Temp\ccScBURM.s:29417  .debug_str:0000000000029808 .LASF499
C:\Users\CYMR90~1\AppData\Local\Temp\ccScBURM.s:24198  .debug_str:0000000000014858 .LASF500
C:\Users\CYMR90~1\AppData\Local\Temp\ccScBURM.s:29373  .debug_str:000000000002957a .LASF501
C:\Users\CYMR90~1\AppData\Local\Temp\ccScBURM.s:24148  .debug_str:00000000000144d9 .LASF502
C:\Users\CYMR90~1\AppData\Local\Temp\ccScBURM.s:19818  .debug_str:0000000000002c7a .LASF503
C:\Users\CYMR90~1\AppData\Local\Temp\ccScBURM.s:28029  .debug_str:0000000000023b7b .LASF504
C:\Users\CYMR90~1\AppData\Local\Temp\ccScBURM.s:28889  .debug_str:00000000000274d5 .LASF505
C:\Users\CYMR90~1\AppData\Local\Temp\ccScBURM.s:28467  .debug_str:0000000000025a6b .LASF506
C:\Users\CYMR90~1\AppData\Local\Temp\ccScBURM.s:25235  .debug_str:0000000000018b0b .LASF507
C:\Users\CYMR90~1\AppData\Local\Temp\ccScBURM.s:27463  .debug_str:00000000000219cb .LASF508
C:\Users\CYMR90~1\AppData\Local\Temp\ccScBURM.s:29119  .debug_str:00000000000284de .LASF509
C:\Users\CYMR90~1\AppData\Local\Temp\ccScBURM.s:25011  .debug_str:0000000000017d3d .LASF510
C:\Users\CYMR90~1\AppData\Local\Temp\ccScBURM.s:28743  .debug_str:0000000000026b43 .LASF511
C:\Users\CYMR90~1\AppData\Local\Temp\ccScBURM.s:28861  .debug_str:000000000002734d .LASF512
C:\Users\CYMR90~1\AppData\Local\Temp\ccScBURM.s:29301  .debug_str:0000000000029064 .LASF513
C:\Users\CYMR90~1\AppData\Local\Temp\ccScBURM.s:23930  .debug_str:00000000000137c7 .LASF514
C:\Users\CYMR90~1\AppData\Local\Temp\ccScBURM.s:29177  .debug_str:00000000000288da .LASF515
C:\Users\CYMR90~1\AppData\Local\Temp\ccScBURM.s:25381  .debug_str:0000000000019538 .LASF516
C:\Users\CYMR90~1\AppData\Local\Temp\ccScBURM.s:29127  .debug_str:0000000000028592 .LASF517
C:\Users\CYMR90~1\AppData\Local\Temp\ccScBURM.s:26027  .debug_str:000000000001bfdf .LASF518
C:\Users\CYMR90~1\AppData\Local\Temp\ccScBURM.s:30063  .debug_str:000000000002c0ec .LASF519
C:\Users\CYMR90~1\AppData\Local\Temp\ccScBURM.s:26293  .debug_str:000000000001d1f9 .LASF520
C:\Users\CYMR90~1\AppData\Local\Temp\ccScBURM.s:28377  .debug_str:00000000000253f7 .LASF521
C:\Users\CYMR90~1\AppData\Local\Temp\ccScBURM.s:23812  .debug_str:0000000000012f75 .LASF522
C:\Users\CYMR90~1\AppData\Local\Temp\ccScBURM.s:27943  .debug_str:00000000000236bb .LASF523
C:\Users\CYMR90~1\AppData\Local\Temp\ccScBURM.s:21434  .debug_str:0000000000009567 .LASF524
C:\Users\CYMR90~1\AppData\Local\Temp\ccScBURM.s:30083  .debug_str:000000000002c202 .LASF525
C:\Users\CYMR90~1\AppData\Local\Temp\ccScBURM.s:22676  .debug_str:000000000000e712 .LASF526
C:\Users\CYMR90~1\AppData\Local\Temp\ccScBURM.s:23674  .debug_str:000000000001265e .LASF527
C:\Users\CYMR90~1\AppData\Local\Temp\ccScBURM.s:24506  .debug_str:0000000000015b17 .LASF528
C:\Users\CYMR90~1\AppData\Local\Temp\ccScBURM.s:24540  .debug_str:0000000000015d6c .LASF529
C:\Users\CYMR90~1\AppData\Local\Temp\ccScBURM.s:23600  .debug_str:00000000000121c7 .LASF530
C:\Users\CYMR90~1\AppData\Local\Temp\ccScBURM.s:19880  .debug_str:0000000000003054 .LASF531
C:\Users\CYMR90~1\AppData\Local\Temp\ccScBURM.s:22358  .debug_str:000000000000d356 .LASF532
C:\Users\CYMR90~1\AppData\Local\Temp\ccScBURM.s:29923  .debug_str:000000000002b71d .LASF533
C:\Users\CYMR90~1\AppData\Local\Temp\ccScBURM.s:22860  .debug_str:000000000000f23c .LASF534
C:\Users\CYMR90~1\AppData\Local\Temp\ccScBURM.s:28123  .debug_str:000000000002427c .LASF535
C:\Users\CYMR90~1\AppData\Local\Temp\ccScBURM.s:29575  .debug_str:000000000002a154 .LASF536
C:\Users\CYMR90~1\AppData\Local\Temp\ccScBURM.s:23436  .debug_str:000000000001163d .LASF537
C:\Users\CYMR90~1\AppData\Local\Temp\ccScBURM.s:28299  .debug_str:0000000000024e0a .LASF538
C:\Users\CYMR90~1\AppData\Local\Temp\ccScBURM.s:26087  .debug_str:000000000001c382 .LASF539
C:\Users\CYMR90~1\AppData\Local\Temp\ccScBURM.s:22452  .debug_str:000000000000d9be .LASF540
C:\Users\CYMR90~1\AppData\Local\Temp\ccScBURM.s:26381  .debug_str:000000000001d76f .LASF541
C:\Users\CYMR90~1\AppData\Local\Temp\ccScBURM.s:20228  .debug_str:00000000000047d7 .LASF542
C:\Users\CYMR90~1\AppData\Local\Temp\ccScBURM.s:22610  .debug_str:000000000000e310 .LASF543
C:\Users\CYMR90~1\AppData\Local\Temp\ccScBURM.s:29359  .debug_str:000000000002948d .LASF544
C:\Users\CYMR90~1\AppData\Local\Temp\ccScBURM.s:23940  .debug_str:0000000000013856 .LASF545
C:\Users\CYMR90~1\AppData\Local\Temp\ccScBURM.s:27649  .debug_str:00000000000224fc .LASF546
C:\Users\CYMR90~1\AppData\Local\Temp\ccScBURM.s:29839  .debug_str:000000000002b1a5 .LASF547
C:\Users\CYMR90~1\AppData\Local\Temp\ccScBURM.s:19928  .debug_str:00000000000033e0 .LASF548
C:\Users\CYMR90~1\AppData\Local\Temp\ccScBURM.s:21058  .debug_str:0000000000007cb4 .LASF549
C:\Users\CYMR90~1\AppData\Local\Temp\ccScBURM.s:28639  .debug_str:0000000000026501 .LASF550
C:\Users\CYMR90~1\AppData\Local\Temp\ccScBURM.s:20632  .debug_str:0000000000006128 .LASF551
C:\Users\CYMR90~1\AppData\Local\Temp\ccScBURM.s:29593  .debug_str:000000000002a250 .LASF552
C:\Users\CYMR90~1\AppData\Local\Temp\ccScBURM.s:19894  .debug_str:000000000000315e .LASF553
C:\Users\CYMR90~1\AppData\Local\Temp\ccScBURM.s:22210  .debug_str:000000000000c983 .LASF554
C:\Users\CYMR90~1\AppData\Local\Temp\ccScBURM.s:20750  .debug_str:0000000000006872 .LASF555
C:\Users\CYMR90~1\AppData\Local\Temp\ccScBURM.s:20464  .debug_str:00000000000056c1 .LASF556
C:\Users\CYMR90~1\AppData\Local\Temp\ccScBURM.s:23548  .debug_str:0000000000011e53 .LASF557
C:\Users\CYMR90~1\AppData\Local\Temp\ccScBURM.s:25261  .debug_str:0000000000018d2c .LASF558
C:\Users\CYMR90~1\AppData\Local\Temp\ccScBURM.s:29167  .debug_str:0000000000028832 .LASF559
C:\Users\CYMR90~1\AppData\Local\Temp\ccScBURM.s:22018  .debug_str:000000000000bbb2 .LASF560
C:\Users\CYMR90~1\AppData\Local\Temp\ccScBURM.s:23020  .debug_str:000000000000fc85 .LASF561
C:\Users\CYMR90~1\AppData\Local\Temp\ccScBURM.s:22400  .debug_str:000000000000d688 .LASF562
C:\Users\CYMR90~1\AppData\Local\Temp\ccScBURM.s:21720  .debug_str:000000000000a7bd .LASF563
C:\Users\CYMR90~1\AppData\Local\Temp\ccScBURM.s:27401  .debug_str:0000000000021617 .LASF564
C:\Users\CYMR90~1\AppData\Local\Temp\ccScBURM.s:26625  .debug_str:000000000001e67c .LASF565
C:\Users\CYMR90~1\AppData\Local\Temp\ccScBURM.s:23544  .debug_str:0000000000011e0b .LASF566
C:\Users\CYMR90~1\AppData\Local\Temp\ccScBURM.s:20634  .debug_str:000000000000613c .LASF567
C:\Users\CYMR90~1\AppData\Local\Temp\ccScBURM.s:19294  .debug_str:0000000000000c2d .LASF569
C:\Users\CYMR90~1\AppData\Local\Temp\ccScBURM.s:24895  .debug_str:000000000001760b .LASF570
C:\Users\CYMR90~1\AppData\Local\Temp\ccScBURM.s:26023  .debug_str:000000000001bfb9 .LASF573
C:\Users\CYMR90~1\AppData\Local\Temp\ccScBURM.s:20198  .debug_str:00000000000045db .LASF574
C:\Users\CYMR90~1\AppData\Local\Temp\ccScBURM.s:24154  .debug_str:0000000000014563 .LASF575
C:\Users\CYMR90~1\AppData\Local\Temp\ccScBURM.s:21152  .debug_str:000000000000842f .LASF576
C:\Users\CYMR90~1\AppData\Local\Temp\ccScBURM.s:27303  .debug_str:0000000000020fc3 .LASF578
C:\Users\CYMR90~1\AppData\Local\Temp\ccScBURM.s:26499  .debug_str:000000000001df50 .LASF579
C:\Users\CYMR90~1\AppData\Local\Temp\ccScBURM.s:28027  .debug_str:0000000000023b72 .LASF580
C:\Users\CYMR90~1\AppData\Local\Temp\ccScBURM.s:20590  .debug_str:0000000000005e97 .LASF581
C:\Users\CYMR90~1\AppData\Local\Temp\ccScBURM.s:23162  .debug_str:0000000000010559 .LASF582
C:\Users\CYMR90~1\AppData\Local\Temp\ccScBURM.s:19772  .debug_str:0000000000002997 .LASF583
C:\Users\CYMR90~1\AppData\Local\Temp\ccScBURM.s:29451  .debug_str:0000000000029a29 .LASF584
C:\Users\CYMR90~1\AppData\Local\Temp\ccScBURM.s:27693  .debug_str:00000000000227aa .LASF585
C:\Users\CYMR90~1\AppData\Local\Temp\ccScBURM.s:25907  .debug_str:000000000001b889 .LASF586
C:\Users\CYMR90~1\AppData\Local\Temp\ccScBURM.s:21718  .debug_str:000000000000a7ad .LASF587
C:\Users\CYMR90~1\AppData\Local\Temp\ccScBURM.s:25173  .debug_str:00000000000186e2 .LASF588
C:\Users\CYMR90~1\AppData\Local\Temp\ccScBURM.s:25549  .debug_str:0000000000019ff1 .LASF589
C:\Users\CYMR90~1\AppData\Local\Temp\ccScBURM.s:26373  .debug_str:000000000001d703 .LASF590
C:\Users\CYMR90~1\AppData\Local\Temp\ccScBURM.s:26163  .debug_str:000000000001c8cd .LASF591
C:\Users\CYMR90~1\AppData\Local\Temp\ccScBURM.s:28015  .debug_str:0000000000023acf .LASF592
C:\Users\CYMR90~1\AppData\Local\Temp\ccScBURM.s:23126  .debug_str:000000000001035a .LASF593
C:\Users\CYMR90~1\AppData\Local\Temp\ccScBURM.s:23996  .debug_str:0000000000013bcb .LASF594
C:\Users\CYMR90~1\AppData\Local\Temp\ccScBURM.s:23728  .debug_str:0000000000012a03 .LASF595
C:\Users\CYMR90~1\AppData\Local\Temp\ccScBURM.s:20918  .debug_str:00000000000073c8 .LASF596
C:\Users\CYMR90~1\AppData\Local\Temp\ccScBURM.s:28987  .debug_str:0000000000027b89 .LASF597
C:\Users\CYMR90~1\AppData\Local\Temp\ccScBURM.s:23888  .debug_str:0000000000013519 .LASF598
C:\Users\CYMR90~1\AppData\Local\Temp\ccScBURM.s:26829  .debug_str:000000000001f2ed .LASF599
C:\Users\CYMR90~1\AppData\Local\Temp\ccScBURM.s:26095  .debug_str:000000000001c3ee .LASF600
C:\Users\CYMR90~1\AppData\Local\Temp\ccScBURM.s:28475  .debug_str:0000000000025afe .LASF601
C:\Users\CYMR90~1\AppData\Local\Temp\ccScBURM.s:29183  .debug_str:000000000002893c .LASF602
C:\Users\CYMR90~1\AppData\Local\Temp\ccScBURM.s:29075  .debug_str:00000000000281fd .LASF603
C:\Users\CYMR90~1\AppData\Local\Temp\ccScBURM.s:23838  .debug_str:0000000000013145 .LASF604
C:\Users\CYMR90~1\AppData\Local\Temp\ccScBURM.s:27833  .debug_str:0000000000022fdf .LASF605
C:\Users\CYMR90~1\AppData\Local\Temp\ccScBURM.s:21502  .debug_str:0000000000009a3e .LASF606
C:\Users\CYMR90~1\AppData\Local\Temp\ccScBURM.s:21014  .debug_str:00000000000079e1 .LASF607
C:\Users\CYMR90~1\AppData\Local\Temp\ccScBURM.s:21780  .debug_str:000000000000ab9e .LASF608
C:\Users\CYMR90~1\AppData\Local\Temp\ccScBURM.s:25943  .debug_str:000000000001ba4e .LASF609
C:\Users\CYMR90~1\AppData\Local\Temp\ccScBURM.s:20556  .debug_str:0000000000005c9e .LASF610
C:\Users\CYMR90~1\AppData\Local\Temp\ccScBURM.s:27619  .debug_str:0000000000022363 .LASF611
C:\Users\CYMR90~1\AppData\Local\Temp\ccScBURM.s:24374  .debug_str:0000000000015362 .LASF612
C:\Users\CYMR90~1\AppData\Local\Temp\ccScBURM.s:21078  .debug_str:0000000000007eae .LASF613
C:\Users\CYMR90~1\AppData\Local\Temp\ccScBURM.s:19196  .debug_str:00000000000005b8 .LASF614
C:\Users\CYMR90~1\AppData\Local\Temp\ccScBURM.s:24612  .debug_str:0000000000016221 .LASF615
C:\Users\CYMR90~1\AppData\Local\Temp\ccScBURM.s:25585  .debug_str:000000000001a21f .LASF616
C:\Users\CYMR90~1\AppData\Local\Temp\ccScBURM.s:24744  .debug_str:0000000000016b3d .LASF617
C:\Users\CYMR90~1\AppData\Local\Temp\ccScBURM.s:27701  .debug_str:000000000002280f .LASF618
C:\Users\CYMR90~1\AppData\Local\Temp\ccScBURM.s:22042  .debug_str:000000000000be9d .LASF619
C:\Users\CYMR90~1\AppData\Local\Temp\ccScBURM.s:20830  .debug_str:0000000000006da8 .LASF620
C:\Users\CYMR90~1\AppData\Local\Temp\ccScBURM.s:27893  .debug_str:000000000002334f .LASF621
C:\Users\CYMR90~1\AppData\Local\Temp\ccScBURM.s:27005  .debug_str:000000000001fdb2 .LASF622
C:\Users\CYMR90~1\AppData\Local\Temp\ccScBURM.s:28945  .debug_str:0000000000027850 .LASF623
C:\Users\CYMR90~1\AppData\Local\Temp\ccScBURM.s:29549  .debug_str:0000000000029ff1 .LASF624
C:\Users\CYMR90~1\AppData\Local\Temp\ccScBURM.s:24064  .debug_str:0000000000013fa6 .LASF625
C:\Users\CYMR90~1\AppData\Local\Temp\ccScBURM.s:29805  .debug_str:000000000002af1b .LASF626
C:\Users\CYMR90~1\AppData\Local\Temp\ccScBURM.s:24464  .debug_str:0000000000015881 .LASF627
C:\Users\CYMR90~1\AppData\Local\Temp\ccScBURM.s:27647  .debug_str:00000000000224c4 .LASF628
C:\Users\CYMR90~1\AppData\Local\Temp\ccScBURM.s:21230  .debug_str:00000000000088fa .LASF629
C:\Users\CYMR90~1\AppData\Local\Temp\ccScBURM.s:22438  .debug_str:000000000000d8d7 .LASF630
C:\Users\CYMR90~1\AppData\Local\Temp\ccScBURM.s:27609  .debug_str:00000000000222c3 .LASF631
C:\Users\CYMR90~1\AppData\Local\Temp\ccScBURM.s:22154  .debug_str:000000000000c580 .LASF632
C:\Users\CYMR90~1\AppData\Local\Temp\ccScBURM.s:19284  .debug_str:0000000000000b96 .LASF633
C:\Users\CYMR90~1\AppData\Local\Temp\ccScBURM.s:25493  .debug_str:0000000000019cce .LASF634
C:\Users\CYMR90~1\AppData\Local\Temp\ccScBURM.s:24666  .debug_str:00000000000165bc .LASF635
C:\Users\CYMR90~1\AppData\Local\Temp\ccScBURM.s:26263  .debug_str:000000000001d03f .LASF636
C:\Users\CYMR90~1\AppData\Local\Temp\ccScBURM.s:19994  .debug_str:000000000000383b .LASF637
C:\Users\CYMR90~1\AppData\Local\Temp\ccScBURM.s:23496  .debug_str:0000000000011b39 .LASF638
C:\Users\CYMR90~1\AppData\Local\Temp\ccScBURM.s:21090  .debug_str:0000000000007f56 .LASF639
C:\Users\CYMR90~1\AppData\Local\Temp\ccScBURM.s:23710  .debug_str:00000000000128c7 .LASF640
C:\Users\CYMR90~1\AppData\Local\Temp\ccScBURM.s:21938  .debug_str:000000000000b693 .LASF641
C:\Users\CYMR90~1\AppData\Local\Temp\ccScBURM.s:28925  .debug_str:00000000000276c6 .LASF642
C:\Users\CYMR90~1\AppData\Local\Temp\ccScBURM.s:22314  .debug_str:000000000000d07b .LASF643
C:\Users\CYMR90~1\AppData\Local\Temp\ccScBURM.s:20170  .debug_str:00000000000043d1 .LASF644
C:\Users\CYMR90~1\AppData\Local\Temp\ccScBURM.s:20976  .debug_str:0000000000007750 .LASF645
C:\Users\CYMR90~1\AppData\Local\Temp\ccScBURM.s:19920  .debug_str:000000000000335d .LASF646
C:\Users\CYMR90~1\AppData\Local\Temp\ccScBURM.s:20284  .debug_str:0000000000004be9 .LASF647
C:\Users\CYMR90~1\AppData\Local\Temp\ccScBURM.s:29449  .debug_str:00000000000299ea .LASF648
C:\Users\CYMR90~1\AppData\Local\Temp\ccScBURM.s:23416  .debug_str:00000000000114d1 .LASF649
C:\Users\CYMR90~1\AppData\Local\Temp\ccScBURM.s:29565  .debug_str:000000000002a0cb .LASF650
C:\Users\CYMR90~1\AppData\Local\Temp\ccScBURM.s:23028  .debug_str:000000000000fd22 .LASF651
C:\Users\CYMR90~1\AppData\Local\Temp\ccScBURM.s:19176  .debug_str:00000000000004a7 .LASF652
C:\Users\CYMR90~1\AppData\Local\Temp\ccScBURM.s:29789  .debug_str:000000000002ae43 .LASF653
C:\Users\CYMR90~1\AppData\Local\Temp\ccScBURM.s:21322  .debug_str:0000000000008f09 .LASF654
C:\Users\CYMR90~1\AppData\Local\Temp\ccScBURM.s:29003  .debug_str:0000000000027c81 .LASF655
C:\Users\CYMR90~1\AppData\Local\Temp\ccScBURM.s:19228  .debug_str:00000000000007df .LASF656
C:\Users\CYMR90~1\AppData\Local\Temp\ccScBURM.s:29615  .debug_str:000000000002a3d8 .LASF657
C:\Users\CYMR90~1\AppData\Local\Temp\ccScBURM.s:23806  .debug_str:0000000000012f27 .LASF658
C:\Users\CYMR90~1\AppData\Local\Temp\ccScBURM.s:26193  .debug_str:000000000001ca99 .LASF659
C:\Users\CYMR90~1\AppData\Local\Temp\ccScBURM.s:25487  .debug_str:0000000000019c8c .LASF660
C:\Users\CYMR90~1\AppData\Local\Temp\ccScBURM.s:26855  .debug_str:000000000001f48e .LASF661
C:\Users\CYMR90~1\AppData\Local\Temp\ccScBURM.s:28785  .debug_str:0000000000026e06 .LASF662
C:\Users\CYMR90~1\AppData\Local\Temp\ccScBURM.s:23394  .debug_str:0000000000011392 .LASF663
C:\Users\CYMR90~1\AppData\Local\Temp\ccScBURM.s:23386  .debug_str:0000000000011334 .LASF664
C:\Users\CYMR90~1\AppData\Local\Temp\ccScBURM.s:25269  .debug_str:0000000000018de5 .LASF665
C:\Users\CYMR90~1\AppData\Local\Temp\ccScBURM.s:20570  .debug_str:0000000000005d76 .LASF666
C:\Users\CYMR90~1\AppData\Local\Temp\ccScBURM.s:30279  .debug_str:000000000002cf4f .LASF667
C:\Users\CYMR90~1\AppData\Local\Temp\ccScBURM.s:20942  .debug_str:000000000000752e .LASF668
C:\Users\CYMR90~1\AppData\Local\Temp\ccScBURM.s:27495  .debug_str:0000000000021bf4 .LASF669
C:\Users\CYMR90~1\AppData\Local\Temp\ccScBURM.s:23788  .debug_str:0000000000012e04 .LASF670
C:\Users\CYMR90~1\AppData\Local\Temp\ccScBURM.s:26907  .debug_str:000000000001f769 .LASF671
C:\Users\CYMR90~1\AppData\Local\Temp\ccScBURM.s:27623  .debug_str:0000000000022394 .LASF672
C:\Users\CYMR90~1\AppData\Local\Temp\ccScBURM.s:19556  .debug_str:0000000000001c8a .LASF673
C:\Users\CYMR90~1\AppData\Local\Temp\ccScBURM.s:24450  .debug_str:00000000000157a2 .LASF675
C:\Users\CYMR90~1\AppData\Local\Temp\ccScBURM.s:28045  .debug_str:0000000000023c97 .LASF676
C:\Users\CYMR90~1\AppData\Local\Temp\ccScBURM.s:25505  .debug_str:0000000000019d7e .LASF677
C:\Users\CYMR90~1\AppData\Local\Temp\ccScBURM.s:28143  .debug_str:00000000000243fa .LASF678
C:\Users\CYMR90~1\AppData\Local\Temp\ccScBURM.s:26621  .debug_str:000000000001e650 .LASF679
C:\Users\CYMR90~1\AppData\Local\Temp\ccScBURM.s:29463  .debug_str:0000000000029ae7 .LASF680
C:\Users\CYMR90~1\AppData\Local\Temp\ccScBURM.s:20172  .debug_str:000000000000440f .LASF681
C:\Users\CYMR90~1\AppData\Local\Temp\ccScBURM.s:20096  .debug_str:0000000000003ead .LASF682
C:\Users\CYMR90~1\AppData\Local\Temp\ccScBURM.s:21460  .debug_str:0000000000009738 .LASF683
C:\Users\CYMR90~1\AppData\Local\Temp\ccScBURM.s:25947  .debug_str:000000000001ba7b .LASF684
C:\Users\CYMR90~1\AppData\Local\Temp\ccScBURM.s:27359  .debug_str:0000000000021399 .LASF685
C:\Users\CYMR90~1\AppData\Local\Temp\ccScBURM.s:24722  .debug_str:000000000001696e .LASF686
C:\Users\CYMR90~1\AppData\Local\Temp\ccScBURM.s:23316  .debug_str:0000000000010f10 .LASF687
C:\Users\CYMR90~1\AppData\Local\Temp\ccScBURM.s:19974  .debug_str:00000000000036c6 .LASF688
C:\Users\CYMR90~1\AppData\Local\Temp\ccScBURM.s:20836  .debug_str:0000000000006e27 .LASF689
C:\Users\CYMR90~1\AppData\Local\Temp\ccScBURM.s:23658  .debug_str:0000000000012557 .LASF690
C:\Users\CYMR90~1\AppData\Local\Temp\ccScBURM.s:24488  .debug_str:00000000000159eb .LASF691
C:\Users\CYMR90~1\AppData\Local\Temp\ccScBURM.s:20536  .debug_str:0000000000005b77 .LASF694
C:\Users\CYMR90~1\AppData\Local\Temp\ccScBURM.s:24893  .debug_str:00000000000175f4 .LASF695
C:\Users\CYMR90~1\AppData\Local\Temp\ccScBURM.s:22342  .debug_str:000000000000d254 .LASF696
C:\Users\CYMR90~1\AppData\Local\Temp\ccScBURM.s:25917  .debug_str:000000000001b8ea .LASF697
C:\Users\CYMR90~1\AppData\Local\Temp\ccScBURM.s:28083  .debug_str:0000000000023ec0 .LASF698
C:\Users\CYMR90~1\AppData\Local\Temp\ccScBURM.s:24230  .debug_str:0000000000014a0f .LASF701
C:\Users\CYMR90~1\AppData\Local\Temp\ccScBURM.s:21482  .debug_str:000000000000988f .LASF702
C:\Users\CYMR90~1\AppData\Local\Temp\ccScBURM.s:26799  .debug_str:000000000001f12c .LASF703
C:\Users\CYMR90~1\AppData\Local\Temp\ccScBURM.s:20360  .debug_str:0000000000005097 .LASF704
C:\Users\CYMR90~1\AppData\Local\Temp\ccScBURM.s:24552  .debug_str:0000000000015e59 .LASF705
C:\Users\CYMR90~1\AppData\Local\Temp\ccScBURM.s:22906  .debug_str:000000000000f538 .LASF706
C:\Users\CYMR90~1\AppData\Local\Temp\ccScBURM.s:29199  .debug_str:0000000000028a34 .LASF707
C:\Users\CYMR90~1\AppData\Local\Temp\ccScBURM.s:28445  .debug_str:000000000002591b .LASF708
C:\Users\CYMR90~1\AppData\Local\Temp\ccScBURM.s:22554  .debug_str:000000000000dffe .LASF709
C:\Users\CYMR90~1\AppData\Local\Temp\ccScBURM.s:23066  .debug_str:000000000000ff87 .LASF710
C:\Users\CYMR90~1\AppData\Local\Temp\ccScBURM.s:24696  .debug_str:0000000000016762 .LASF711
C:\Users\CYMR90~1\AppData\Local\Temp\ccScBURM.s:21714  .debug_str:000000000000a753 .LASF712
C:\Users\CYMR90~1\AppData\Local\Temp\ccScBURM.s:30005  .debug_str:000000000002bcac .LASF713
C:\Users\CYMR90~1\AppData\Local\Temp\ccScBURM.s:21074  .debug_str:0000000000007e49 .LASF714
C:\Users\CYMR90~1\AppData\Local\Temp\ccScBURM.s:21976  .debug_str:000000000000b903 .LASF715
C:\Users\CYMR90~1\AppData\Local\Temp\ccScBURM.s:27023  .debug_str:000000000001feea .LASF716
C:\Users\CYMR90~1\AppData\Local\Temp\ccScBURM.s:28403  .debug_str:0000000000025617 .LASF717
C:\Users\CYMR90~1\AppData\Local\Temp\ccScBURM.s:28185  .debug_str:0000000000024671 .LASF718
C:\Users\CYMR90~1\AppData\Local\Temp\ccScBURM.s:25207  .debug_str:0000000000018960 .LASF719
C:\Users\CYMR90~1\AppData\Local\Temp\ccScBURM.s:19614  .debug_str:0000000000001fe1 .LASF720
C:\Users\CYMR90~1\AppData\Local\Temp\ccScBURM.s:27135  .debug_str:00000000000205f3 .LASF721
C:\Users\CYMR90~1\AppData\Local\Temp\ccScBURM.s:26107  .debug_str:000000000001c483 .LASF722
C:\Users\CYMR90~1\AppData\Local\Temp\ccScBURM.s:26675  .debug_str:000000000001e9ca .LASF723
C:\Users\CYMR90~1\AppData\Local\Temp\ccScBURM.s:27601  .debug_str:0000000000022271 .LASF724
C:\Users\CYMR90~1\AppData\Local\Temp\ccScBURM.s:23904  .debug_str:0000000000013625 .LASF725
C:\Users\CYMR90~1\AppData\Local\Temp\ccScBURM.s:21708  .debug_str:000000000000a6f9 .LASF726
C:\Users\CYMR90~1\AppData\Local\Temp\ccScBURM.s:28539  .debug_str:0000000000025f01 .LASF727
C:\Users\CYMR90~1\AppData\Local\Temp\ccScBURM.s:26913  .debug_str:000000000001f7e7 .LASF728
C:\Users\CYMR90~1\AppData\Local\Temp\ccScBURM.s:25391  .debug_str:00000000000195d3 .LASF729
C:\Users\CYMR90~1\AppData\Local\Temp\ccScBURM.s:23876  .debug_str:0000000000013451 .LASF730
C:\Users\CYMR90~1\AppData\Local\Temp\ccScBURM.s:28477  .debug_str:0000000000025b39 .LASF731
C:\Users\CYMR90~1\AppData\Local\Temp\ccScBURM.s:30207  .debug_str:000000000002ca82 .LASF732
C:\Users\CYMR90~1\AppData\Local\Temp\ccScBURM.s:23370  .debug_str:000000000001122e .LASF733
C:\Users\CYMR90~1\AppData\Local\Temp\ccScBURM.s:23292  .debug_str:0000000000010dcd .LASF734
C:\Users\CYMR90~1\AppData\Local\Temp\ccScBURM.s:30139  .debug_str:000000000002c5cc .LASF735
C:\Users\CYMR90~1\AppData\Local\Temp\ccScBURM.s:22284  .debug_str:000000000000ce7f .LASF736
C:\Users\CYMR90~1\AppData\Local\Temp\ccScBURM.s:26261  .debug_str:000000000001d02e .LASF737
C:\Users\CYMR90~1\AppData\Local\Temp\ccScBURM.s:29891  .debug_str:000000000002b508 .LASF738
C:\Users\CYMR90~1\AppData\Local\Temp\ccScBURM.s:19522  .debug_str:0000000000001a6d .LASF739
C:\Users\CYMR90~1\AppData\Local\Temp\ccScBURM.s:22216  .debug_str:000000000000c9f3 .LASF740
C:\Users\CYMR90~1\AppData\Local\Temp\ccScBURM.s:19500  .debug_str:0000000000001933 .LASF741
C:\Users\CYMR90~1\AppData\Local\Temp\ccScBURM.s:23328  .debug_str:0000000000010fa0 .LASF742
C:\Users\CYMR90~1\AppData\Local\Temp\ccScBURM.s:19960  .debug_str:0000000000003605 .LASF743
C:\Users\CYMR90~1\AppData\Local\Temp\ccScBURM.s:21332  .debug_str:0000000000008faa .LASF744
C:\Users\CYMR90~1\AppData\Local\Temp\ccScBURM.s:27613  .debug_str:0000000000022312 .LASF745
C:\Users\CYMR90~1\AppData\Local\Temp\ccScBURM.s:19398  .debug_str:0000000000001277 .LASF746
C:\Users\CYMR90~1\AppData\Local\Temp\ccScBURM.s:19388  .debug_str:00000000000011f5 .LASF747
C:\Users\CYMR90~1\AppData\Local\Temp\ccScBURM.s:20516  .debug_str:00000000000059fe .LASF749
C:\Users\CYMR90~1\AppData\Local\Temp\ccScBURM.s:23244  .debug_str:0000000000010a28 .LASF750
C:\Users\CYMR90~1\AppData\Local\Temp\ccScBURM.s:29355  .debug_str:000000000002944b .LASF751
C:\Users\CYMR90~1\AppData\Local\Temp\ccScBURM.s:23184  .debug_str:00000000000106b9 .LASF752
C:\Users\CYMR90~1\AppData\Local\Temp\ccScBURM.s:20402  .debug_str:0000000000005335 .LASF753
C:\Users\CYMR90~1\AppData\Local\Temp\ccScBURM.s:21960  .debug_str:000000000000b81d .LASF754
C:\Users\CYMR90~1\AppData\Local\Temp\ccScBURM.s:25467  .debug_str:0000000000019b5c .LASF755
C:\Users\CYMR90~1\AppData\Local\Temp\ccScBURM.s:21470  .debug_str:00000000000097e7 .LASF756
C:\Users\CYMR90~1\AppData\Local\Temp\ccScBURM.s:28429  .debug_str:0000000000025833 .LASF757
C:\Users\CYMR90~1\AppData\Local\Temp\ccScBURM.s:30241  .debug_str:000000000002cd0d .LASF758
C:\Users\CYMR90~1\AppData\Local\Temp\ccScBURM.s:25835  .debug_str:000000000001b406 .LASF759
C:\Users\CYMR90~1\AppData\Local\Temp\ccScBURM.s:29987  .debug_str:000000000002bb66 .LASF760
C:\Users\CYMR90~1\AppData\Local\Temp\ccScBURM.s:21888  .debug_str:000000000000b2e7 .LASF761
C:\Users\CYMR90~1\AppData\Local\Temp\ccScBURM.s:25843  .debug_str:000000000001b49a .LASF764
C:\Users\CYMR90~1\AppData\Local\Temp\ccScBURM.s:24522  .debug_str:0000000000015c20 .LASF765
C:\Users\CYMR90~1\AppData\Local\Temp\ccScBURM.s:27505  .debug_str:0000000000021c92 .LASF766
C:\Users\CYMR90~1\AppData\Local\Temp\ccScBURM.s:24512  .debug_str:0000000000015bb0 .LASF767
C:\Users\CYMR90~1\AppData\Local\Temp\ccScBURM.s:19760  .debug_str:00000000000028d6 .LASF768
C:\Users\CYMR90~1\AppData\Local\Temp\ccScBURM.s:25963  .debug_str:000000000001bbbe .LASF769
C:\Users\CYMR90~1\AppData\Local\Temp\ccScBURM.s:24608  .debug_str:00000000000161fb .LASF770
C:\Users\CYMR90~1\AppData\Local\Temp\ccScBURM.s:28151  .debug_str:0000000000024468 .LASF771
C:\Users\CYMR90~1\AppData\Local\Temp\ccScBURM.s:27791  .debug_str:0000000000022da2 .LASF772
C:\Users\CYMR90~1\AppData\Local\Temp\ccScBURM.s:26279  .debug_str:000000000001d132 .LASF773
C:\Users\CYMR90~1\AppData\Local\Temp\ccScBURM.s:28479  .debug_str:0000000000025b4f .LASF774
C:\Users\CYMR90~1\AppData\Local\Temp\ccScBURM.s:21612  .debug_str:000000000000a11c .LASF775
C:\Users\CYMR90~1\AppData\Local\Temp\ccScBURM.s:21628  .debug_str:000000000000a220 .LASF776
C:\Users\CYMR90~1\AppData\Local\Temp\ccScBURM.s:26611  .debug_str:000000000001e5af .LASF777
C:\Users\CYMR90~1\AppData\Local\Temp\ccScBURM.s:23128  .debug_str:0000000000010382 .LASF778
C:\Users\CYMR90~1\AppData\Local\Temp\ccScBURM.s:26863  .debug_str:000000000001f503 .LASF779
C:\Users\CYMR90~1\AppData\Local\Temp\ccScBURM.s:27501  .debug_str:0000000000021c59 .LASF780
C:\Users\CYMR90~1\AppData\Local\Temp\ccScBURM.s:23610  .debug_str:000000000001226e .LASF781
C:\Users\CYMR90~1\AppData\Local\Temp\ccScBURM.s:24730  .debug_str:0000000000016a91 .LASF782
C:\Users\CYMR90~1\AppData\Local\Temp\ccScBURM.s:23512  .debug_str:0000000000011c37 .LASF783
C:\Users\CYMR90~1\AppData\Local\Temp\ccScBURM.s:22810  .debug_str:000000000000ef6b .LASF784
C:\Users\CYMR90~1\AppData\Local\Temp\ccScBURM.s:27861  .debug_str:0000000000023169 .LASF785
C:\Users\CYMR90~1\AppData\Local\Temp\ccScBURM.s:24244  .debug_str:0000000000014b34 .LASF786
C:\Users\CYMR90~1\AppData\Local\Temp\ccScBURM.s:26543  .debug_str:000000000001e1d1 .LASF787
C:\Users\CYMR90~1\AppData\Local\Temp\ccScBURM.s:22988  .debug_str:000000000000faa0 .LASF788
C:\Users\CYMR90~1\AppData\Local\Temp\ccScBURM.s:20450  .debug_str:0000000000005610 .LASF789
C:\Users\CYMR90~1\AppData\Local\Temp\ccScBURM.s:28829  .debug_str:0000000000027159 .LASF790
C:\Users\CYMR90~1\AppData\Local\Temp\ccScBURM.s:21196  .debug_str:00000000000086d4 .LASF791
C:\Users\CYMR90~1\AppData\Local\Temp\ccScBURM.s:30213  .debug_str:000000000002cad0 .LASF792
C:\Users\CYMR90~1\AppData\Local\Temp\ccScBURM.s:20986  .debug_str:0000000000007824 .LASF793
C:\Users\CYMR90~1\AppData\Local\Temp\ccScBURM.s:29081  .debug_str:000000000002825c .LASF794
C:\Users\CYMR90~1\AppData\Local\Temp\ccScBURM.s:27109  .debug_str:00000000000203ff .LASF795
C:\Users\CYMR90~1\AppData\Local\Temp\ccScBURM.s:29781  .debug_str:000000000002adf2 .LASF796
C:\Users\CYMR90~1\AppData\Local\Temp\ccScBURM.s:20820  .debug_str:0000000000006d05 .LASF797
C:\Users\CYMR90~1\AppData\Local\Temp\ccScBURM.s:29143  .debug_str:00000000000286ba .LASF798
C:\Users\CYMR90~1\AppData\Local\Temp\ccScBURM.s:20416  .debug_str:0000000000005401 .LASF799
C:\Users\CYMR90~1\AppData\Local\Temp\ccScBURM.s:25605  .debug_str:000000000001a4cc .LASF800
C:\Users\CYMR90~1\AppData\Local\Temp\ccScBURM.s:25633  .debug_str:000000000001a67b .LASF801
C:\Users\CYMR90~1\AppData\Local\Temp\ccScBURM.s:21532  .debug_str:0000000000009c16 .LASF802
C:\Users\CYMR90~1\AppData\Local\Temp\ccScBURM.s:24004  .debug_str:0000000000013c31 .LASF803
C:\Users\CYMR90~1\AppData\Local\Temp\ccScBURM.s:20834  .debug_str:0000000000006dcc .LASF804
C:\Users\CYMR90~1\AppData\Local\Temp\ccScBURM.s:23466  .debug_str:00000000000118a9 .LASF805
C:\Users\CYMR90~1\AppData\Local\Temp\ccScBURM.s:26565  .debug_str:000000000001e2e7 .LASF806
C:\Users\CYMR90~1\AppData\Local\Temp\ccScBURM.s:26159  .debug_str:000000000001c87d .LASF807
C:\Users\CYMR90~1\AppData\Local\Temp\ccScBURM.s:28549  .debug_str:0000000000025f98 .LASF808
C:\Users\CYMR90~1\AppData\Local\Temp\ccScBURM.s:29991  .debug_str:000000000002bbbb .LASF809
C:\Users\CYMR90~1\AppData\Local\Temp\ccScBURM.s:21220  .debug_str:000000000000883c .LASF810
C:\Users\CYMR90~1\AppData\Local\Temp\ccScBURM.s:20154  .debug_str:00000000000042fb .LASF811
C:\Users\CYMR90~1\AppData\Local\Temp\ccScBURM.s:30025  .debug_str:000000000002be6f .LASF812
C:\Users\CYMR90~1\AppData\Local\Temp\ccScBURM.s:20512  .debug_str:00000000000059d7 .LASF813
C:\Users\CYMR90~1\AppData\Local\Temp\ccScBURM.s:20732  .debug_str:0000000000006737 .LASF814
C:\Users\CYMR90~1\AppData\Local\Temp\ccScBURM.s:25931  .debug_str:000000000001b9a8 .LASF815
C:\Users\CYMR90~1\AppData\Local\Temp\ccScBURM.s:21398  .debug_str:0000000000009360 .LASF816
C:\Users\CYMR90~1\AppData\Local\Temp\ccScBURM.s:26075  .debug_str:000000000001c2de .LASF817
C:\Users\CYMR90~1\AppData\Local\Temp\ccScBURM.s:25967  .debug_str:000000000001bbd6 .LASF818
C:\Users\CYMR90~1\AppData\Local\Temp\ccScBURM.s:19270  .debug_str:0000000000000a9c .LASF819
C:\Users\CYMR90~1\AppData\Local\Temp\ccScBURM.s:29617  .debug_str:000000000002a3e8 .LASF820
C:\Users\CYMR90~1\AppData\Local\Temp\ccScBURM.s:28147  .debug_str:0000000000024438 .LASF821
C:\Users\CYMR90~1\AppData\Local\Temp\ccScBURM.s:21362  .debug_str:0000000000009125 .LASF822
C:\Users\CYMR90~1\AppData\Local\Temp\ccScBURM.s:24654  .debug_str:0000000000016519 .LASF823
C:\Users\CYMR90~1\AppData\Local\Temp\ccScBURM.s:26265  .debug_str:000000000001d069 .LASF824
C:\Users\CYMR90~1\AppData\Local\Temp\ccScBURM.s:24448  .debug_str:0000000000015781 .LASF825
C:\Users\CYMR90~1\AppData\Local\Temp\ccScBURM.s:20042  .debug_str:0000000000003b70 .LASF826
C:\Users\CYMR90~1\AppData\Local\Temp\ccScBURM.s:22790  .debug_str:000000000000ee5e .LASF827
C:\Users\CYMR90~1\AppData\Local\Temp\ccScBURM.s:21540  .debug_str:0000000000009c79 .LASF828
C:\Users\CYMR90~1\AppData\Local\Temp\ccScBURM.s:28419  .debug_str:0000000000025773 .LASF829
C:\Users\CYMR90~1\AppData\Local\Temp\ccScBURM.s:21966  .debug_str:000000000000b878 .LASF830
C:\Users\CYMR90~1\AppData\Local\Temp\ccScBURM.s:22736  .debug_str:000000000000eb30 .LASF831
C:\Users\CYMR90~1\AppData\Local\Temp\ccScBURM.s:20598  .debug_str:0000000000005f03 .LASF832
C:\Users\CYMR90~1\AppData\Local\Temp\ccScBURM.s:23372  .debug_str:000000000001123f .LASF833
C:\Users\CYMR90~1\AppData\Local\Temp\ccScBURM.s:25131  .debug_str:00000000000184a6 .LASF834
C:\Users\CYMR90~1\AppData\Local\Temp\ccScBURM.s:23274  .debug_str:0000000000010c5a .LASF835
C:\Users\CYMR90~1\AppData\Local\Temp\ccScBURM.s:27015  .debug_str:000000000001fe7a .LASF836
C:\Users\CYMR90~1\AppData\Local\Temp\ccScBURM.s:21266  .debug_str:0000000000008b5b .LASF837
C:\Users\CYMR90~1\AppData\Local\Temp\ccScBURM.s:20438  .debug_str:0000000000005571 .LASF838
C:\Users\CYMR90~1\AppData\Local\Temp\ccScBURM.s:23174  .debug_str:0000000000010608 .LASF839
C:\Users\CYMR90~1\AppData\Local\Temp\ccScBURM.s:22104  .debug_str:000000000000c282 .LASF840
C:\Users\CYMR90~1\AppData\Local\Temp\ccScBURM.s:26175  .debug_str:000000000001c993 .LASF841
C:\Users\CYMR90~1\AppData\Local\Temp\ccScBURM.s:19342  .debug_str:0000000000000f6b .LASF842
C:\Users\CYMR90~1\AppData\Local\Temp\ccScBURM.s:19698  .debug_str:00000000000024a2 .LASF843
C:\Users\CYMR90~1\AppData\Local\Temp\ccScBURM.s:28007  .debug_str:0000000000023a65 .LASF844
C:\Users\CYMR90~1\AppData\Local\Temp\ccScBURM.s:19106  .debug_str:0000000000000096 .LASF845
C:\Users\CYMR90~1\AppData\Local\Temp\ccScBURM.s:21064  .debug_str:0000000000007dbc .LASF846
C:\Users\CYMR90~1\AppData\Local\Temp\ccScBURM.s:26869  .debug_str:000000000001f551 .LASF847
C:\Users\CYMR90~1\AppData\Local\Temp\ccScBURM.s:21032  .debug_str:0000000000007b33 .LASF848
C:\Users\CYMR90~1\AppData\Local\Temp\ccScBURM.s:22396  .debug_str:000000000000d65a .LASF851
C:\Users\CYMR90~1\AppData\Local\Temp\ccScBURM.s:29193  .debug_str:00000000000289dc .LASF852
C:\Users\CYMR90~1\AppData\Local\Temp\ccScBURM.s:24302  .debug_str:0000000000014f3d .LASF853
C:\Users\CYMR90~1\AppData\Local\Temp\ccScBURM.s:27511  .debug_str:0000000000021d27 .LASF855
C:\Users\CYMR90~1\AppData\Local\Temp\ccScBURM.s:26401  .debug_str:000000000001d8d6 .LASF856
C:\Users\CYMR90~1\AppData\Local\Temp\ccScBURM.s:29015  .debug_str:0000000000027d35 .LASF857
C:\Users\CYMR90~1\AppData\Local\Temp\ccScBURM.s:22384  .debug_str:000000000000d58b .LASF858
C:\Users\CYMR90~1\AppData\Local\Temp\ccScBURM.s:23326  .debug_str:0000000000010f96 .LASF859
C:\Users\CYMR90~1\AppData\Local\Temp\ccScBURM.s:27443  .debug_str:00000000000218b3 .LASF860
C:\Users\CYMR90~1\AppData\Local\Temp\ccScBURM.s:26603  .debug_str:000000000001e55f .LASF861
C:\Users\CYMR90~1\AppData\Local\Temp\ccScBURM.s:19436  .debug_str:00000000000014bb .LASF862
C:\Users\CYMR90~1\AppData\Local\Temp\ccScBURM.s:20100  .debug_str:0000000000003edb .LASF863
C:\Users\CYMR90~1\AppData\Local\Temp\ccScBURM.s:20484  .debug_str:0000000000005830 .LASF864
C:\Users\CYMR90~1\AppData\Local\Temp\ccScBURM.s:21660  .debug_str:000000000000a437 .LASF865
C:\Users\CYMR90~1\AppData\Local\Temp\ccScBURM.s:21134  .debug_str:00000000000082e5 .LASF866
C:\Users\CYMR90~1\AppData\Local\Temp\ccScBURM.s:26331  .debug_str:000000000001d438 .LASF867
C:\Users\CYMR90~1\AppData\Local\Temp\ccScBURM.s:26953  .debug_str:000000000001fa7d .LASF868
C:\Users\CYMR90~1\AppData\Local\Temp\ccScBURM.s:28021  .debug_str:0000000000023b2b .LASF869
C:\Users\CYMR90~1\AppData\Local\Temp\ccScBURM.s:21302  .debug_str:0000000000008dbd .LASF870
C:\Users\CYMR90~1\AppData\Local\Temp\ccScBURM.s:21732  .debug_str:000000000000a8b0 .LASF871
C:\Users\CYMR90~1\AppData\Local\Temp\ccScBURM.s:26167  .debug_str:000000000001c921 .LASF872
C:\Users\CYMR90~1\AppData\Local\Temp\ccScBURM.s:28717  .debug_str:00000000000269c8 .LASF873
C:\Users\CYMR90~1\AppData\Local\Temp\ccScBURM.s:23532  .debug_str:0000000000011d4f .LASF874
C:\Users\CYMR90~1\AppData\Local\Temp\ccScBURM.s:24208  .debug_str:0000000000014912 .LASF875
C:\Users\CYMR90~1\AppData\Local\Temp\ccScBURM.s:21538  .debug_str:0000000000009c6b .LASF876
C:\Users\CYMR90~1\AppData\Local\Temp\ccScBURM.s:25873  .debug_str:000000000001b66d .LASF877
C:\Users\CYMR90~1\AppData\Local\Temp\ccScBURM.s:23320  .debug_str:0000000000010f4d .LASF878
C:\Users\CYMR90~1\AppData\Local\Temp\ccScBURM.s:24841  .debug_str:00000000000172e3 .LASF879
C:\Users\CYMR90~1\AppData\Local\Temp\ccScBURM.s:20418  .debug_str:000000000000541a .LASF880
C:\Users\CYMR90~1\AppData\Local\Temp\ccScBURM.s:23748  .debug_str:0000000000012b7b .LASF881
C:\Users\CYMR90~1\AppData\Local\Temp\ccScBURM.s:26841  .debug_str:000000000001f3d5 .LASF882
C:\Users\CYMR90~1\AppData\Local\Temp\ccScBURM.s:27027  .debug_str:000000000001ff17 .LASF883
C:\Users\CYMR90~1\AppData\Local\Temp\ccScBURM.s:30265  .debug_str:000000000002ce63 .LASF884
C:\Users\CYMR90~1\AppData\Local\Temp\ccScBURM.s:25879  .debug_str:000000000001b6c5 .LASF885
C:\Users\CYMR90~1\AppData\Local\Temp\ccScBURM.s:21410  .debug_str:0000000000009407 .LASF886
C:\Users\CYMR90~1\AppData\Local\Temp\ccScBURM.s:27973  .debug_str:000000000002389d .LASF887
C:\Users\CYMR90~1\AppData\Local\Temp\ccScBURM.s:23686  .debug_str:0000000000012745 .LASF888
C:\Users\CYMR90~1\AppData\Local\Temp\ccScBURM.s:27909  .debug_str:0000000000023459 .LASF889
C:\Users\CYMR90~1\AppData\Local\Temp\ccScBURM.s:20244  .debug_str:0000000000004988 .LASF890
C:\Users\CYMR90~1\AppData\Local\Temp\ccScBURM.s:22684  .debug_str:000000000000e7d6 .LASF891
C:\Users\CYMR90~1\AppData\Local\Temp\ccScBURM.s:28663  .debug_str:00000000000266a4 .LASF892
C:\Users\CYMR90~1\AppData\Local\Temp\ccScBURM.s:28065  .debug_str:0000000000023dcd .LASF893
C:\Users\CYMR90~1\AppData\Local\Temp\ccScBURM.s:19410  .debug_str:0000000000001321 .LASF894
C:\Users\CYMR90~1\AppData\Local\Temp\ccScBURM.s:24066  .debug_str:0000000000013fde .LASF895
C:\Users\CYMR90~1\AppData\Local\Temp\ccScBURM.s:20332  .debug_str:0000000000004ee4 .LASF896
C:\Users\CYMR90~1\AppData\Local\Temp\ccScBURM.s:21528  .debug_str:0000000000009bd7 .LASF897
C:\Users\CYMR90~1\AppData\Local\Temp\ccScBURM.s:28957  .debug_str:0000000000027960 .LASF898
C:\Users\CYMR90~1\AppData\Local\Temp\ccScBURM.s:21846  .debug_str:000000000000b092 .LASF899
C:\Users\CYMR90~1\AppData\Local\Temp\ccScBURM.s:25923  .debug_str:000000000001b920 .LASF900
C:\Users\CYMR90~1\AppData\Local\Temp\ccScBURM.s:22552  .debug_str:000000000000dfd3 .LASF901
C:\Users\CYMR90~1\AppData\Local\Temp\ccScBURM.s:28249  .debug_str:0000000000024ad9 .LASF902
C:\Users\CYMR90~1\AppData\Local\Temp\ccScBURM.s:29103  .debug_str:00000000000283c7 .LASF903
C:\Users\CYMR90~1\AppData\Local\Temp\ccScBURM.s:23732  .debug_str:0000000000012a6d .LASF904
C:\Users\CYMR90~1\AppData\Local\Temp\ccScBURM.s:21184  .debug_str:000000000000863a .LASF905
C:\Users\CYMR90~1\AppData\Local\Temp\ccScBURM.s:29659  .debug_str:000000000002a6d0 .LASF906
C:\Users\CYMR90~1\AppData\Local\Temp\ccScBURM.s:22680  .debug_str:000000000000e793 .LASF907
C:\Users\CYMR90~1\AppData\Local\Temp\ccScBURM.s:28929  .debug_str:0000000000027726 .LASF908
C:\Users\CYMR90~1\AppData\Local\Temp\ccScBURM.s:23294  .debug_str:0000000000010dde .LASF909
C:\Users\CYMR90~1\AppData\Local\Temp\ccScBURM.s:19792  .debug_str:0000000000002ac8 .LASF910
C:\Users\CYMR90~1\AppData\Local\Temp\ccScBURM.s:19382  .debug_str:00000000000011b8 .LASF911
C:\Users\CYMR90~1\AppData\Local\Temp\ccScBURM.s:27361  .debug_str:00000000000213bd .LASF912
C:\Users\CYMR90~1\AppData\Local\Temp\ccScBURM.s:28231  .debug_str:00000000000249a9 .LASF913
C:\Users\CYMR90~1\AppData\Local\Temp\ccScBURM.s:22228  .debug_str:000000000000cac5 .LASF914
C:\Users\CYMR90~1\AppData\Local\Temp\ccScBURM.s:22542  .debug_str:000000000000df14 .LASF915
C:\Users\CYMR90~1\AppData\Local\Temp\ccScBURM.s:23110  .debug_str:0000000000010254 .LASF916
C:\Users\CYMR90~1\AppData\Local\Temp\ccScBURM.s:29733  .debug_str:000000000002aaf1 .LASF917
C:\Users\CYMR90~1\AppData\Local\Temp\ccScBURM.s:19368  .debug_str:00000000000010c4 .LASF918
C:\Users\CYMR90~1\AppData\Local\Temp\ccScBURM.s:21832  .debug_str:000000000000afa7 .LASF919
C:\Users\CYMR90~1\AppData\Local\Temp\ccScBURM.s:28187  .debug_str:0000000000024686 .LASF920
C:\Users\CYMR90~1\AppData\Local\Temp\ccScBURM.s:25627  .debug_str:000000000001a609 .LASF921
C:\Users\CYMR90~1\AppData\Local\Temp\ccScBURM.s:28697  .debug_str:0000000000026899 .LASF922
C:\Users\CYMR90~1\AppData\Local\Temp\ccScBURM.s:24769  .debug_str:0000000000016e98 .LASF923
C:\Users\CYMR90~1\AppData\Local\Temp\ccScBURM.s:19752  .debug_str:0000000000002843 .LASF924
C:\Users\CYMR90~1\AppData\Local\Temp\ccScBURM.s:25837  .debug_str:000000000001b440 .LASF925
C:\Users\CYMR90~1\AppData\Local\Temp\ccScBURM.s:19478  .debug_str:00000000000017c1 .LASF926
C:\Users\CYMR90~1\AppData\Local\Temp\ccScBURM.s:24236  .debug_str:0000000000014aae .LASF927
C:\Users\CYMR90~1\AppData\Local\Temp\ccScBURM.s:26903  .debug_str:000000000001f730 .LASF928
C:\Users\CYMR90~1\AppData\Local\Temp\ccScBURM.s:29989  .debug_str:000000000002bb9e .LASF929
C:\Users\CYMR90~1\AppData\Local\Temp\ccScBURM.s:30205  .debug_str:000000000002ca64 .LASF930
C:\Users\CYMR90~1\AppData\Local\Temp\ccScBURM.s:26801  .debug_str:000000000001f140 .LASF931
C:\Users\CYMR90~1\AppData\Local\Temp\ccScBURM.s:29465  .debug_str:0000000000029af7 .LASF932
C:\Users\CYMR90~1\AppData\Local\Temp\ccScBURM.s:24572  .debug_str:0000000000015fd6 .LASF933
C:\Users\CYMR90~1\AppData\Local\Temp\ccScBURM.s:25399  .debug_str:000000000001964d .LASF934
C:\Users\CYMR90~1\AppData\Local\Temp\ccScBURM.s:24452  .debug_str:00000000000157b6 .LASF935
C:\Users\CYMR90~1\AppData\Local\Temp\ccScBURM.s:28319  .debug_str:0000000000024fb6 .LASF936
C:\Users\CYMR90~1\AppData\Local\Temp\ccScBURM.s:19288  .debug_str:0000000000000bcf .LASF937
C:\Users\CYMR90~1\AppData\Local\Temp\ccScBURM.s:27173  .debug_str:000000000002084c .LASF938
C:\Users\CYMR90~1\AppData\Local\Temp\ccScBURM.s:28405  .debug_str:0000000000025623 .LASF939
C:\Users\CYMR90~1\AppData\Local\Temp\ccScBURM.s:21968  .debug_str:000000000000b896 .LASF940
C:\Users\CYMR90~1\AppData\Local\Temp\ccScBURM.s:25615  .debug_str:000000000001a550 .LASF941
C:\Users\CYMR90~1\AppData\Local\Temp\ccScBURM.s:22724  .debug_str:000000000000ea3e .LASF942
C:\Users\CYMR90~1\AppData\Local\Temp\ccScBURM.s:28527  .debug_str:0000000000025e3d .LASF943
C:\Users\CYMR90~1\AppData\Local\Temp\ccScBURM.s:26017  .debug_str:000000000001bf5f .LASF944
C:\Users\CYMR90~1\AppData\Local\Temp\ccScBURM.s:22928  .debug_str:000000000000f686 .LASF945
C:\Users\CYMR90~1\AppData\Local\Temp\ccScBURM.s:24919  .debug_str:000000000001779c .LASF946
C:\Users\CYMR90~1\AppData\Local\Temp\ccScBURM.s:26527  .debug_str:000000000001e0eb .LASF947
C:\Users\CYMR90~1\AppData\Local\Temp\ccScBURM.s:23270  .debug_str:0000000000010c1c .LASF948
C:\Users\CYMR90~1\AppData\Local\Temp\ccScBURM.s:22290  .debug_str:000000000000ced5 .LASF949
C:\Users\CYMR90~1\AppData\Local\Temp\ccScBURM.s:20894  .debug_str:0000000000007205 .LASF951
C:\Users\CYMR90~1\AppData\Local\Temp\ccScBURM.s:24376  .debug_str:0000000000015379 .LASF952
C:\Users\CYMR90~1\AppData\Local\Temp\ccScBURM.s:22324  .debug_str:000000000000d133 .LASF953
C:\Users\CYMR90~1\AppData\Local\Temp\ccScBURM.s:30197  .debug_str:000000000002c9ef .LASF954
C:\Users\CYMR90~1\AppData\Local\Temp\ccScBURM.s:29369  .debug_str:00000000000294fd .LASF955
C:\Users\CYMR90~1\AppData\Local\Temp\ccScBURM.s:29455  .debug_str:0000000000029a61 .LASF959
C:\Users\CYMR90~1\AppData\Local\Temp\ccScBURM.s:21436  .debug_str:00000000000095f3 .LASF960
C:\Users\CYMR90~1\AppData\Local\Temp\ccScBURM.s:28725  .debug_str:0000000000026a53 .LASF961
C:\Users\CYMR90~1\AppData\Local\Temp\ccScBURM.s:23504  .debug_str:0000000000011bbb .LASF962
C:\Users\CYMR90~1\AppData\Local\Temp\ccScBURM.s:20920  .debug_str:00000000000073ec .LASF963
C:\Users\CYMR90~1\AppData\Local\Temp\ccScBURM.s:27541  .debug_str:0000000000021ed9 .LASF964
C:\Users\CYMR90~1\AppData\Local\Temp\ccScBURM.s:25831  .debug_str:000000000001b3d4 .LASF965
C:\Users\CYMR90~1\AppData\Local\Temp\ccScBURM.s:28669  .debug_str:0000000000026700 .LASF966
C:\Users\CYMR90~1\AppData\Local\Temp\ccScBURM.s:29775  .debug_str:000000000002ad84 .LASF967
C:\Users\CYMR90~1\AppData\Local\Temp\ccScBURM.s:20656  .debug_str:00000000000062a1 .LASF968
C:\Users\CYMR90~1\AppData\Local\Temp\ccScBURM.s:24106  .debug_str:0000000000014290 .LASF969
C:\Users\CYMR90~1\AppData\Local\Temp\ccScBURM.s:29863  .debug_str:000000000002b335 .LASF970
C:\Users\CYMR90~1\AppData\Local\Temp\ccScBURM.s:22734  .debug_str:000000000000eb0a .LASF971
C:\Users\CYMR90~1\AppData\Local\Temp\ccScBURM.s:24166  .debug_str:0000000000014658 .LASF972
C:\Users\CYMR90~1\AppData\Local\Temp\ccScBURM.s:22348  .debug_str:000000000000d2ad .LASF973
C:\Users\CYMR90~1\AppData\Local\Temp\ccScBURM.s:24702  .debug_str:00000000000167dc .LASF974
C:\Users\CYMR90~1\AppData\Local\Temp\ccScBURM.s:30229  .debug_str:000000000002cb95 .LASF975
C:\Users\CYMR90~1\AppData\Local\Temp\ccScBURM.s:22286  .debug_str:000000000000ce90 .LASF976
C:\Users\CYMR90~1\AppData\Local\Temp\ccScBURM.s:30253  .debug_str:000000000002cdd2 .LASF977
C:\Users\CYMR90~1\AppData\Local\Temp\ccScBURM.s:28509  .debug_str:0000000000025d04 .LASF978
C:\Users\CYMR90~1\AppData\Local\Temp\ccScBURM.s:28569  .debug_str:00000000000260ce .LASF979
C:\Users\CYMR90~1\AppData\Local\Temp\ccScBURM.s:22788  .debug_str:000000000000ee44 .LASF980
C:\Users\CYMR90~1\AppData\Local\Temp\ccScBURM.s:20370  .debug_str:0000000000005141 .LASF981
C:\Users\CYMR90~1\AppData\Local\Temp\ccScBURM.s:23528  .debug_str:0000000000011d32 .LASF982
C:\Users\CYMR90~1\AppData\Local\Temp\ccScBURM.s:26241  .debug_str:000000000001ce5a .LASF983
C:\Users\CYMR90~1\AppData\Local\Temp\ccScBURM.s:26255  .debug_str:000000000001cf46 .LASF984
C:\Users\CYMR90~1\AppData\Local\Temp\ccScBURM.s:23142  .debug_str:000000000001043c .LASF985
C:\Users\CYMR90~1\AppData\Local\Temp\ccScBURM.s:24518  .debug_str:0000000000015bfc .LASF986
C:\Users\CYMR90~1\AppData\Local\Temp\ccScBURM.s:19810  .debug_str:0000000000002beb .LASF987
C:\Users\CYMR90~1\AppData\Local\Temp\ccScBURM.s:27737  .debug_str:0000000000022aa9 .LASF988
C:\Users\CYMR90~1\AppData\Local\Temp\ccScBURM.s:25221  .debug_str:0000000000018a21 .LASF989
C:\Users\CYMR90~1\AppData\Local\Temp\ccScBURM.s:22282  .debug_str:000000000000ce68 .LASF990
C:\Users\CYMR90~1\AppData\Local\Temp\ccScBURM.s:28671  .debug_str:0000000000026728 .LASF991
C:\Users\CYMR90~1\AppData\Local\Temp\ccScBURM.s:20938  .debug_str:00000000000074f5 .LASF992
C:\Users\CYMR90~1\AppData\Local\Temp\ccScBURM.s:28489  .debug_str:0000000000025bb9 .LASF993
C:\Users\CYMR90~1\AppData\Local\Temp\ccScBURM.s:25303  .debug_str:000000000001909f .LASF994
C:\Users\CYMR90~1\AppData\Local\Temp\ccScBURM.s:29277  .debug_str:0000000000028f01 .LASF995
C:\Users\CYMR90~1\AppData\Local\Temp\ccScBURM.s:26441  .debug_str:000000000001dafd .LASF996
C:\Users\CYMR90~1\AppData\Local\Temp\ccScBURM.s:26509  .debug_str:000000000001dfd1 .LASF997
C:\Users\CYMR90~1\AppData\Local\Temp\ccScBURM.s:19710  .debug_str:0000000000002536 .LASF998
C:\Users\CYMR90~1\AppData\Local\Temp\ccScBURM.s:20048  .debug_str:0000000000003bc8 .LASF999
C:\Users\CYMR90~1\AppData\Local\Temp\ccScBURM.s:28163  .debug_str:0000000000024526 .LASF1000
C:\Users\CYMR90~1\AppData\Local\Temp\ccScBURM.s:23118  .debug_str:00000000000102dc .LASF1001
C:\Users\CYMR90~1\AppData\Local\Temp\ccScBURM.s:20324  .debug_str:0000000000004e8b .LASF1002
C:\Users\CYMR90~1\AppData\Local\Temp\ccScBURM.s:26059  .debug_str:000000000001c1f7 .LASF1003
C:\Users\CYMR90~1\AppData\Local\Temp\ccScBURM.s:23482  .debug_str:00000000000119d6 .LASF1004
C:\Users\CYMR90~1\AppData\Local\Temp\ccScBURM.s:22244  .debug_str:000000000000cc73 .LASF1005
C:\Users\CYMR90~1\AppData\Local\Temp\ccScBURM.s:20630  .debug_str:000000000000610a .LASF1006
C:\Users\CYMR90~1\AppData\Local\Temp\ccScBURM.s:27537  .debug_str:0000000000021ea1 .LASF1007
C:\Users\CYMR90~1\AppData\Local\Temp\ccScBURM.s:24997  .debug_str:0000000000017c6d .LASF1008
C:\Users\CYMR90~1\AppData\Local\Temp\ccScBURM.s:25155  .debug_str:00000000000185ee .LASF1009
C:\Users\CYMR90~1\AppData\Local\Temp\ccScBURM.s:22560  .debug_str:000000000000e04c .LASF1010
C:\Users\CYMR90~1\AppData\Local\Temp\ccScBURM.s:26301  .debug_str:000000000001d277 .LASF1011
C:\Users\CYMR90~1\AppData\Local\Temp\ccScBURM.s:27741  .debug_str:0000000000022ad4 .LASF1012
C:\Users\CYMR90~1\AppData\Local\Temp\ccScBURM.s:25417  .debug_str:00000000000197c1 .LASF1013
C:\Users\CYMR90~1\AppData\Local\Temp\ccScBURM.s:20046  .debug_str:0000000000003bb2 .LASF1014
C:\Users\CYMR90~1\AppData\Local\Temp\ccScBURM.s:20520  .debug_str:0000000000005a34 .LASF1015
C:\Users\CYMR90~1\AppData\Local\Temp\ccScBURM.s:20474  .debug_str:0000000000005799 .LASF1016
C:\Users\CYMR90~1\AppData\Local\Temp\ccScBURM.s:28819  .debug_str:0000000000027019 .LASF1017
C:\Users\CYMR90~1\AppData\Local\Temp\ccScBURM.s:22798  .debug_str:000000000000eec6 .LASF1018
C:\Users\CYMR90~1\AppData\Local\Temp\ccScBURM.s:19704  .debug_str:00000000000024ed .LASF1019
C:\Users\CYMR90~1\AppData\Local\Temp\ccScBURM.s:25037  .debug_str:0000000000017ef3 .LASF1020
C:\Users\CYMR90~1\AppData\Local\Temp\ccScBURM.s:22102  .debug_str:000000000000c26a .LASF1021
C:\Users\CYMR90~1\AppData\Local\Temp\ccScBURM.s:28745  .debug_str:0000000000026b6e .LASF1022
C:\Users\CYMR90~1\AppData\Local\Temp\ccScBURM.s:21344  .debug_str:000000000000904d .LASF1023
C:\Users\CYMR90~1\AppData\Local\Temp\ccScBURM.s:23800  .debug_str:0000000000012ec1 .LASF1024
C:\Users\CYMR90~1\AppData\Local\Temp\ccScBURM.s:23298  .debug_str:0000000000010e1f .LASF1025
C:\Users\CYMR90~1\AppData\Local\Temp\ccScBURM.s:24228  .debug_str:00000000000149fa .LASF1026
C:\Users\CYMR90~1\AppData\Local\Temp\ccScBURM.s:26379  .debug_str:000000000001d75a .LASF1027
C:\Users\CYMR90~1\AppData\Local\Temp\ccScBURM.s:26759  .debug_str:000000000001ee9a .LASF1028
C:\Users\CYMR90~1\AppData\Local\Temp\ccScBURM.s:25307  .debug_str:00000000000190d1 .LASF1029
C:\Users\CYMR90~1\AppData\Local\Temp\ccScBURM.s:27129  .debug_str:00000000000205ad .LASF1030
C:\Users\CYMR90~1\AppData\Local\Temp\ccScBURM.s:29371  .debug_str:0000000000029565 .LASF1031
C:\Users\CYMR90~1\AppData\Local\Temp\ccScBURM.s:21490  .debug_str:0000000000009966 .LASF1032
C:\Users\CYMR90~1\AppData\Local\Temp\ccScBURM.s:20378  .debug_str:00000000000051c3 .LASF1033
C:\Users\CYMR90~1\AppData\Local\Temp\ccScBURM.s:25347  .debug_str:0000000000019326 .LASF1034
C:\Users\CYMR90~1\AppData\Local\Temp\ccScBURM.s:25607  .debug_str:000000000001a4e6 .LASF1035
C:\Users\CYMR90~1\AppData\Local\Temp\ccScBURM.s:27839  .debug_str:0000000000023024 .LASF1036
C:\Users\CYMR90~1\AppData\Local\Temp\ccScBURM.s:22968  .debug_str:000000000000f99b .LASF1037
C:\Users\CYMR90~1\AppData\Local\Temp\ccScBURM.s:26483  .debug_str:000000000001de47 .LASF1038
C:\Users\CYMR90~1\AppData\Local\Temp\ccScBURM.s:24390  .debug_str:0000000000015471 .LASF1039
C:\Users\CYMR90~1\AppData\Local\Temp\ccScBURM.s:22876  .debug_str:000000000000f363 .LASF1040
C:\Users\CYMR90~1\AppData\Local\Temp\ccScBURM.s:28559  .debug_str:0000000000026035 .LASF1041
C:\Users\CYMR90~1\AppData\Local\Temp\ccScBURM.s:23120  .debug_str:00000000000102f3 .LASF1042
C:\Users\CYMR90~1\AppData\Local\Temp\ccScBURM.s:19124  .debug_str:000000000000019a .LASF1043
C:\Users\CYMR90~1\AppData\Local\Temp\ccScBURM.s:21356  .debug_str:00000000000090d4 .LASF1044
C:\Users\CYMR90~1\AppData\Local\Temp\ccScBURM.s:25539  .debug_str:0000000000019f78 .LASF1045
C:\Users\CYMR90~1\AppData\Local\Temp\ccScBURM.s:24638  .debug_str:00000000000163ad .LASF1046
C:\Users\CYMR90~1\AppData\Local\Temp\ccScBURM.s:27883  .debug_str:00000000000232b2 .LASF1047
C:\Users\CYMR90~1\AppData\Local\Temp\ccScBURM.s:26725  .debug_str:000000000001ec89 .LASF1048
C:\Users\CYMR90~1\AppData\Local\Temp\ccScBURM.s:19886  .debug_str:0000000000003106 .LASF1049
C:\Users\CYMR90~1\AppData\Local\Temp\ccScBURM.s:26735  .debug_str:000000000001ed14 .LASF1050
C:\Users\CYMR90~1\AppData\Local\Temp\ccScBURM.s:26935  .debug_str:000000000001f949 .LASF1051
C:\Users\CYMR90~1\AppData\Local\Temp\ccScBURM.s:21844  .debug_str:000000000000b080 .LASF1052
C:\Users\CYMR90~1\AppData\Local\Temp\ccScBURM.s:27781  .debug_str:0000000000022d19 .LASF1053
C:\Users\CYMR90~1\AppData\Local\Temp\ccScBURM.s:23774  .debug_str:0000000000012d11 .LASF1054
C:\Users\CYMR90~1\AppData\Local\Temp\ccScBURM.s:22730  .debug_str:000000000000eab8 .LASF1055
C:\Users\CYMR90~1\AppData\Local\Temp\ccScBURM.s:28993  .debug_str:0000000000027be8 .LASF1056
C:\Users\CYMR90~1\AppData\Local\Temp\ccScBURM.s:29579  .debug_str:000000000002a179 .LASF1057
C:\Users\CYMR90~1\AppData\Local\Temp\ccScBURM.s:28317  .debug_str:0000000000024f94 .LASF1058
C:\Users\CYMR90~1\AppData\Local\Temp\ccScBURM.s:19564  .debug_str:0000000000001d0d .LASF1059
C:\Users\CYMR90~1\AppData\Local\Temp\ccScBURM.s:21164  .debug_str:00000000000084f7 .LASF1060
C:\Users\CYMR90~1\AppData\Local\Temp\ccScBURM.s:19252  .debug_str:0000000000000934 .LASF1061
C:\Users\CYMR90~1\AppData\Local\Temp\ccScBURM.s:24142  .debug_str:000000000001447b .LASF1062
C:\Users\CYMR90~1\AppData\Local\Temp\ccScBURM.s:20098  .debug_str:0000000000003ec4 .LASF1063
C:\Users\CYMR90~1\AppData\Local\Temp\ccScBURM.s:19194  .debug_str:00000000000005a1 .LASF1064
C:\Users\CYMR90~1\AppData\Local\Temp\ccScBURM.s:30259  .debug_str:000000000002ce1b .LASF1065
C:\Users\CYMR90~1\AppData\Local\Temp\ccScBURM.s:28165  .debug_str:000000000002453e .LASF1066
C:\Users\CYMR90~1\AppData\Local\Temp\ccScBURM.s:24700  .debug_str:00000000000167c2 .LASF1067
C:\Users\CYMR90~1\AppData\Local\Temp\ccScBURM.s:26273  .debug_str:000000000001d0cd .LASF1068
C:\Users\CYMR90~1\AppData\Local\Temp\ccScBURM.s:19306  .debug_str:0000000000000cc5 .LASF1069
C:\Users\CYMR90~1\AppData\Local\Temp\ccScBURM.s:21618  .debug_str:000000000000a170 .LASF1070
C:\Users\CYMR90~1\AppData\Local\Temp\ccScBURM.s:27689  .debug_str:0000000000022779 .LASF1071
C:\Users\CYMR90~1\AppData\Local\Temp\ccScBURM.s:26237  .debug_str:000000000001ce18 .LASF1072
C:\Users\CYMR90~1\AppData\Local\Temp\ccScBURM.s:29241  .debug_str:0000000000028c97 .LASF1073
C:\Users\CYMR90~1\AppData\Local\Temp\ccScBURM.s:24851  .debug_str:0000000000017366 .LASF1074
C:\Users\CYMR90~1\AppData\Local\Temp\ccScBURM.s:19746  .debug_str:00000000000027f3 .LASF1075
C:\Users\CYMR90~1\AppData\Local\Temp\ccScBURM.s:29665  .debug_str:000000000002a71f .LASF1076
C:\Users\CYMR90~1\AppData\Local\Temp\ccScBURM.s:20692  .debug_str:00000000000064da .LASF1077
C:\Users\CYMR90~1\AppData\Local\Temp\ccScBURM.s:27171  .debug_str:000000000002083a .LASF1078
C:\Users\CYMR90~1\AppData\Local\Temp\ccScBURM.s:22572  .debug_str:000000000000e100 .LASF1079
C:\Users\CYMR90~1\AppData\Local\Temp\ccScBURM.s:26037  .debug_str:000000000001c0a2 .LASF1080
C:\Users\CYMR90~1\AppData\Local\Temp\ccScBURM.s:28849  .debug_str:00000000000272a0 .LASF1081
C:\Users\CYMR90~1\AppData\Local\Temp\ccScBURM.s:24334  .debug_str:0000000000015117 .LASF1082
C:\Users\CYMR90~1\AppData\Local\Temp\ccScBURM.s:27383  .debug_str:0000000000021523 .LASF1083
C:\Users\CYMR90~1\AppData\Local\Temp\ccScBURM.s:20398  .debug_str:00000000000052fd .LASF1084
C:\Users\CYMR90~1\AppData\Local\Temp\ccScBURM.s:19512  .debug_str:00000000000019e5 .LASF1085
C:\Users\CYMR90~1\AppData\Local\Temp\ccScBURM.s:22606  .debug_str:000000000000e2e5 .LASF1086
C:\Users\CYMR90~1\AppData\Local\Temp\ccScBURM.s:28567  .debug_str:00000000000260bf .LASF1087
C:\Users\CYMR90~1\AppData\Local\Temp\ccScBURM.s:27685  .debug_str:0000000000022747 .LASF1088
C:\Users\CYMR90~1\AppData\Local\Temp\ccScBURM.s:19360  .debug_str:000000000000104e .LASF1089
C:\Users\CYMR90~1\AppData\Local\Temp\ccScBURM.s:30193  .debug_str:000000000002c997 .LASF1090
C:\Users\CYMR90~1\AppData\Local\Temp\ccScBURM.s:28955  .debug_str:0000000000027948 .LASF1091
C:\Users\CYMR90~1\AppData\Local\Temp\ccScBURM.s:22948  .debug_str:000000000000f7a5 .LASF1092
C:\Users\CYMR90~1\AppData\Local\Temp\ccScBURM.s:28611  .debug_str:0000000000026333 .LASF1093
C:\Users\CYMR90~1\AppData\Local\Temp\ccScBURM.s:24406  .debug_str:000000000001551c .LASF1094
C:\Users\CYMR90~1\AppData\Local\Temp\ccScBURM.s:25853  .debug_str:000000000001b526 .LASF1095
C:\Users\CYMR90~1\AppData\Local\Temp\ccScBURM.s:26383  .debug_str:000000000001d7ac .LASF1096
C:\Users\CYMR90~1\AppData\Local\Temp\ccScBURM.s:20680  .debug_str:0000000000006435 .LASF1097
C:\Users\CYMR90~1\AppData\Local\Temp\ccScBURM.s:23794  .debug_str:0000000000012e48 .LASF1098
C:\Users\CYMR90~1\AppData\Local\Temp\ccScBURM.s:23114  .debug_str:00000000000102ab .LASF1099
C:\Users\CYMR90~1\AppData\Local\Temp\ccScBURM.s:27957  .debug_str:00000000000237a1 .LASF1100
C:\Users\CYMR90~1\AppData\Local\Temp\ccScBURM.s:22296  .debug_str:000000000000cf2f .LASF1101
C:\Users\CYMR90~1\AppData\Local\Temp\ccScBURM.s:27629  .debug_str:00000000000223d5 .LASF1102
C:\Users\CYMR90~1\AppData\Local\Temp\ccScBURM.s:29187  .debug_str:000000000002898a .LASF1103
C:\Users\CYMR90~1\AppData\Local\Temp\ccScBURM.s:27061  .debug_str:00000000000200f2 .LASF1104
C:\Users\CYMR90~1\AppData\Local\Temp\ccScBURM.s:23972  .debug_str:0000000000013a38 .LASF1105
C:\Users\CYMR90~1\AppData\Local\Temp\ccScBURM.s:27879  .debug_str:000000000002327c .LASF1106
C:\Users\CYMR90~1\AppData\Local\Temp\ccScBURM.s:25773  .debug_str:000000000001b007 .LASF1107
C:\Users\CYMR90~1\AppData\Local\Temp\ccScBURM.s:27299  .debug_str:0000000000020f96 .LASF1108
C:\Users\CYMR90~1\AppData\Local\Temp\ccScBURM.s:21648  .debug_str:000000000000a349 .LASF1109
C:\Users\CYMR90~1\AppData\Local\Temp\ccScBURM.s:19574  .debug_str:0000000000001dae .LASF1110
C:\Users\CYMR90~1\AppData\Local\Temp\ccScBURM.s:20778  .debug_str:0000000000006a4f .LASF1111
C:\Users\CYMR90~1\AppData\Local\Temp\ccScBURM.s:21868  .debug_str:000000000000b1e5 .LASF1112
C:\Users\CYMR90~1\AppData\Local\Temp\ccScBURM.s:20442  .debug_str:0000000000005599 .LASF1113
C:\Users\CYMR90~1\AppData\Local\Temp\ccScBURM.s:21440  .debug_str:000000000000961a .LASF1114
C:\Users\CYMR90~1\AppData\Local\Temp\ccScBURM.s:29035  .debug_str:0000000000027ec7 .LASF1115
C:\Users\CYMR90~1\AppData\Local\Temp\ccScBURM.s:29529  .debug_str:0000000000029e9a .LASF1116
C:\Users\CYMR90~1\AppData\Local\Temp\ccScBURM.s:20600  .debug_str:0000000000005f2d .LASF1117
C:\Users\CYMR90~1\AppData\Local\Temp\ccScBURM.s:25013  .debug_str:0000000000017d69 .LASF1118
C:\Users\CYMR90~1\AppData\Local\Temp\ccScBURM.s:21132  .debug_str:00000000000082c8 .LASF1119
C:\Users\CYMR90~1\AppData\Local\Temp\ccScBURM.s:21338  .debug_str:0000000000008fec .LASF1120
C:\Users\CYMR90~1\AppData\Local\Temp\ccScBURM.s:23908  .debug_str:0000000000013654 .LASF1121
C:\Users\CYMR90~1\AppData\Local\Temp\ccScBURM.s:23554  .debug_str:0000000000011ebd .LASF1122
C:\Users\CYMR90~1\AppData\Local\Temp\ccScBURM.s:27147  .debug_str:00000000000206bb .LASF1123
C:\Users\CYMR90~1\AppData\Local\Temp\ccScBURM.s:24338  .debug_str:0000000000015140 .LASF1124
C:\Users\CYMR90~1\AppData\Local\Temp\ccScBURM.s:24426  .debug_str:0000000000015655 .LASF1125
C:\Users\CYMR90~1\AppData\Local\Temp\ccScBURM.s:27771  .debug_str:0000000000022c7b .LASF1126
C:\Users\CYMR90~1\AppData\Local\Temp\ccScBURM.s:28847  .debug_str:000000000002728b .LASF1127
C:\Users\CYMR90~1\AppData\Local\Temp\ccScBURM.s:20486  .debug_str:000000000000583d .LASF1128
C:\Users\CYMR90~1\AppData\Local\Temp\ccScBURM.s:24424  .debug_str:0000000000015640 .LASF1129
C:\Users\CYMR90~1\AppData\Local\Temp\ccScBURM.s:29367  .debug_str:00000000000294e8 .LASF1130
C:\Users\CYMR90~1\AppData\Local\Temp\ccScBURM.s:29765  .debug_str:000000000002acf6 .LASF1131
C:\Users\CYMR90~1\AppData\Local\Temp\ccScBURM.s:25125  .debug_str:0000000000018421 .LASF1132
C:\Users\CYMR90~1\AppData\Local\Temp\ccScBURM.s:27929  .debug_str:00000000000235af .LASF1133
C:\Users\CYMR90~1\AppData\Local\Temp\ccScBURM.s:21020  .debug_str:0000000000007a8d .LASF1134
C:\Users\CYMR90~1\AppData\Local\Temp\ccScBURM.s:20268  .debug_str:0000000000004afb .LASF1135
C:\Users\CYMR90~1\AppData\Local\Temp\ccScBURM.s:20102  .debug_str:0000000000003ee6 .LASF1136
C:\Users\CYMR90~1\AppData\Local\Temp\ccScBURM.s:29377  .debug_str:00000000000295c4 .LASF1137
C:\Users\CYMR90~1\AppData\Local\Temp\ccScBURM.s:26513  .debug_str:000000000001e00a .LASF1138
C:\Users\CYMR90~1\AppData\Local\Temp\ccScBURM.s:26417  .debug_str:000000000001d9bd .LASF1139
C:\Users\CYMR90~1\AppData\Local\Temp\ccScBURM.s:19168  .debug_str:0000000000000443 .LASF1140
C:\Users\CYMR90~1\AppData\Local\Temp\ccScBURM.s:23348  .debug_str:00000000000110e3 .LASF1141
C:\Users\CYMR90~1\AppData\Local\Temp\ccScBURM.s:22612  .debug_str:000000000000e358 .LASF1142
C:\Users\CYMR90~1\AppData\Local\Temp\ccScBURM.s:28901  .debug_str:0000000000027570 .LASF1143
C:\Users\CYMR90~1\AppData\Local\Temp\ccScBURM.s:27107  .debug_str:00000000000203e5 .LASF1144
C:\Users\CYMR90~1\AppData\Local\Temp\ccScBURM.s:22136  .debug_str:000000000000c46e .LASF1145
C:\Users\CYMR90~1\AppData\Local\Temp\ccScBURM.s:30189  .debug_str:000000000002c955 .LASF1146
C:\Users\CYMR90~1\AppData\Local\Temp\ccScBURM.s:24875  .debug_str:00000000000174c6 .LASF1147
C:\Users\CYMR90~1\AppData\Local\Temp\ccScBURM.s:25133  .debug_str:00000000000184ce .LASF1148
C:\Users\CYMR90~1\AppData\Local\Temp\ccScBURM.s:25871  .debug_str:000000000001b632 .LASF1149
C:\Users\CYMR90~1\AppData\Local\Temp\ccScBURM.s:19576  .debug_str:0000000000001dcc .LASF1150
C:\Users\CYMR90~1\AppData\Local\Temp\ccScBURM.s:26291  .debug_str:000000000001d1e2 .LASF1151
C:\Users\CYMR90~1\AppData\Local\Temp\ccScBURM.s:21464  .debug_str:0000000000009759 .LASF1152
C:\Users\CYMR90~1\AppData\Local\Temp\ccScBURM.s:27397  .debug_str:00000000000215d5 .LASF1153
C:\Users\CYMR90~1\AppData\Local\Temp\ccScBURM.s:26643  .debug_str:000000000001e7f1 .LASF1154
C:\Users\CYMR90~1\AppData\Local\Temp\ccScBURM.s:24256  .debug_str:0000000000014be4 .LASF1155
C:\Users\CYMR90~1\AppData\Local\Temp\ccScBURM.s:26477  .debug_str:000000000001ddcc .LASF1156
C:\Users\CYMR90~1\AppData\Local\Temp\ccScBURM.s:21886  .debug_str:000000000000b2d5 .LASF1157
C:\Users\CYMR90~1\AppData\Local\Temp\ccScBURM.s:29547  .debug_str:0000000000029fdf .LASF1158
C:\Users\CYMR90~1\AppData\Local\Temp\ccScBURM.s:19462  .debug_str:000000000000163f .LASF1159
C:\Users\CYMR90~1\AppData\Local\Temp\ccScBURM.s:29627  .debug_str:000000000002a4c7 .LASF1160
C:\Users\CYMR90~1\AppData\Local\Temp\ccScBURM.s:29317  .debug_str:000000000002915e .LASF1161
C:\Users\CYMR90~1\AppData\Local\Temp\ccScBURM.s:26369  .debug_str:000000000001d6d7 .LASF1162
C:\Users\CYMR90~1\AppData\Local\Temp\ccScBURM.s:25507  .debug_str:0000000000019d8f .LASF1163
C:\Users\CYMR90~1\AppData\Local\Temp\ccScBURM.s:22428  .debug_str:000000000000d861 .LASF1164
C:\Users\CYMR90~1\AppData\Local\Temp\ccScBURM.s:27031  .debug_str:000000000001ff53 .LASF1165
C:\Users\CYMR90~1\AppData\Local\Temp\ccScBURM.s:23306  .debug_str:0000000000010e88 .LASF1166
C:\Users\CYMR90~1\AppData\Local\Temp\ccScBURM.s:21462  .debug_str:000000000000974f .LASF1167
C:\Users\CYMR90~1\AppData\Local\Temp\ccScBURM.s:24368  .debug_str:000000000001531a .LASF1168
C:\Users\CYMR90~1\AppData\Local\Temp\ccScBURM.s:25715  .debug_str:000000000001ac11 .LASF1169
C:\Users\CYMR90~1\AppData\Local\Temp\ccScBURM.s:25419  .debug_str:00000000000197d8 .LASF1170
C:\Users\CYMR90~1\AppData\Local\Temp\ccScBURM.s:29573  .debug_str:000000000002a147 .LASF1171
C:\Users\CYMR90~1\AppData\Local\Temp\ccScBURM.s:24648  .debug_str:0000000000016436 .LASF1172
C:\Users\CYMR90~1\AppData\Local\Temp\ccScBURM.s:19286  .debug_str:0000000000000bc1 .LASF1173
C:\Users\CYMR90~1\AppData\Local\Temp\ccScBURM.s:19684  .debug_str:00000000000023ae .LASF1174
C:\Users\CYMR90~1\AppData\Local\Temp\ccScBURM.s:23880  .debug_str:00000000000134a4 .LASF1175
C:\Users\CYMR90~1\AppData\Local\Temp\ccScBURM.s:22240  .debug_str:000000000000cc43 .LASF1176
C:\Users\CYMR90~1\AppData\Local\Temp\ccScBURM.s:26427  .debug_str:000000000001da56 .LASF1177
C:\Users\CYMR90~1\AppData\Local\Temp\ccScBURM.s:22844  .debug_str:000000000000f156 .LASF1178
C:\Users\CYMR90~1\AppData\Local\Temp\ccScBURM.s:22414  .debug_str:000000000000d7b3 .LASF1179
C:\Users\CYMR90~1\AppData\Local\Temp\ccScBURM.s:28127  .debug_str:00000000000242e3 .LASF1180
C:\Users\CYMR90~1\AppData\Local\Temp\ccScBURM.s:21276  .debug_str:0000000000008bea .LASF1181
C:\Users\CYMR90~1\AppData\Local\Temp\ccScBURM.s:19852  .debug_str:0000000000002eb7 .LASF1182
C:\Users\CYMR90~1\AppData\Local\Temp\ccScBURM.s:26747  .debug_str:000000000001edcf .LASF1183
C:\Users\CYMR90~1\AppData\Local\Temp\ccScBURM.s:27201  .debug_str:00000000000209ec .LASF1184
C:\Users\CYMR90~1\AppData\Local\Temp\ccScBURM.s:28357  .debug_str:00000000000252b5 .LASF1185
C:\Users\CYMR90~1\AppData\Local\Temp\ccScBURM.s:19578  .debug_str:0000000000001de5 .LASF1186
C:\Users\CYMR90~1\AppData\Local\Temp\ccScBURM.s:20496  .debug_str:00000000000058cd .LASF1187
C:\Users\CYMR90~1\AppData\Local\Temp\ccScBURM.s:27673  .debug_str:0000000000022672 .LASF1188
C:\Users\CYMR90~1\AppData\Local\Temp\ccScBURM.s:21024  .debug_str:0000000000007abe .LASF1189
C:\Users\CYMR90~1\AppData\Local\Temp\ccScBURM.s:27717  .debug_str:0000000000022910 .LASF1190
C:\Users\CYMR90~1\AppData\Local\Temp\ccScBURM.s:22214  .debug_str:000000000000c9e1 .LASF1191
C:\Users\CYMR90~1\AppData\Local\Temp\ccScBURM.s:27385  .debug_str:0000000000021535 .LASF1192
C:\Users\CYMR90~1\AppData\Local\Temp\ccScBURM.s:22460  .debug_str:000000000000da29 .LASF1193
C:\Users\CYMR90~1\AppData\Local\Temp\ccScBURM.s:25965  .debug_str:000000000001bbcb .LASF1194
C:\Users\CYMR90~1\AppData\Local\Temp\ccScBURM.s:24022  .debug_str:0000000000013d45 .LASF1195
C:\Users\CYMR90~1\AppData\Local\Temp\ccScBURM.s:27421  .debug_str:000000000002177d .LASF1196
C:\Users\CYMR90~1\AppData\Local\Temp\ccScBURM.s:29571  .debug_str:000000000002a138 .LASF1197
C:\Users\CYMR90~1\AppData\Local\Temp\ccScBURM.s:24670  .debug_str:0000000000016606 .LASF1198
C:\Users\CYMR90~1\AppData\Local\Temp\ccScBURM.s:29577  .debug_str:000000000002a16e .LASF1199
C:\Users\CYMR90~1\AppData\Local\Temp\ccScBURM.s:21706  .debug_str:000000000000a6ed .LASF1200
C:\Users\CYMR90~1\AppData\Local\Temp\ccScBURM.s:21374  .debug_str:0000000000009201 .LASF1201
C:\Users\CYMR90~1\AppData\Local\Temp\ccScBURM.s:24863  .debug_str:0000000000017425 .LASF1202
C:\Users\CYMR90~1\AppData\Local\Temp\ccScBURM.s:28683  .debug_str:00000000000267d1 .LASF1203
C:\Users\CYMR90~1\AppData\Local\Temp\ccScBURM.s:23934  .debug_str:0000000000013814 .LASF1204
C:\Users\CYMR90~1\AppData\Local\Temp\ccScBURM.s:23012  .debug_str:000000000000fc27 .LASF1205
C:\Users\CYMR90~1\AppData\Local\Temp\ccScBURM.s:29543  .debug_str:0000000000029fad .LASF1206
C:\Users\CYMR90~1\AppData\Local\Temp\ccScBURM.s:28213  .debug_str:0000000000024894 .LASF1207
C:\Users\CYMR90~1\AppData\Local\Temp\ccScBURM.s:22940  .debug_str:000000000000f748 .LASF1208
C:\Users\CYMR90~1\AppData\Local\Temp\ccScBURM.s:20392  .debug_str:0000000000005295 .LASF1209
C:\Users\CYMR90~1\AppData\Local\Temp\ccScBURM.s:20488  .debug_str:0000000000005853 .LASF1210
C:\Users\CYMR90~1\AppData\Local\Temp\ccScBURM.s:21168  .debug_str:000000000000853b .LASF1211
C:\Users\CYMR90~1\AppData\Local\Temp\ccScBURM.s:20772  .debug_str:00000000000069cf .LASF1212
C:\Users\CYMR90~1\AppData\Local\Temp\ccScBURM.s:19694  .debug_str:000000000000246a .LASF1213
C:\Users\CYMR90~1\AppData\Local\Temp\ccScBURM.s:21506  .debug_str:0000000000009a80 .LASF1214
C:\Users\CYMR90~1\AppData\Local\Temp\ccScBURM.s:19636  .debug_str:00000000000020e5 .LASF1215
C:\Users\CYMR90~1\AppData\Local\Temp\ccScBURM.s:27835  .debug_str:0000000000022ff7 .LASF1216
C:\Users\CYMR90~1\AppData\Local\Temp\ccScBURM.s:27849  .debug_str:00000000000230ab .LASF1217
C:\Users\CYMR90~1\AppData\Local\Temp\ccScBURM.s:28267  .debug_str:0000000000024c1d .LASF1218
C:\Users\CYMR90~1\AppData\Local\Temp\ccScBURM.s:25857  .debug_str:000000000001b55a .LASF1219
C:\Users\CYMR90~1\AppData\Local\Temp\ccScBURM.s:22502  .debug_str:000000000000dc7f .LASF1220
C:\Users\CYMR90~1\AppData\Local\Temp\ccScBURM.s:24192  .debug_str:0000000000014806 .LASF1221
C:\Users\CYMR90~1\AppData\Local\Temp\ccScBURM.s:19872  .debug_str:0000000000002fe9 .LASF1222
C:\Users\CYMR90~1\AppData\Local\Temp\ccScBURM.s:25601  .debug_str:000000000001a4b0 .LASF1223
C:\Users\CYMR90~1\AppData\Local\Temp\ccScBURM.s:28865  .debug_str:000000000002738f .LASF1224
C:\Users\CYMR90~1\AppData\Local\Temp\ccScBURM.s:21972  .debug_str:000000000000b8d0 .LASF1225
C:\Users\CYMR90~1\AppData\Local\Temp\ccScBURM.s:20910  .debug_str:0000000000007342 .LASF1226
C:\Users\CYMR90~1\AppData\Local\Temp\ccScBURM.s:19968  .debug_str:0000000000003676 .LASF1227
C:\Users\CYMR90~1\AppData\Local\Temp\ccScBURM.s:30243  .debug_str:000000000002cd27 .LASF1228
C:\Users\CYMR90~1\AppData\Local\Temp\ccScBURM.s:29299  .debug_str:000000000002904e .LASF1229
C:\Users\CYMR90~1\AppData\Local\Temp\ccScBURM.s:28325  .debug_str:000000000002500b .LASF1230
C:\Users\CYMR90~1\AppData\Local\Temp\ccScBURM.s:27373  .debug_str:000000000002148b .LASF1231
C:\Users\CYMR90~1\AppData\Local\Temp\ccScBURM.s:27259  .debug_str:0000000000020d74 .LASF1232
C:\Users\CYMR90~1\AppData\Local\Temp\ccScBURM.s:26309  .debug_str:000000000001d2da .LASF1233
C:\Users\CYMR90~1\AppData\Local\Temp\ccScBURM.s:25375  .debug_str:00000000000194f7 .LASF1234
C:\Users\CYMR90~1\AppData\Local\Temp\ccScBURM.s:24090  .debug_str:000000000001419d .LASF1235
C:\Users\CYMR90~1\AppData\Local\Temp\ccScBURM.s:23472  .debug_str:0000000000011956 .LASF1236
C:\Users\CYMR90~1\AppData\Local\Temp\ccScBURM.s:24761  .debug_str:0000000000016e13 .LASF1237
C:\Users\CYMR90~1\AppData\Local\Temp\ccScBURM.s:21578  .debug_str:0000000000009ecf .LASF1238
C:\Users\CYMR90~1\AppData\Local\Temp\ccScBURM.s:20596  .debug_str:0000000000005eec .LASF1239
C:\Users\CYMR90~1\AppData\Local\Temp\ccScBURM.s:19652  .debug_str:00000000000021d1 .LASF1240
C:\Users\CYMR90~1\AppData\Local\Temp\ccScBURM.s:29961  .debug_str:000000000002b9e5 .LASF1241
C:\Users\CYMR90~1\AppData\Local\Temp\ccScBURM.s:19182  .debug_str:00000000000004f7 .LASF1242
C:\Users\CYMR90~1\AppData\Local\Temp\ccScBURM.s:29439  .debug_str:0000000000029976 .LASF1243
C:\Users\CYMR90~1\AppData\Local\Temp\ccScBURM.s:28469  .debug_str:0000000000025a95 .LASF1244
C:\Users\CYMR90~1\AppData\Local\Temp\ccScBURM.s:27527  .debug_str:0000000000021e10 .LASF1245
C:\Users\CYMR90~1\AppData\Local\Temp\ccScBURM.s:26549  .debug_str:000000000001e219 .LASF1246
C:\Users\CYMR90~1\AppData\Local\Temp\ccScBURM.s:25659  .debug_str:000000000001a898 .LASF1247
C:\Users\CYMR90~1\AppData\Local\Temp\ccScBURM.s:24714  .debug_str:00000000000168e3 .LASF1248
C:\Users\CYMR90~1\AppData\Local\Temp\ccScBURM.s:24879  .debug_str:0000000000017527 .LASF1249
C:\Users\CYMR90~1\AppData\Local\Temp\ccScBURM.s:22850  .debug_str:000000000000f19b .LASF1250
C:\Users\CYMR90~1\AppData\Local\Temp\ccScBURM.s:24977  .debug_str:0000000000017b68 .LASF1251
C:\Users\CYMR90~1\AppData\Local\Temp\ccScBURM.s:22354  .debug_str:000000000000d327 .LASF1252
C:\Users\CYMR90~1\AppData\Local\Temp\ccScBURM.s:21388  .debug_str:00000000000092d0 .LASF1253
C:\Users\CYMR90~1\AppData\Local\Temp\ccScBURM.s:19424  .debug_str:0000000000001413 .LASF1254
C:\Users\CYMR90~1\AppData\Local\Temp\ccScBURM.s:22274  .debug_str:000000000000ce12 .LASF1255
C:\Users\CYMR90~1\AppData\Local\Temp\ccScBURM.s:20550  .debug_str:0000000000005c53 .LASF1256
C:\Users\CYMR90~1\AppData\Local\Temp\ccScBURM.s:25249  .debug_str:0000000000018ca0 .LASF1257
C:\Users\CYMR90~1\AppData\Local\Temp\ccScBURM.s:25251  .debug_str:0000000000018cb3 .LASF1258
C:\Users\CYMR90~1\AppData\Local\Temp\ccScBURM.s:27721  .debug_str:0000000000022940 .LASF1259
C:\Users\CYMR90~1\AppData\Local\Temp\ccScBURM.s:25851  .debug_str:000000000001b513 .LASF1260
C:\Users\CYMR90~1\AppData\Local\Temp\ccScBURM.s:23276  .debug_str:0000000000010d20 .LASF1261
C:\Users\CYMR90~1\AppData\Local\Temp\ccScBURM.s:20446  .debug_str:00000000000055dc .LASF1262
C:\Users\CYMR90~1\AppData\Local\Temp\ccScBURM.s:22588  .debug_str:000000000000e1d7 .LASF1263
C:\Users\CYMR90~1\AppData\Local\Temp\ccScBURM.s:24738  .debug_str:0000000000016b0a .LASF1264
C:\Users\CYMR90~1\AppData\Local\Temp\ccScBURM.s:22636  .debug_str:000000000000e4aa .LASF1265
C:\Users\CYMR90~1\AppData\Local\Temp\ccScBURM.s:27747  .debug_str:0000000000022b38 .LASF1266
C:\Users\CYMR90~1\AppData\Local\Temp\ccScBURM.s:27923  .debug_str:0000000000023565 .LASF1267
C:\Users\CYMR90~1\AppData\Local\Temp\ccScBURM.s:23410  .debug_str:0000000000011489 .LASF1268
C:\Users\CYMR90~1\AppData\Local\Temp\ccScBURM.s:30013  .debug_str:000000000002bd35 .LASF1269
C:\Users\CYMR90~1\AppData\Local\Temp\ccScBURM.s:24979  .debug_str:0000000000017b7f .LASF1270
C:\Users\CYMR90~1\AppData\Local\Temp\ccScBURM.s:29401  .debug_str:0000000000029744 .LASF1271
C:\Users\CYMR90~1\AppData\Local\Temp\ccScBURM.s:26429  .debug_str:000000000001da63 .LASF1272
C:\Users\CYMR90~1\AppData\Local\Temp\ccScBURM.s:19242  .debug_str:00000000000008a6 .LASF1273
C:\Users\CYMR90~1\AppData\Local\Temp\ccScBURM.s:25257  .debug_str:0000000000018d01 .LASF1274
C:\Users\CYMR90~1\AppData\Local\Temp\ccScBURM.s:19350  .debug_str:0000000000000fca .LASF1275
C:\Users\CYMR90~1\AppData\Local\Temp\ccScBURM.s:21600  .debug_str:000000000000a04c .LASF1276
C:\Users\CYMR90~1\AppData\Local\Temp\ccScBURM.s:20614  .debug_str:0000000000006007 .LASF1277
C:\Users\CYMR90~1\AppData\Local\Temp\ccScBURM.s:19682  .debug_str:000000000000239c .LASF1278
C:\Users\CYMR90~1\AppData\Local\Temp\ccScBURM.s:29981  .debug_str:000000000002bb17 .LASF1279
C:\Users\CYMR90~1\AppData\Local\Temp\ccScBURM.s:20508  .debug_str:0000000000005998 .LASF1280
C:\Users\CYMR90~1\AppData\Local\Temp\ccScBURM.s:19566  .debug_str:0000000000001d2a .LASF1281
C:\Users\CYMR90~1\AppData\Local\Temp\ccScBURM.s:26593  .debug_str:000000000001e4b9 .LASF1282
C:\Users\CYMR90~1\AppData\Local\Temp\ccScBURM.s:19314  .debug_str:0000000000000d35 .LASF1283
C:\Users\CYMR90~1\AppData\Local\Temp\ccScBURM.s:27947  .debug_str:000000000002371b .LASF1284
C:\Users\CYMR90~1\AppData\Local\Temp\ccScBURM.s:26979  .debug_str:000000000001fbf8 .LASF1285
C:\Users\CYMR90~1\AppData\Local\Temp\ccScBURM.s:26031  .debug_str:000000000001c023 .LASF1286
C:\Users\CYMR90~1\AppData\Local\Temp\ccScBURM.s:25087  .debug_str:00000000000181e7 .LASF1287
C:\Users\CYMR90~1\AppData\Local\Temp\ccScBURM.s:24130  .debug_str:00000000000143ed .LASF1288
C:\Users\CYMR90~1\AppData\Local\Temp\ccScBURM.s:23206  .debug_str:0000000000010802 .LASF1289
C:\Users\CYMR90~1\AppData\Local\Temp\ccScBURM.s:27477  .debug_str:0000000000021ae3 .LASF1290
C:\Users\CYMR90~1\AppData\Local\Temp\ccScBURM.s:26501  .debug_str:000000000001df60 .LASF1291
C:\Users\CYMR90~1\AppData\Local\Temp\ccScBURM.s:25599  .debug_str:000000000001a49c .LASF1292
C:\Users\CYMR90~1\AppData\Local\Temp\ccScBURM.s:24604  .debug_str:00000000000161cf .LASF1293
C:\Users\CYMR90~1\AppData\Local\Temp\ccScBURM.s:23694  .debug_str:00000000000127c9 .LASF1294
C:\Users\CYMR90~1\AppData\Local\Temp\ccScBURM.s:22742  .debug_str:000000000000eb95 .LASF1295
C:\Users\CYMR90~1\AppData\Local\Temp\ccScBURM.s:22116  .debug_str:000000000000c352 .LASF1296
C:\Users\CYMR90~1\AppData\Local\Temp\ccScBURM.s:26945  .debug_str:000000000001f9d4 .LASF1297
C:\Users\CYMR90~1\AppData\Local\Temp\ccScBURM.s:26003  .debug_str:000000000001be69 .LASF1298
C:\Users\CYMR90~1\AppData\Local\Temp\ccScBURM.s:25055  .debug_str:0000000000017fe3 .LASF1299
C:\Users\CYMR90~1\AppData\Local\Temp\ccScBURM.s:25977  .debug_str:000000000001bc9f .LASF1300
C:\Users\CYMR90~1\AppData\Local\Temp\ccScBURM.s:27197  .debug_str:00000000000209c9 .LASF1301
C:\Users\CYMR90~1\AppData\Local\Temp\ccScBURM.s:24646  .debug_str:0000000000016423 .LASF1302
C:\Users\CYMR90~1\AppData\Local\Temp\ccScBURM.s:25517  .debug_str:0000000000019e33 .LASF1303
C:\Users\CYMR90~1\AppData\Local\Temp\ccScBURM.s:25489  .debug_str:0000000000019c9f .LASF1304
C:\Users\CYMR90~1\AppData\Local\Temp\ccScBURM.s:21280  .debug_str:0000000000008c1e .LASF1305
C:\Users\CYMR90~1\AppData\Local\Temp\ccScBURM.s:20298  .debug_str:0000000000004cfa .LASF1306
C:\Users\CYMR90~1\AppData\Local\Temp\ccScBURM.s:19362  .debug_str:0000000000001060 .LASF1307
C:\Users\CYMR90~1\AppData\Local\Temp\ccScBURM.s:29643  .debug_str:000000000002a5c6 .LASF1308
C:\Users\CYMR90~1\AppData\Local\Temp\ccScBURM.s:28679  .debug_str:0000000000026796 .LASF1309
C:\Users\CYMR90~1\AppData\Local\Temp\ccScBURM.s:27723  .debug_str:0000000000022951 .LASF1310
C:\Users\CYMR90~1\AppData\Local\Temp\ccScBURM.s:24002  .debug_str:0000000000013c1a .LASF1311
C:\Users\CYMR90~1\AppData\Local\Temp\ccScBURM.s:22600  .debug_str:000000000000e290 .LASF1312
C:\Users\CYMR90~1\AppData\Local\Temp\ccScBURM.s:23854  .debug_str:0000000000013250 .LASF1313
C:\Users\CYMR90~1\AppData\Local\Temp\ccScBURM.s:29861  .debug_str:000000000002b31d .LASF1314
C:\Users\CYMR90~1\AppData\Local\Temp\ccScBURM.s:28399  .debug_str:00000000000255c8 .LASF1315
C:\Users\CYMR90~1\AppData\Local\Temp\ccScBURM.s:27939  .debug_str:000000000002367f .LASF1316
C:\Users\CYMR90~1\AppData\Local\Temp\ccScBURM.s:26971  .debug_str:000000000001fb8b .LASF1317
C:\Users\CYMR90~1\AppData\Local\Temp\ccScBURM.s:26041  .debug_str:000000000001c0cd .LASF1318
C:\Users\CYMR90~1\AppData\Local\Temp\ccScBURM.s:25097  .debug_str:0000000000018295 .LASF1319
C:\Users\CYMR90~1\AppData\Local\Temp\ccScBURM.s:24140  .debug_str:0000000000014463 .LASF1320
C:\Users\CYMR90~1\AppData\Local\Temp\ccScBURM.s:23212  .debug_str:000000000001085d .LASF1321
C:\Users\CYMR90~1\AppData\Local\Temp\ccScBURM.s:23668  .debug_str:0000000000012607 .LASF1322
C:\Users\CYMR90~1\AppData\Local\Temp\ccScBURM.s:22120  .debug_str:000000000000c377 .LASF1323
C:\Users\CYMR90~1\AppData\Local\Temp\ccScBURM.s:21756  .debug_str:000000000000aa11 .LASF1324
C:\Users\CYMR90~1\AppData\Local\Temp\ccScBURM.s:20780  .debug_str:0000000000006a6b .LASF1325
C:\Users\CYMR90~1\AppData\Local\Temp\ccScBURM.s:19828  .debug_str:0000000000002d24 .LASF1326
C:\Users\CYMR90~1\AppData\Local\Temp\ccScBURM.s:30131  .debug_str:000000000002c57a .LASF1327
C:\Users\CYMR90~1\AppData\Local\Temp\ccScBURM.s:29217  .debug_str:0000000000028b1f .LASF1328
C:\Users\CYMR90~1\AppData\Local\Temp\ccScBURM.s:28247  .debug_str:0000000000024ac1 .LASF1329
C:\Users\CYMR90~1\AppData\Local\Temp\ccScBURM.s:27297  .debug_str:0000000000020f7e .LASF1330
C:\Users\CYMR90~1\AppData\Local\Temp\ccScBURM.s:26341  .debug_str:000000000001d4e4 .LASF1331
C:\Users\CYMR90~1\AppData\Local\Temp\ccScBURM.s:26769  .debug_str:000000000001ef48 .LASF1332
C:\Users\CYMR90~1\AppData\Local\Temp\ccScBURM.s:25865  .debug_str:000000000001b5d6 .LASF1333
C:\Users\CYMR90~1\AppData\Local\Temp\ccScBURM.s:24566  .debug_str:0000000000015f77 .LASF1334
C:\Users\CYMR90~1\AppData\Local\Temp\ccScBURM.s:22270  .debug_str:000000000000cde7 .LASF1335
C:\Users\CYMR90~1\AppData\Local\Temp\ccScBURM.s:26987  .debug_str:000000000001fc57 .LASF1336
C:\Users\CYMR90~1\AppData\Local\Temp\ccScBURM.s:23552  .debug_str:0000000000011ea8 .LASF1337
C:\Users\CYMR90~1\AppData\Local\Temp\ccScBURM.s:19466  .debug_str:0000000000001677 .LASF1338
C:\Users\CYMR90~1\AppData\Local\Temp\ccScBURM.s:21550  .debug_str:0000000000009d2b .LASF1339
C:\Users\CYMR90~1\AppData\Local\Temp\ccScBURM.s:20568  .debug_str:0000000000005d61 .LASF1340
C:\Users\CYMR90~1\AppData\Local\Temp\ccScBURM.s:19622  .debug_str:000000000000202e .LASF1341
C:\Users\CYMR90~1\AppData\Local\Temp\ccScBURM.s:29939  .debug_str:000000000002b85b .LASF1342
C:\Users\CYMR90~1\AppData\Local\Temp\ccScBURM.s:29731  .debug_str:000000000002aadb .LASF1343
C:\Users\CYMR90~1\AppData\Local\Temp\ccScBURM.s:28761  .debug_str:0000000000026c9c .LASF1344
C:\Users\CYMR90~1\AppData\Local\Temp\ccScBURM.s:27813  .debug_str:0000000000022eeb .LASF1345
C:\Users\CYMR90~1\AppData\Local\Temp\ccScBURM.s:29171  .debug_str:0000000000028895 .LASF1346
C:\Users\CYMR90~1\AppData\Local\Temp\ccScBURM.s:25909  .debug_str:000000000001b895 .LASF1347
C:\Users\CYMR90~1\AppData\Local\Temp\ccScBURM.s:26419  .debug_str:000000000001d9d5 .LASF1348
C:\Users\CYMR90~1\AppData\Local\Temp\ccScBURM.s:24014  .debug_str:0000000000013cd7 .LASF1349
C:\Users\CYMR90~1\AppData\Local\Temp\ccScBURM.s:27133  .debug_str:00000000000205dd .LASF1350
C:\Users\CYMR90~1\AppData\Local\Temp\ccScBURM.s:22132  .debug_str:000000000000c443 .LASF1351
C:\Users\CYMR90~1\AppData\Local\Temp\ccScBURM.s:21066  .debug_str:0000000000007dce .LASF1352
C:\Users\CYMR90~1\AppData\Local\Temp\ccScBURM.s:21632  .debug_str:000000000000a255 .LASF1353
C:\Users\CYMR90~1\AppData\Local\Temp\ccScBURM.s:20646  .debug_str:0000000000006225 .LASF1354
C:\Users\CYMR90~1\AppData\Local\Temp\ccScBURM.s:19706  .debug_str:000000000000250a .LASF1355
C:\Users\CYMR90~1\AppData\Local\Temp\ccScBURM.s:30009  .debug_str:000000000002bd15 .LASF1356
C:\Users\CYMR90~1\AppData\Local\Temp\ccScBURM.s:24102  .debug_str:0000000000014265 .LASF1357
C:\Users\CYMR90~1\AppData\Local\Temp\ccScBURM.s:20774  .debug_str:0000000000006a13 .LASF1358
C:\Users\CYMR90~1\AppData\Local\Temp\ccScBURM.s:27179  .debug_str:00000000000208a3 .LASF1359
C:\Users\CYMR90~1\AppData\Local\Temp\ccScBURM.s:26137  .debug_str:000000000001c681 .LASF1360
C:\Users\CYMR90~1\AppData\Local\Temp\ccScBURM.s:25191  .debug_str:0000000000018842 .LASF1361
C:\Users\CYMR90~1\AppData\Local\Temp\ccScBURM.s:29181  .debug_str:0000000000028926 .LASF1362
C:\Users\CYMR90~1\AppData\Local\Temp\ccScBURM.s:24490  .debug_str:0000000000015a05 .LASF1363
C:\Users\CYMR90~1\AppData\Local\Temp\ccScBURM.s:21186  .debug_str:0000000000008654 .LASF1364
C:\Users\CYMR90~1\AppData\Local\Temp\ccScBURM.s:28791  .debug_str:0000000000026e5f .LASF1365
C:\Users\CYMR90~1\AppData\Local\Temp\ccScBURM.s:22252  .debug_str:000000000000ccdc .LASF1366
C:\Users\CYMR90~1\AppData\Local\Temp\ccScBURM.s:27071  .debug_str:000000000002017f .LASF1367
C:\Users\CYMR90~1\AppData\Local\Temp\ccScBURM.s:25351  .debug_str:0000000000019352 .LASF1368
C:\Users\CYMR90~1\AppData\Local\Temp\ccScBURM.s:23256  .debug_str:0000000000010b2e .LASF1369
C:\Users\CYMR90~1\AppData\Local\Temp\ccScBURM.s:26351  .debug_str:000000000001d56f .LASF1370
C:\Users\CYMR90~1\AppData\Local\Temp\ccScBURM.s:19750  .debug_str:0000000000002830 .LASF1371
C:\Users\CYMR90~1\AppData\Local\Temp\ccScBURM.s:22312  .debug_str:000000000000d064 .LASF1372
C:\Users\CYMR90~1\AppData\Local\Temp\ccScBURM.s:25395  .debug_str:000000000001960c .LASF1373
C:\Users\CYMR90~1\AppData\Local\Temp\ccScBURM.s:28461  .debug_str:0000000000025a27 .LASF1374
C:\Users\CYMR90~1\AppData\Local\Temp\ccScBURM.s:20326  .debug_str:0000000000004ea2 .LASF1375
C:\Users\CYMR90~1\AppData\Local\Temp\ccScBURM.s:23458  .debug_str:00000000000117be .LASF1376
C:\Users\CYMR90~1\AppData\Local\Temp\ccScBURM.s:26507  .debug_str:000000000001dfba .LASF1377
C:\Users\CYMR90~1\AppData\Local\Temp\ccScBURM.s:29639  .debug_str:000000000002a589 .LASF1378
C:\Users\CYMR90~1\AppData\Local\Temp\ccScBURM.s:29607  .debug_str:000000000002a368 .LASF1379
C:\Users\CYMR90~1\AppData\Local\Temp\ccScBURM.s:21400  .debug_str:0000000000009380 .LASF1380
C:\Users\CYMR90~1\AppData\Local\Temp\ccScBURM.s:24462  .debug_str:0000000000015869 .LASF1381
C:\Users\CYMR90~1\AppData\Local\Temp\ccScBURM.s:27573  .debug_str:00000000000220bc .LASF1382
C:\Users\CYMR90~1\AppData\Local\Temp\ccScBURM.s:19438  .debug_str:00000000000014c4 .LASF1383
C:\Users\CYMR90~1\AppData\Local\Temp\ccScBURM.s:23920  .debug_str:0000000000013738 .LASF1384
C:\Users\CYMR90~1\AppData\Local\Temp\ccScBURM.s:25693  .debug_str:000000000001aac2 .LASF1385
C:\Users\CYMR90~1\AppData\Local\Temp\ccScBURM.s:28751  .debug_str:0000000000026bdb .LASF1386
C:\Users\CYMR90~1\AppData\Local\Temp\ccScBURM.s:20602  .debug_str:0000000000005f4f .LASF1387
C:\Users\CYMR90~1\AppData\Local\Temp\ccScBURM.s:23652  .debug_str:0000000000012506 .LASF1388
C:\Users\CYMR90~1\AppData\Local\Temp\ccScBURM.s:23018  .debug_str:000000000000fc6d .LASF1389
C:\Users\CYMR90~1\AppData\Local\Temp\ccScBURM.s:25987  .debug_str:000000000001bd55 .LASF1390
C:\Users\CYMR90~1\AppData\Local\Temp\ccScBURM.s:29089  .debug_str:00000000000282e3 .LASF1391
C:\Users\CYMR90~1\AppData\Local\Temp\ccScBURM.s:20948  .debug_str:0000000000007595 .LASF1392
C:\Users\CYMR90~1\AppData\Local\Temp\ccScBURM.s:24040  .debug_str:0000000000013e50 .LASF1393
C:\Users\CYMR90~1\AppData\Local\Temp\ccScBURM.s:24190  .debug_str:00000000000147ee .LASF1394
C:\Users\CYMR90~1\AppData\Local\Temp\ccScBURM.s:30301  .debug_str:000000000002d09e .LASF1395
C:\Users\CYMR90~1\AppData\Local\Temp\ccScBURM.s:22188  .debug_str:000000000000c7ae .LASF1396
C:\Users\CYMR90~1\AppData\Local\Temp\ccScBURM.s:26719  .debug_str:000000000001ec34 .LASF1397
C:\Users\CYMR90~1\AppData\Local\Temp\ccScBURM.s:23364  .debug_str:00000000000111d8 .LASF1398
C:\Users\CYMR90~1\AppData\Local\Temp\ccScBURM.s:24628  .debug_str:0000000000016334 .LASF1399
C:\Users\CYMR90~1\AppData\Local\Temp\ccScBURM.s:19396  .debug_str:000000000000125f .LASF1400
C:\Users\CYMR90~1\AppData\Local\Temp\ccScBURM.s:27053  .debug_str:000000000002009b .LASF1401
C:\Users\CYMR90~1\AppData\Local\Temp\ccScBURM.s:22012  .debug_str:000000000000bb64 .LASF1402
C:\Users\CYMR90~1\AppData\Local\Temp\ccScBURM.s:26819  .debug_str:000000000001f265 .LASF1403
C:\Users\CYMR90~1\AppData\Local\Temp\ccScBURM.s:20116  .debug_str:0000000000004039 .LASF1404
C:\Users\CYMR90~1\AppData\Local\Temp\ccScBURM.s:29567  .debug_str:000000000002a0e8 .LASF1405
C:\Users\CYMR90~1\AppData\Local\Temp\ccScBURM.s:27769  .debug_str:0000000000022c63 .LASF1406
C:\Users\CYMR90~1\AppData\Local\Temp\ccScBURM.s:27927  .debug_str:0000000000023597 .LASF1407
C:\Users\CYMR90~1\AppData\Local\Temp\ccScBURM.s:19782  .debug_str:0000000000002a2b .LASF1408
C:\Users\CYMR90~1\AppData\Local\Temp\ccScBURM.s:22922  .debug_str:000000000000f634 .LASF1409
C:\Users\CYMR90~1\AppData\Local\Temp\ccScBURM.s:29315  .debug_str:0000000000029145 .LASF1410
C:\Users\CYMR90~1\AppData\Local\Temp\ccScBURM.s:21174  .debug_str:0000000000008590 .LASF1411
C:\Users\CYMR90~1\AppData\Local\Temp\ccScBURM.s:26695  .debug_str:000000000001ead4 .LASF1412
C:\Users\CYMR90~1\AppData\Local\Temp\ccScBURM.s:27355  .debug_str:0000000000021362 .LASF1413
C:\Users\CYMR90~1\AppData\Local\Temp\ccScBURM.s:19244  .debug_str:00000000000008b9 .LASF1414
C:\Users\CYMR90~1\AppData\Local\Temp\ccScBURM.s:22280  .debug_str:000000000000ce4f .LASF1415
C:\Users\CYMR90~1\AppData\Local\Temp\ccScBURM.s:25373  .debug_str:00000000000194de .LASF1416
C:\Users\CYMR90~1\AppData\Local\Temp\ccScBURM.s:26881  .debug_str:000000000001f603 .LASF1417
C:\Users\CYMR90~1\AppData\Local\Temp\ccScBURM.s:20306  .debug_str:0000000000004d64 .LASF1418
C:\Users\CYMR90~1\AppData\Local\Temp\ccScBURM.s:23350  .debug_str:00000000000110f9 .LASF1419
C:\Users\CYMR90~1\AppData\Local\Temp\ccScBURM.s:22698  .debug_str:000000000000e8bb .LASF1420
C:\Users\CYMR90~1\AppData\Local\Temp\ccScBURM.s:25805  .debug_str:000000000001b252 .LASF1421
C:\Users\CYMR90~1\AppData\Local\Temp\ccScBURM.s:28863  .debug_str:0000000000027376 .LASF1422
C:\Users\CYMR90~1\AppData\Local\Temp\ccScBURM.s:20728  .debug_str:00000000000066fa .LASF1423
C:\Users\CYMR90~1\AppData\Local\Temp\ccScBURM.s:23858  .debug_str:000000000001327e .LASF1424
C:\Users\CYMR90~1\AppData\Local\Temp\ccScBURM.s:26811  .debug_str:000000000001f1cc .LASF1425
C:\Users\CYMR90~1\AppData\Local\Temp\ccScBURM.s:30019  .debug_str:000000000002be08 .LASF1426
C:\Users\CYMR90~1\AppData\Local\Temp\ccScBURM.s:21884  .debug_str:000000000000b2bc .LASF1427
C:\Users\CYMR90~1\AppData\Local\Temp\ccScBURM.s:24955  .debug_str:0000000000017a23 .LASF1428
C:\Users\CYMR90~1\AppData\Local\Temp\ccScBURM.s:28057  .debug_str:0000000000023d5c .LASF1429
C:\Users\CYMR90~1\AppData\Local\Temp\ccScBURM.s:26821  .debug_str:000000000001f27d .LASF1430
C:\Users\CYMR90~1\AppData\Local\Temp\ccScBURM.s:19206  .debug_str:0000000000000670 .LASF1431
C:\Users\CYMR90~1\AppData\Local\Temp\ccScBURM.s:23392  .debug_str:000000000001137f .LASF1432
C:\Users\CYMR90~1\AppData\Local\Temp\ccScBURM.s:27057  .debug_str:00000000000200c5 .LASF1433
C:\Users\CYMR90~1\AppData\Local\Temp\ccScBURM.s:26103  .debug_str:000000000001c460 .LASF1434
C:\Users\CYMR90~1\AppData\Local\Temp\ccScBURM.s:25159  .debug_str:0000000000018615 .LASF1435
C:\Users\CYMR90~1\AppData\Local\Temp\ccScBURM.s:24588  .debug_str:00000000000160ee .LASF1436
C:\Users\CYMR90~1\AppData\Local\Temp\ccScBURM.s:28895  .debug_str:0000000000027521 .LASF1437
C:\Users\CYMR90~1\AppData\Local\Temp\ccScBURM.s:27945  .debug_str:0000000000023707 .LASF1438
C:\Users\CYMR90~1\AppData\Local\Temp\ccScBURM.s:26977  .debug_str:000000000001fbe4 .LASF1439
C:\Users\CYMR90~1\AppData\Local\Temp\ccScBURM.s:26029  .debug_str:000000000001c00f .LASF1440
C:\Users\CYMR90~1\AppData\Local\Temp\ccScBURM.s:25085  .debug_str:00000000000181d3 .LASF1441
C:\Users\CYMR90~1\AppData\Local\Temp\ccScBURM.s:24128  .debug_str:00000000000143d9 .LASF1442
C:\Users\CYMR90~1\AppData\Local\Temp\ccScBURM.s:23204  .debug_str:00000000000107ee .LASF1443
C:\Users\CYMR90~1\AppData\Local\Temp\ccScBURM.s:29977  .debug_str:000000000002badf .LASF1444
C:\Users\CYMR90~1\AppData\Local\Temp\ccScBURM.s:21288  .debug_str:0000000000008c8c .LASF1445
C:\Users\CYMR90~1\AppData\Local\Temp\ccScBURM.s:22834  .debug_str:000000000000f0be .LASF1446
C:\Users\CYMR90~1\AppData\Local\Temp\ccScBURM.s:28283  .debug_str:0000000000024d16 .LASF1447
C:\Users\CYMR90~1\AppData\Local\Temp\ccScBURM.s:27333  .debug_str:000000000002116d .LASF1448
C:\Users\CYMR90~1\AppData\Local\Temp\ccScBURM.s:26361  .debug_str:000000000001d66e .LASF1449
C:\Users\CYMR90~1\AppData\Local\Temp\ccScBURM.s:25439  .debug_str:000000000001999c .LASF1450
C:\Users\CYMR90~1\AppData\Local\Temp\ccScBURM.s:24460  .debug_str:0000000000015854 .LASF1451
C:\Users\CYMR90~1\AppData\Local\Temp\ccScBURM.s:21882  .debug_str:000000000000b2a9 .LASF1452
C:\Users\CYMR90~1\AppData\Local\Temp\ccScBURM.s:20514  .debug_str:00000000000059ee .LASF1453
C:\Users\CYMR90~1\AppData\Local\Temp\ccScBURM.s:21688  .debug_str:000000000000a5ef .LASF1454
C:\Users\CYMR90~1\AppData\Local\Temp\ccScBURM.s:26723  .debug_str:000000000001ec76 .LASF1455
C:\Users\CYMR90~1\AppData\Local\Temp\ccScBURM.s:28333  .debug_str:000000000002509a .LASF1456
C:\Users\CYMR90~1\AppData\Local\Temp\ccScBURM.s:20482  .debug_str:0000000000005820 .LASF1457
C:\Users\CYMR90~1\AppData\Local\Temp\ccScBURM.s:26805  .debug_str:000000000001f17e .LASF1458
C:\Users\CYMR90~1\AppData\Local\Temp\ccScBURM.s:23672  .debug_str:0000000000012648 .LASF1459
C:\Users\CYMR90~1\AppData\Local\Temp\ccScBURM.s:21792  .debug_str:000000000000ac5f .LASF1460
C:\Users\CYMR90~1\AppData\Local\Temp\ccScBURM.s:22976  .debug_str:000000000000fa09 .LASF1461
C:\Users\CYMR90~1\AppData\Local\Temp\ccScBURM.s:23464  .debug_str:0000000000011899 .LASF1462
C:\Users\CYMR90~1\AppData\Local\Temp\ccScBURM.s:24520  .debug_str:0000000000015c08 .LASF1463
C:\Users\CYMR90~1\AppData\Local\Temp\ccScBURM.s:29755  .debug_str:000000000002ac60 .LASF1464
C:\Users\CYMR90~1\AppData\Local\Temp\ccScBURM.s:25705  .debug_str:000000000001ab87 .LASF1465
C:\Users\CYMR90~1\AppData\Local\Temp\ccScBURM.s:24132  .debug_str:0000000000014400 .LASF1466
C:\Users\CYMR90~1\AppData\Local\Temp\ccScBURM.s:28781  .debug_str:0000000000026dd0 .LASF1467
C:\Users\CYMR90~1\AppData\Local\Temp\ccScBURM.s:23148  .debug_str:0000000000010488 .LASF1468
C:\Users\CYMR90~1\AppData\Local\Temp\ccScBURM.s:21246  .debug_str:0000000000008a15 .LASF1469
C:\Users\CYMR90~1\AppData\Local\Temp\ccScBURM.s:23440  .debug_str:0000000000011695 .LASF1470
C:\Users\CYMR90~1\AppData\Local\Temp\ccScBURM.s:24981  .debug_str:0000000000017b92 .LASF1471
C:\Users\CYMR90~1\AppData\Local\Temp\ccScBURM.s:28237  .debug_str:0000000000024a1f .LASF1472
C:\Users\CYMR90~1\AppData\Local\Temp\ccScBURM.s:28869  .debug_str:00000000000273bb .LASF1473
C:\Users\CYMR90~1\AppData\Local\Temp\ccScBURM.s:19296  .debug_str:0000000000000c3e .LASF1474
C:\Users\CYMR90~1\AppData\Local\Temp\ccScBURM.s:21176  .debug_str:00000000000085a9 .LASF1475
C:\Users\CYMR90~1\AppData\Local\Temp\ccScBURM.s:29489  .debug_str:0000000000029c83 .LASF1476
C:\Users\CYMR90~1\AppData\Local\Temp\ccScBURM.s:30051  .debug_str:000000000002c008 .LASF1477
C:\Users\CYMR90~1\AppData\Local\Temp\ccScBURM.s:28091  .debug_str:0000000000024012 .LASF1478
C:\Users\CYMR90~1\AppData\Local\Temp\ccScBURM.s:19932  .debug_str:0000000000003425 .LASF1479
C:\Users\CYMR90~1\AppData\Local\Temp\ccScBURM.s:22140  .debug_str:000000000000c49f .LASF1480
C:\Users\CYMR90~1\AppData\Local\Temp\ccScBURM.s:28205  .debug_str:000000000002482b .LASF1481
C:\Users\CYMR90~1\AppData\Local\Temp\ccScBURM.s:21484  .debug_str:00000000000098fe .LASF1482
C:\Users\CYMR90~1\AppData\Local\Temp\ccScBURM.s:20312  .debug_str:0000000000004dbd .LASF1483
C:\Users\CYMR90~1\AppData\Local\Temp\ccScBURM.s:22708  .debug_str:000000000000e957 .LASF1484
C:\Users\CYMR90~1\AppData\Local\Temp\ccScBURM.s:24100  .debug_str:0000000000014252 .LASF1485
C:\Users\CYMR90~1\AppData\Local\Temp\ccScBURM.s:25689  .debug_str:000000000001aa93 .LASF1486
C:\Users\CYMR90~1\AppData\Local\Temp\ccScBURM.s:19132  .debug_str:000000000000021d .LASF1487
C:\Users\CYMR90~1\AppData\Local\Temp\ccScBURM.s:24478  .debug_str:0000000000015951 .LASF1488
C:\Users\CYMR90~1\AppData\Local\Temp\ccScBURM.s:22508  .debug_str:000000000000dcbd .LASF1489
C:\Users\CYMR90~1\AppData\Local\Temp\ccScBURM.s:29281  .debug_str:0000000000028f3f .LASF1490
C:\Users\CYMR90~1\AppData\Local\Temp\ccScBURM.s:19776  .debug_str:00000000000029c4 .LASF1491
C:\Users\CYMR90~1\AppData\Local\Temp\ccScBURM.s:27287  .debug_str:0000000000020eff .LASF1492
C:\Users\CYMR90~1\AppData\Local\Temp\ccScBURM.s:29497  .debug_str:0000000000029ce5 .LASF1493
C:\Users\CYMR90~1\AppData\Local\Temp\ccScBURM.s:20934  .debug_str:00000000000074ca .LASF1494
C:\Users\CYMR90~1\AppData\Local\Temp\ccScBURM.s:28555  .debug_str:0000000000025ff3 .LASF1495
C:\Users\CYMR90~1\AppData\Local\Temp\ccScBURM.s:29253  .debug_str:0000000000028d72 .LASF1496
C:\Users\CYMR90~1\AppData\Local\Temp\ccScBURM.s:20734  .debug_str:0000000000006752 .LASF1497
C:\Users\CYMR90~1\AppData\Local\Temp\ccScBURM.s:21574  .debug_str:0000000000009e96 .LASF1498
C:\Users\CYMR90~1\AppData\Local\Temp\ccScBURM.s:30179  .debug_str:000000000002c8a7 .LASF1499
C:\Users\CYMR90~1\AppData\Local\Temp\ccScBURM.s:29411  .debug_str:00000000000297d1 .LASF1500
C:\Users\CYMR90~1\AppData\Local\Temp\ccScBURM.s:27189  .debug_str:0000000000020959 .LASF1501
C:\Users\CYMR90~1\AppData\Local\Temp\ccScBURM.s:20714  .debug_str:0000000000006616 .LASF1502
C:\Users\CYMR90~1\AppData\Local\Temp\ccScBURM.s:22250  .debug_str:000000000000ccc5 .LASF1503
C:\Users\CYMR90~1\AppData\Local\Temp\ccScBURM.s:26561  .debug_str:000000000001e2c7 .LASF1504
C:\Users\CYMR90~1\AppData\Local\Temp\ccScBURM.s:25887  .debug_str:000000000001b73b .LASF1505
C:\Users\CYMR90~1\AppData\Local\Temp\ccScBURM.s:22828  .debug_str:000000000000f06f .LASF1506
C:\Users\CYMR90~1\AppData\Local\Temp\ccScBURM.s:27387  .debug_str:0000000000021540 .LASF1507
C:\Users\CYMR90~1\AppData\Local\Temp\ccScBURM.s:23618  .debug_str:00000000000122c4 .LASF1508
C:\Users\CYMR90~1\AppData\Local\Temp\ccScBURM.s:29157  .debug_str:000000000002879d .LASF1509
C:\Users\CYMR90~1\AppData\Local\Temp\ccScBURM.s:27959  .debug_str:00000000000237c1 .LASF1510
C:\Users\CYMR90~1\AppData\Local\Temp\ccScBURM.s:19978  .debug_str:0000000000003721 .LASF1511
C:\Users\CYMR90~1\AppData\Local\Temp\ccScBURM.s:24542  .debug_str:0000000000015dcf .LASF1512
C:\Users\CYMR90~1\AppData\Local\Temp\ccScBURM.s:28359  .debug_str:00000000000252c9 .LASF1513
C:\Users\CYMR90~1\AppData\Local\Temp\ccScBURM.s:26781  .debug_str:000000000001f032 .LASF1514
C:\Users\CYMR90~1\AppData\Local\Temp\ccScBURM.s:29919  .debug_str:000000000002b6e9 .LASF1515
C:\Users\CYMR90~1\AppData\Local\Temp\ccScBURM.s:26613  .debug_str:000000000001e5bd .LASF1516
C:\Users\CYMR90~1\AppData\Local\Temp\ccScBURM.s:28591  .debug_str:00000000000261fe .LASF1517
C:\Users\CYMR90~1\AppData\Local\Temp\ccScBURM.s:23608  .debug_str:0000000000012253 .LASF1518
C:\Users\CYMR90~1\AppData\Local\Temp\ccScBURM.s:27003  .debug_str:000000000001fd97 .LASF1519
C:\Users\CYMR90~1\AppData\Local\Temp\ccScBURM.s:26061  .debug_str:000000000001c20d .LASF1520
C:\Users\CYMR90~1\AppData\Local\Temp\ccScBURM.s:27325  .debug_str:00000000000210fe .LASF1521
C:\Users\CYMR90~1\AppData\Local\Temp\ccScBURM.s:25349  .debug_str:0000000000019336 .LASF1522
C:\Users\CYMR90~1\AppData\Local\Temp\ccScBURM.s:27961  .debug_str:00000000000237d7 .LASF1523
C:\Users\CYMR90~1\AppData\Local\Temp\ccScBURM.s:20382  .debug_str:00000000000051ef .LASF1524
C:\Users\CYMR90~1\AppData\Local\Temp\ccScBURM.s:26001  .debug_str:000000000001be4e .LASF1525
C:\Users\CYMR90~1\AppData\Local\Temp\ccScBURM.s:22162  .debug_str:000000000000c601 .LASF1526
C:\Users\CYMR90~1\AppData\Local\Temp\ccScBURM.s:27719  .debug_str:0000000000022924 .LASF1527
C:\Users\CYMR90~1\AppData\Local\Temp\ccScBURM.s:28951  .debug_str:00000000000278b8 .LASF1528
C:\Users\CYMR90~1\AppData\Local\Temp\ccScBURM.s:28197  .debug_str:0000000000024726 .LASF1529
C:\Users\CYMR90~1\AppData\Local\Temp\ccScBURM.s:28261  .debug_str:0000000000024b91 .LASF1530
C:\Users\CYMR90~1\AppData\Local\Temp\ccScBURM.s:20136  .debug_str:0000000000004150 .LASF1531
C:\Users\CYMR90~1\AppData\Local\Temp\ccScBURM.s:25299  .debug_str:0000000000018f8b .LASF1532
C:\Users\CYMR90~1\AppData\Local\Temp\ccScBURM.s:28085  .debug_str:0000000000023ed2 .LASF1533
C:\Users\CYMR90~1\AppData\Local\Temp\ccScBURM.s:22232  .debug_str:000000000000cb05 .LASF1534
C:\Users\CYMR90~1\AppData\Local\Temp\ccScBURM.s:28265  .debug_str:0000000000024c11 .LASF1535
C:\Users\CYMR90~1\AppData\Local\Temp\ccScBURM.s:27627  .debug_str:00000000000223c5 .LASF1536
C:\Users\CYMR90~1\AppData\Local\Temp\ccScBURM.s:28825  .debug_str:000000000002707b .LASF1537
C:\Users\CYMR90~1\AppData\Local\Temp\ccScBURM.s:28719  .debug_str:00000000000269d1 .LASF1538
C:\Users\CYMR90~1\AppData\Local\Temp\ccScBURM.s:23490  .debug_str:0000000000011ad2 .LASF1539
C:\Users\CYMR90~1\AppData\Local\Temp\ccScBURM.s:29437  .debug_str:0000000000029959 .LASF1540
C:\Users\CYMR90~1\AppData\Local\Temp\ccScBURM.s:22486  .debug_str:000000000000dba9 .LASF1541
C:\Users\CYMR90~1\AppData\Local\Temp\ccScBURM.s:19898  .debug_str:00000000000031c5 .LASF1542
C:\Users\CYMR90~1\AppData\Local\Temp\ccScBURM.s:23060  .debug_str:000000000000ff19 .LASF1543
C:\Users\CYMR90~1\AppData\Local\Temp\ccScBURM.s:21110  .debug_str:0000000000008132 .LASF1544
C:\Users\CYMR90~1\AppData\Local\Temp\ccScBURM.s:21582  .debug_str:0000000000009f09 .LASF1545
C:\Users\CYMR90~1\AppData\Local\Temp\ccScBURM.s:22218  .debug_str:000000000000ca06 .LASF1546
C:\Users\CYMR90~1\AppData\Local\Temp\ccScBURM.s:29031  .debug_str:0000000000027e49 .LASF1547
C:\Users\CYMR90~1\AppData\Local\Temp\ccScBURM.s:28525  .debug_str:0000000000025ddb .LASF1548
C:\Users\CYMR90~1\AppData\Local\Temp\ccScBURM.s:25951  .debug_str:000000000001bab8 .LASF1549
C:\Users\CYMR90~1\AppData\Local\Temp\ccScBURM.s:23360  .debug_str:000000000001118a .LASF1550
C:\Users\CYMR90~1\AppData\Local\Temp\ccScBURM.s:25921  .debug_str:000000000001b90a .LASF1551
C:\Users\CYMR90~1\AppData\Local\Temp\ccScBURM.s:19364  .debug_str:0000000000001077 .LASF1552
C:\Users\CYMR90~1\AppData\Local\Temp\ccScBURM.s:19676  .debug_str:0000000000002331 .LASF1553
C:\Users\CYMR90~1\AppData\Local\Temp\ccScBURM.s:26649  .debug_str:000000000001e83b .LASF1554
C:\Users\CYMR90~1\AppData\Local\Temp\ccScBURM.s:25253  .debug_str:0000000000018cc2 .LASF1555
C:\Users\CYMR90~1\AppData\Local\Temp\ccScBURM.s:25275  .debug_str:0000000000018e1b .LASF1556
C:\Users\CYMR90~1\AppData\Local\Temp\ccScBURM.s:29523  .debug_str:0000000000029e4b .LASF1557
C:\Users\CYMR90~1\AppData\Local\Temp\ccScBURM.s:23200  .debug_str:00000000000107c2 .LASF1558
C:\Users\CYMR90~1\AppData\Local\Temp\ccScBURM.s:27971  .debug_str:0000000000023850 .LASF1559
C:\Users\CYMR90~1\AppData\Local\Temp\ccScBURM.s:28387  .debug_str:00000000000254ca .LASF1560
C:\Users\CYMR90~1\AppData\Local\Temp\ccScBURM.s:23310  .debug_str:0000000000010eb6 .LASF1561
C:\Users\CYMR90~1\AppData\Local\Temp\ccScBURM.s:22986  .debug_str:000000000000fa86 .LASF1562
C:\Users\CYMR90~1\AppData\Local\Temp\ccScBURM.s:30017  .debug_str:000000000002bd62 .LASF1563
C:\Users\CYMR90~1\AppData\Local\Temp\ccScBURM.s:20742  .debug_str:00000000000067bb .LASF1564
C:\Users\CYMR90~1\AppData\Local\Temp\ccScBURM.s:26359  .debug_str:000000000001d5e0 .LASF1565
C:\Users\CYMR90~1\AppData\Local\Temp\ccScBURM.s:25643  .debug_str:000000000001a743 .LASF1566
C:\Users\CYMR90~1\AppData\Local\Temp\ccScBURM.s:27125  .debug_str:0000000000020508 .LASF1567
C:\Users\CYMR90~1\AppData\Local\Temp\ccScBURM.s:23488  .debug_str:0000000000011a2b .LASF1568
C:\Users\CYMR90~1\AppData\Local\Temp\ccScBURM.s:28413  .debug_str:00000000000256a0 .LASF1569
C:\Users\CYMR90~1\AppData\Local\Temp\ccScBURM.s:23878  .debug_str:0000000000013464 .LASF1570
C:\Users\CYMR90~1\AppData\Local\Temp\ccScBURM.s:20430  .debug_str:00000000000054e5 .LASF1571
C:\Users\CYMR90~1\AppData\Local\Temp\ccScBURM.s:24288  .debug_str:0000000000014e3b .LASF1572
C:\Users\CYMR90~1\AppData\Local\Temp\ccScBURM.s:29145  .debug_str:00000000000286d3 .LASF1573
C:\Users\CYMR90~1\AppData\Local\Temp\ccScBURM.s:24751  .debug_str:0000000000016d67 .LASF1574
C:\Users\CYMR90~1\AppData\Local\Temp\ccScBURM.s:22864  .debug_str:000000000000f298 .LASF1575
C:\Users\CYMR90~1\AppData\Local\Temp\ccScBURM.s:26653  .debug_str:000000000001e87d .LASF1576
C:\Users\CYMR90~1\AppData\Local\Temp\ccScBURM.s:29631  .debug_str:000000000002a4ed .LASF1577
C:\Users\CYMR90~1\AppData\Local\Temp\ccScBURM.s:19686  .debug_str:00000000000023bc .LASF1578
C:\Users\CYMR90~1\AppData\Local\Temp\ccScBURM.s:26205  .debug_str:000000000001cb67 .LASF1579
C:\Users\CYMR90~1\AppData\Local\Temp\ccScBURM.s:21694  .debug_str:000000000000a642 .LASF1580
C:\Users\CYMR90~1\AppData\Local\Temp\ccScBURM.s:22402  .debug_str:000000000000d6ce .LASF1581
C:\Users\CYMR90~1\AppData\Local\Temp\ccScBURM.s:21100  .debug_str:0000000000008006 .LASF1582
C:\Users\CYMR90~1\AppData\Local\Temp\ccScBURM.s:28827  .debug_str:0000000000027099 .LASF1583
C:\Users\CYMR90~1\AppData\Local\Temp\ccScBURM.s:26459  .debug_str:000000000001dc25 .LASF1584
C:\Users\CYMR90~1\AppData\Local\Temp\ccScBURM.s:30231  .debug_str:000000000002cba7 .LASF1585
C:\Users\CYMR90~1\AppData\Local\Temp\ccScBURM.s:22376  .debug_str:000000000000d484 .LASF1586
C:\Users\CYMR90~1\AppData\Local\Temp\ccScBURM.s:21060  .debug_str:0000000000007ce3 .LASF1587
C:\Users\CYMR90~1\AppData\Local\Temp\ccScBURM.s:24726  .debug_str:00000000000169b8 .LASF1588
C:\Users\CYMR90~1\AppData\Local\Temp\ccScBURM.s:21912  .debug_str:000000000000b466 .LASF1589
C:\Users\CYMR90~1\AppData\Local\Temp\ccScBURM.s:24652  .debug_str:0000000000016465 .LASF1590
C:\Users\CYMR90~1\AppData\Local\Temp\ccScBURM.s:21298  .debug_str:0000000000008cfa .LASF1591
C:\Users\CYMR90~1\AppData\Local\Temp\ccScBURM.s:23870  .debug_str:000000000001337f .LASF1592
C:\Users\CYMR90~1\AppData\Local\Temp\ccScBURM.s:29323  .debug_str:00000000000291a9 .LASF1593
C:\Users\CYMR90~1\AppData\Local\Temp\ccScBURM.s:29063  .debug_str:00000000000280b7 .LASF1594
C:\Users\CYMR90~1\AppData\Local\Temp\ccScBURM.s:19332  .debug_str:0000000000000e49 .LASF1595
C:\Users\CYMR90~1\AppData\Local\Temp\ccScBURM.s:26231  .debug_str:000000000001cd2f .LASF1596
C:\Users\CYMR90~1\AppData\Local\Temp\ccScBURM.s:20242  .debug_str:00000000000048d4 .LASF1597
C:\Users\CYMR90~1\AppData\Local\Temp\ccScBURM.s:28335  .debug_str:00000000000250a9 .LASF1598
C:\Users\CYMR90~1\AppData\Local\Temp\ccScBURM.s:19472  .debug_str:00000000000016d0 .LASF1599
C:\Users\CYMR90~1\AppData\Local\Temp\ccScBURM.s:22950  .debug_str:000000000000f7bd .LASF1600
C:\Users\CYMR90~1\AppData\Local\Temp\ccScBURM.s:27349  .debug_str:0000000000021265 .LASF1601
C:\Users\CYMR90~1\AppData\Local\Temp\ccScBURM.s:26257  .debug_str:000000000001cf55 .LASF1602
C:\Users\CYMR90~1\AppData\Local\Temp\ccScBURM.s:26149  .debug_str:000000000001c738 .LASF1603
C:\Users\CYMR90~1\AppData\Local\Temp\ccScBURM.s:28315  .debug_str:0000000000024ee8 .LASF1604
C:\Users\CYMR90~1\AppData\Local\Temp\ccScBURM.s:28239  .debug_str:0000000000024a35 .LASF1605
C:\Users\CYMR90~1\AppData\Local\Temp\ccScBURM.s:28191  .debug_str:00000000000246d2 .LASF1606
C:\Users\CYMR90~1\AppData\Local\Temp\ccScBURM.s:25197  .debug_str:0000000000018894 .LASF1607
C:\Users\CYMR90~1\AppData\Local\Temp\ccScBURM.s:20220  .debug_str:0000000000004747 .LASF1608
C:\Users\CYMR90~1\AppData\Local\Temp\ccScBURM.s:27557  .debug_str:0000000000021fc1 .LASF1609
C:\Users\CYMR90~1\AppData\Local\Temp\ccScBURM.s:30141  .debug_str:000000000002c5dd .LASF1610
C:\Users\CYMR90~1\AppData\Local\Temp\ccScBURM.s:26099  .debug_str:000000000001c424 .LASF1611
C:\Users\CYMR90~1\AppData\Local\Temp\ccScBURM.s:24176  .debug_str:000000000001471e .LASF1612
C:\Users\CYMR90~1\AppData\Local\Temp\ccScBURM.s:21568  .debug_str:0000000000009e38 .LASF1613
C:\Users\CYMR90~1\AppData\Local\Temp\ccScBURM.s:25789  .debug_str:000000000001b10c .LASF1614
C:\Users\CYMR90~1\AppData\Local\Temp\ccScBURM.s:27445  .debug_str:00000000000218bf .LASF1615
C:\Users\CYMR90~1\AppData\Local\Temp\ccScBURM.s:24262  .debug_str:0000000000014c42 .LASF1616
C:\Users\CYMR90~1\AppData\Local\Temp\ccScBURM.s:26161  .debug_str:000000000001c8ac .LASF1617
C:\Users\CYMR90~1\AppData\Local\Temp\ccScBURM.s:20266  .debug_str:0000000000004add .LASF1618
C:\Users\CYMR90~1\AppData\Local\Temp\ccScBURM.s:21946  .debug_str:000000000000b737 .LASF1619
C:\Users\CYMR90~1\AppData\Local\Temp\ccScBURM.s:22782  .debug_str:000000000000edf4 .LASF1620
C:\Users\CYMR90~1\AppData\Local\Temp\ccScBURM.s:19836  .debug_str:0000000000002dc6 .LASF1621
C:\Users\CYMR90~1\AppData\Local\Temp\ccScBURM.s:27155  .debug_str:0000000000020715 .LASF1622
C:\Users\CYMR90~1\AppData\Local\Temp\ccScBURM.s:23872  .debug_str:000000000001341a .LASF1623
C:\Users\CYMR90~1\AppData\Local\Temp\ccScBURM.s:22048  .debug_str:000000000000befa .LASF1624
C:\Users\CYMR90~1\AppData\Local\Temp\ccScBURM.s:27843  .debug_str:0000000000023053 .LASF1625
C:\Users\CYMR90~1\AppData\Local\Temp\ccScBURM.s:20738  .debug_str:000000000000678d .LASF1626
C:\Users\CYMR90~1\AppData\Local\Temp\ccScBURM.s:26899  .debug_str:000000000001f710 .LASF1627
C:\Users\CYMR90~1\AppData\Local\Temp\ccScBURM.s:21806  .debug_str:000000000000ad39 .LASF1628
C:\Users\CYMR90~1\AppData\Local\Temp\ccScBURM.s:27637  .debug_str:0000000000022431 .LASF1629
C:\Users\CYMR90~1\AppData\Local\Temp\ccScBURM.s:21282  .debug_str:0000000000008c35 .LASF1630
C:\Users\CYMR90~1\AppData\Local\Temp\ccScBURM.s:19430  .debug_str:000000000000146f .LASF1631
C:\Users\CYMR90~1\AppData\Local\Temp\ccScBURM.s:25899  .debug_str:000000000001b822 .LASF1632
C:\Users\CYMR90~1\AppData\Local\Temp\ccScBURM.s:24889  .debug_str:00000000000175b9 .LASF1633
C:\Users\CYMR90~1\AppData\Local\Temp\ccScBURM.s:22026  .debug_str:000000000000bc5b .LASF1634
C:\Users\CYMR90~1\AppData\Local\Temp\ccScBURM.s:22134  .debug_str:000000000000c459 .LASF1635
C:\Users\CYMR90~1\AppData\Local\Temp\ccScBURM.s:25761  .debug_str:000000000001af56 .LASF1636
C:\Users\CYMR90~1\AppData\Local\Temp\ccScBURM.s:22202  .debug_str:000000000000c8f3 .LASF1637
C:\Users\CYMR90~1\AppData\Local\Temp\ccScBURM.s:21922  .debug_str:000000000000b58b .LASF1638
C:\Users\CYMR90~1\AppData\Local\Temp\ccScBURM.s:25101  .debug_str:00000000000182c6 .LASF1639
C:\Users\CYMR90~1\AppData\Local\Temp\ccScBURM.s:23154  .debug_str:00000000000104e4 .LASF1640
C:\Users\CYMR90~1\AppData\Local\Temp\ccScBURM.s:28183  .debug_str:000000000002465c .LASF1641
C:\Users\CYMR90~1\AppData\Local\Temp\ccScBURM.s:23498  .debug_str:0000000000011b73 .LASF1642
C:\Users\CYMR90~1\AppData\Local\Temp\ccScBURM.s:27041  .debug_str:000000000001ffed .LASF1643
C:\Users\CYMR90~1\AppData\Local\Temp\ccScBURM.s:30109  .debug_str:000000000002c43e .LASF1644
C:\Users\CYMR90~1\AppData\Local\Temp\ccScBURM.s:19824  .debug_str:0000000000002cf3 .LASF1645
C:\Users\CYMR90~1\AppData\Local\Temp\ccScBURM.s:24688  .debug_str:00000000000166f4 .LASF1646
C:\Users\CYMR90~1\AppData\Local\Temp\ccScBURM.s:24797  .debug_str:0000000000017053 .LASF1647
C:\Users\CYMR90~1\AppData\Local\Temp\ccScBURM.s:19626  .debug_str:0000000000002062 .LASF1648
C:\Users\CYMR90~1\AppData\Local\Temp\ccScBURM.s:21126  .debug_str:0000000000008269 .LASF1649
C:\Users\CYMR90~1\AppData\Local\Temp\ccScBURM.s:27859  .debug_str:0000000000023153 .LASF1650
C:\Users\CYMR90~1\AppData\Local\Temp\ccScBURM.s:23246  .debug_str:0000000000010a36 .LASF1651
C:\Users\CYMR90~1\AppData\Local\Temp\ccScBURM.s:21018  .debug_str:0000000000007a18 .LASF1652
C:\Users\CYMR90~1\AppData\Local\Temp\ccScBURM.s:19370  .debug_str:00000000000010e8 .LASF1653
C:\Users\CYMR90~1\AppData\Local\Temp\ccScBURM.s:24995  .debug_str:0000000000017c55 .LASF1656
C:\Users\CYMR90~1\AppData\Local\Temp\ccScBURM.s:29681  .debug_str:000000000002a80d .LASF1657
C:\Users\CYMR90~1\AppData\Local\Temp\ccScBURM.s:23278  .debug_str:0000000000010d2e .LASF1658
C:\Users\CYMR90~1\AppData\Local\Temp\ccScBURM.s:25323  .debug_str:00000000000191d2 .LASF1659
C:\Users\CYMR90~1\AppData\Local\Temp\ccScBURM.s:29915  .debug_str:000000000002b6aa .LASF1660
C:\Users\CYMR90~1\AppData\Local\Temp\ccScBURM.s:29949  .debug_str:000000000002b906 .LASF1661
C:\Users\CYMR90~1\AppData\Local\Temp\ccScBURM.s:27239  .debug_str:0000000000020c69 .LASF1662
C:\Users\CYMR90~1\AppData\Local\Temp\ccScBURM.s:24224  .debug_str:00000000000149cc .LASF1663
C:\Users\CYMR90~1\AppData\Local\Temp\ccScBURM.s:26407  .debug_str:000000000001d926 .LASF1664
C:\Users\CYMR90~1\AppData\Local\Temp\ccScBURM.s:27327  .debug_str:0000000000021119 .LASF1665
C:\Users\CYMR90~1\AppData\Local\Temp\ccScBURM.s:22990  .debug_str:000000000000faac .LASF1666
C:\Users\CYMR90~1\AppData\Local\Temp\ccScBURM.s:22692  .debug_str:000000000000e845 .LASF1667
C:\Users\CYMR90~1\AppData\Local\Temp\ccScBURM.s:20064  .debug_str:0000000000003c96 .LASF1668
C:\Users\CYMR90~1\AppData\Local\Temp\ccScBURM.s:21318  .debug_str:0000000000008ec6 .LASF1669
C:\Users\CYMR90~1\AppData\Local\Temp\ccScBURM.s:20280  .debug_str:0000000000004bbb .LASF1670
C:\Users\CYMR90~1\AppData\Local\Temp\ccScBURM.s:19180  .debug_str:00000000000004dd .LASF1671
C:\Users\CYMR90~1\AppData\Local\Temp\ccScBURM.s:24152  .debug_str:000000000001452a .LASF1672
C:\Users\CYMR90~1\AppData\Local\Temp\ccScBURM.s:23570  .debug_str:0000000000011f9d .LASF1673
C:\Users\CYMR90~1\AppData\Local\Temp\ccScBURM.s:22732  .debug_str:000000000000eacd .LASF1674
C:\Users\CYMR90~1\AppData\Local\Temp\ccScBURM.s:28203  .debug_str:0000000000024811 .LASF1675
C:\Users\CYMR90~1\AppData\Local\Temp\ccScBURM.s:23698  .debug_str:00000000000127f2 .LASF1676
C:\Users\CYMR90~1\AppData\Local\Temp\ccScBURM.s:30111  .debug_str:000000000002c453 .LASF1677
C:\Users\CYMR90~1\AppData\Local\Temp\ccScBURM.s:19734  .debug_str:00000000000026e4 .LASF1678
C:\Users\CYMR90~1\AppData\Local\Temp\ccScBURM.s:23228  .debug_str:000000000001095d .LASF1679
C:\Users\CYMR90~1\AppData\Local\Temp\ccScBURM.s:24388  .debug_str:0000000000015442 .LASF1680
C:\Users\CYMR90~1\AppData\Local\Temp\ccScBURM.s:23078  .debug_str:0000000000010061 .LASF1681
C:\Users\CYMR90~1\AppData\Local\Temp\ccScBURM.s:28939  .debug_str:00000000000277e0 .LASF1682
C:\Users\CYMR90~1\AppData\Local\Temp\ccScBURM.s:27807  .debug_str:0000000000022e96 .LASF1683
C:\Users\CYMR90~1\AppData\Local\Temp\ccScBURM.s:28711  .debug_str:0000000000026976 .LASF1684
C:\Users\CYMR90~1\AppData\Local\Temp\ccScBURM.s:23226  .debug_str:0000000000010945 .LASF1685
C:\Users\CYMR90~1\AppData\Local\Temp\ccScBURM.s:27137  .debug_str:0000000000020606 .LASF1686
C:\Users\CYMR90~1\AppData\Local\Temp\ccScBURM.s:29427  .debug_str:00000000000298ae .LASF1687
C:\Users\CYMR90~1\AppData\Local\Temp\ccScBURM.s:21794  .debug_str:000000000000ac76 .LASF1688
C:\Users\CYMR90~1\AppData\Local\Temp\ccScBURM.s:25861  .debug_str:000000000001b588 .LASF1689
C:\Users\CYMR90~1\AppData\Local\Temp\ccScBURM.s:23958  .debug_str:000000000001397b .LASF1690
C:\Users\CYMR90~1\AppData\Local\Temp\ccScBURM.s:27539  .debug_str:0000000000021ebd .LASF1691
C:\Users\CYMR90~1\AppData\Local\Temp\ccScBURM.s:25185  .debug_str:00000000000187db .LASF1692
C:\Users\CYMR90~1\AppData\Local\Temp\ccScBURM.s:21120  .debug_str:00000000000081f5 .LASF1693
C:\Users\CYMR90~1\AppData\Local\Temp\ccScBURM.s:23150  .debug_str:0000000000010498 .LASF1694
C:\Users\CYMR90~1\AppData\Local\Temp\ccScBURM.s:24965  .debug_str:0000000000017aa2 .LASF1695
C:\Users\CYMR90~1\AppData\Local\Temp\ccScBURM.s:24270  .debug_str:0000000000014cd5 .LASF1696
C:\Users\CYMR90~1\AppData\Local\Temp\ccScBURM.s:26795  .debug_str:000000000001f0eb .LASF1697
C:\Users\CYMR90~1\AppData\Local\Temp\ccScBURM.s:25359  .debug_str:00000000000193fd .LASF1698
C:\Users\CYMR90~1\AppData\Local\Temp\ccScBURM.s:27251  .debug_str:0000000000020d06 .LASF1699
C:\Users\CYMR90~1\AppData\Local\Temp\ccScBURM.s:26791  .debug_str:000000000001f0ae .LASF1700
C:\Users\CYMR90~1\AppData\Local\Temp\ccScBURM.s:28031  .debug_str:0000000000023bb8 .LASF1701
C:\Users\CYMR90~1\AppData\Local\Temp\ccScBURM.s:27993  .debug_str:0000000000023999 .LASF1702
C:\Users\CYMR90~1\AppData\Local\Temp\ccScBURM.s:27529  .debug_str:0000000000021e27 .LASF1703
C:\Users\CYMR90~1\AppData\Local\Temp\ccScBURM.s:25983  .debug_str:000000000001bcfa .LASF1704
C:\Users\CYMR90~1\AppData\Local\Temp\ccScBURM.s:27389  .debug_str:0000000000021554 .LASF1705
C:\Users\CYMR90~1\AppData\Local\Temp\ccScBURM.s:24873  .debug_str:00000000000174a2 .LASF1706
C:\Users\CYMR90~1\AppData\Local\Temp\ccScBURM.s:23874  .debug_str:000000000001342d .LASF1707
C:\Users\CYMR90~1\AppData\Local\Temp\ccScBURM.s:26541  .debug_str:000000000001e1af .LASF1708
C:\Users\CYMR90~1\AppData\Local\Temp\ccScBURM.s:25103  .debug_str:00000000000182db .LASF1709
C:\Users\CYMR90~1\AppData\Local\Temp\ccScBURM.s:22028  .debug_str:000000000000bc70 .LASF1710
C:\Users\CYMR90~1\AppData\Local\Temp\ccScBURM.s:23518  .debug_str:0000000000011c86 .LASF1711
C:\Users\CYMR90~1\AppData\Local\Temp\ccScBURM.s:20668  .debug_str:0000000000006353 .LASF1712
C:\Users\CYMR90~1\AppData\Local\Temp\ccScBURM.s:22996  .debug_str:000000000000fb09 .LASF1713
C:\Users\CYMR90~1\AppData\Local\Temp\ccScBURM.s:19954  .debug_str:000000000000359c .LASF1714
C:\Users\CYMR90~1\AppData\Local\Temp\ccScBURM.s:23224  .debug_str:0000000000010919 .LASF1715
C:\Users\CYMR90~1\AppData\Local\Temp\ccScBURM.s:26511  .debug_str:000000000001dfe8 .LASF1716
C:\Users\CYMR90~1\AppData\Local\Temp\ccScBURM.s:25067  .debug_str:00000000000180a8 .LASF1717
C:\Users\CYMR90~1\AppData\Local\Temp\ccScBURM.s:23462  .debug_str:00000000000117eb .LASF1718
C:\Users\CYMR90~1\AppData\Local\Temp\ccScBURM.s:25421  .debug_str:00000000000197e5 .LASF1719
C:\Users\CYMR90~1\AppData\Local\Temp\ccScBURM.s:23950  .debug_str:00000000000138f8 .LASF1720
C:\Users\CYMR90~1\AppData\Local\Temp\ccScBURM.s:19662  .debug_str:0000000000002278 .LASF1721
C:\Users\CYMR90~1\AppData\Local\Temp\ccScBURM.s:25753  .debug_str:000000000001ae73 .LASF1722
C:\Users\CYMR90~1\AppData\Local\Temp\ccScBURM.s:19726  .debug_str:000000000000266e .LASF1723
C:\Users\CYMR90~1\AppData\Local\Temp\ccScBURM.s:24456  .debug_str:00000000000157f7 .LASF1724
C:\Users\CYMR90~1\AppData\Local\Temp\ccScBURM.s:29229  .debug_str:0000000000028bc7 .LASF1725
C:\Users\CYMR90~1\AppData\Local\Temp\ccScBURM.s:20560  .debug_str:0000000000005cd1 .LASF1726
C:\Users\CYMR90~1\AppData\Local\Temp\ccScBURM.s:28871  .debug_str:00000000000273cf .LASF1727
C:\Users\CYMR90~1\AppData\Local\Temp\ccScBURM.s:26203  .debug_str:000000000001cb30 .LASF1728
C:\Users\CYMR90~1\AppData\Local\Temp\ccScBURM.s:30021  .debug_str:000000000002be21 .LASF1729
C:\Users\CYMR90~1\AppData\Local\Temp\ccScBURM.s:28701  .debug_str:00000000000268db .LASF1730
C:\Users\CYMR90~1\AppData\Local\Temp\ccScBURM.s:23398  .debug_str:00000000000113c1 .LASF1731
C:\Users\CYMR90~1\AppData\Local\Temp\ccScBURM.s:21430  .debug_str:0000000000009522 .LASF1732
C:\Users\CYMR90~1\AppData\Local\Temp\ccScBURM.s:19432  .debug_str:0000000000001482 .LASF1733
C:\Users\CYMR90~1\AppData\Local\Temp\ccScBURM.s:24827  .debug_str:00000000000171ee .LASF1734
C:\Users\CYMR90~1\AppData\Local\Temp\ccScBURM.s:26965  .debug_str:000000000001fb2f .LASF1735
C:\Users\CYMR90~1\AppData\Local\Temp\ccScBURM.s:21422  .debug_str:00000000000094ac .LASF1736
C:\Users\CYMR90~1\AppData\Local\Temp\ccScBURM.s:21140  .debug_str:0000000000008345 .LASF1737
C:\Users\CYMR90~1\AppData\Local\Temp\ccScBURM.s:28707  .debug_str:0000000000026947 .LASF1738
C:\Users\CYMR90~1\AppData\Local\Temp\ccScBURM.s:22756  .debug_str:000000000000ec67 .LASF1739
C:\Users\CYMR90~1\AppData\Local\Temp\ccScBURM.s:21758  .debug_str:000000000000aa29 .LASF1740
C:\Users\CYMR90~1\AppData\Local\Temp\ccScBURM.s:26817  .debug_str:000000000001f232 .LASF1741
C:\Users\CYMR90~1\AppData\Local\Temp\ccScBURM.s:26467  .debug_str:000000000001dd15 .LASF1742
C:\Users\CYMR90~1\AppData\Local\Temp\ccScBURM.s:28985  .debug_str:0000000000027b31 .LASF1743
C:\Users\CYMR90~1\AppData\Local\Temp\ccScBURM.s:21146  .debug_str:00000000000083b7 .LASF1744
C:\Users\CYMR90~1\AppData\Local\Temp\ccScBURM.s:23052  .debug_str:000000000000fe90 .LASF1745
C:\Users\CYMR90~1\AppData\Local\Temp\ccScBURM.s:28035  .debug_str:0000000000023bfe .LASF1746
C:\Users\CYMR90~1\AppData\Local\Temp\ccScBURM.s:27645  .debug_str:00000000000224a1 .LASF1747
C:\Users\CYMR90~1\AppData\Local\Temp\ccScBURM.s:23222  .debug_str:00000000000108f6 .LASF1748
C:\Users\CYMR90~1\AppData\Local\Temp\ccScBURM.s:21918  .debug_str:000000000000b542 .LASF1749
C:\Users\CYMR90~1\AppData\Local\Temp\ccScBURM.s:24999  .debug_str:0000000000017c89 .LASF1750
C:\Users\CYMR90~1\AppData\Local\Temp\ccScBURM.s:29055  .debug_str:000000000002802a .LASF1751
C:\Users\CYMR90~1\AppData\Local\Temp\ccScBURM.s:25729  .debug_str:000000000001ace7 .LASF1752
C:\Users\CYMR90~1\AppData\Local\Temp\ccScBURM.s:25625  .debug_str:000000000001a5e3 .LASF1753
C:\Users\CYMR90~1\AppData\Local\Temp\ccScBURM.s:22192  .debug_str:000000000000c7f2 .LASF1754
C:\Users\CYMR90~1\AppData\Local\Temp\ccScBURM.s:23766  .debug_str:0000000000012c85 .LASF1755
C:\Users\CYMR90~1\AppData\Local\Temp\ccScBURM.s:25819  .debug_str:000000000001b323 .LASF1756
C:\Users\CYMR90~1\AppData\Local\Temp\ccScBURM.s:22852  .debug_str:000000000000f1b2 .LASF1757
C:\Users\CYMR90~1\AppData\Local\Temp\ccScBURM.s:20964  .debug_str:000000000000769e .LASF1758
C:\Users\CYMR90~1\AppData\Local\Temp\ccScBURM.s:25569  .debug_str:000000000001a11d .LASF1759
C:\Users\CYMR90~1\AppData\Local\Temp\ccScBURM.s:21248  .debug_str:0000000000008a27 .LASF1760
C:\Users\CYMR90~1\AppData\Local\Temp\ccScBURM.s:19494  .debug_str:00000000000018da .LASF1761
C:\Users\CYMR90~1\AppData\Local\Temp\ccScBURM.s:28219  .debug_str:00000000000248e0 .LASF1762
C:\Users\CYMR90~1\AppData\Local\Temp\ccScBURM.s:20992  .debug_str:0000000000007879 .LASF1763
C:\Users\CYMR90~1\AppData\Local\Temp\ccScBURM.s:20682  .debug_str:000000000000644c .LASF1764
C:\Users\CYMR90~1\AppData\Local\Temp\ccScBURM.s:19474  .debug_str:0000000000001786 .LASF1765
C:\Users\CYMR90~1\AppData\Local\Temp\ccScBURM.s:25927  .debug_str:000000000001b963 .LASF1766
C:\Users\CYMR90~1\AppData\Local\Temp\ccScBURM.s:19532  .debug_str:0000000000001b15 .LASF1767
C:\Users\CYMR90~1\AppData\Local\Temp\ccScBURM.s:28415  .debug_str:000000000002572e .LASF1768
C:\Users\CYMR90~1\AppData\Local\Temp\ccScBURM.s:30095  .debug_str:000000000002c34d .LASF1769
C:\Users\CYMR90~1\AppData\Local\Temp\ccScBURM.s:22082  .debug_str:000000000000c122 .LASF1770
C:\Users\CYMR90~1\AppData\Local\Temp\ccScBURM.s:21668  .debug_str:000000000000a4a3 .LASF1771
C:\Users\CYMR90~1\AppData\Local\Temp\ccScBURM.s:19212  .debug_str:00000000000006bb .LASF1772
C:\Users\CYMR90~1\AppData\Local\Temp\ccScBURM.s:19260  .debug_str:00000000000009a3 .LASF1773
C:\Users\CYMR90~1\AppData\Local\Temp\ccScBURM.s:29135  .debug_str:0000000000028614 .LASF1774
C:\Users\CYMR90~1\AppData\Local\Temp\ccScBURM.s:24168  .debug_str:0000000000014680 .LASF1775
C:\Users\CYMR90~1\AppData\Local\Temp\ccScBURM.s:22932  .debug_str:000000000000f6bb .LASF1776
C:\Users\CYMR90~1\AppData\Local\Temp\ccScBURM.s:24991  .debug_str:0000000000017c24 .LASF1777
C:\Users\CYMR90~1\AppData\Local\Temp\ccScBURM.s:20406  .debug_str:0000000000005366 .LASF1778
C:\Users\CYMR90~1\AppData\Local\Temp\ccScBURM.s:28453  .debug_str:000000000002599d .LASF1779
C:\Users\CYMR90~1\AppData\Local\Temp\ccScBURM.s:27677  .debug_str:00000000000226ac .LASF1780
C:\Users\CYMR90~1\AppData\Local\Temp\ccScBURM.s:26211  .debug_str:000000000001cbd2 .LASF1783
C:\Users\CYMR90~1\AppData\Local\Temp\ccScBURM.s:25369  .debug_str:0000000000019498 .LASF1784
C:\Users\CYMR90~1\AppData\Local\Temp\ccScBURM.s:25219  .debug_str:00000000000189ff .LASF1785
C:\Users\CYMR90~1\AppData\Local\Temp\ccScBURM.s:24210  .debug_str:000000000001491c .LASF1786
C:\Users\CYMR90~1\AppData\Local\Temp\ccScBURM.s:29559  .debug_str:000000000002a069 .LASF1787
C:\Users\CYMR90~1\AppData\Local\Temp\ccScBURM.s:29865  .debug_str:000000000002b35b .LASF1788
C:\Users\CYMR90~1\AppData\Local\Temp\ccScBURM.s:20000  .debug_str:00000000000038bf .LASF1789
C:\Users\CYMR90~1\AppData\Local\Temp\ccScBURM.s:19128  .debug_str:00000000000001e7 .LASF1790
C:\Users\CYMR90~1\AppData\Local\Temp\ccScBURM.s:28793  .debug_str:0000000000026e73 .LASF1791
C:\Users\CYMR90~1\AppData\Local\Temp\ccScBURM.s:27889  .debug_str:0000000000023308 .LASF1792
C:\Users\CYMR90~1\AppData\Local\Temp\ccScBURM.s:29747  .debug_str:000000000002abb7 .LASF1793
C:\Users\CYMR90~1\AppData\Local\Temp\ccScBURM.s:29067  .debug_str:0000000000028188 .LASF1794
C:\Users\CYMR90~1\AppData\Local\Temp\ccScBURM.s:23886  .debug_str:00000000000134f7 .LASF1795
C:\Users\CYMR90~1\AppData\Local\Temp\ccScBURM.s:24156  .debug_str:000000000001456c .LASF1796
C:\Users\CYMR90~1\AppData\Local\Temp\ccScBURM.s:23282  .debug_str:0000000000010d4b .LASF1797
C:\Users\CYMR90~1\AppData\Local\Temp\ccScBURM.s:22110  .debug_str:000000000000c2eb .LASF1798
C:\Users\CYMR90~1\AppData\Local\Temp\ccScBURM.s:24905  .debug_str:00000000000176b8 .LASF1799
C:\Users\CYMR90~1\AppData\Local\Temp\ccScBURM.s:25211  .debug_str:000000000001898e .LASF1800
C:\Users\CYMR90~1\AppData\Local\Temp\ccScBURM.s:24292  .debug_str:0000000000014e75 .LASF1801
C:\Users\CYMR90~1\AppData\Local\Temp\ccScBURM.s:23344  .debug_str:00000000000110a8 .LASF1802
C:\Users\CYMR90~1\AppData\Local\Temp\ccScBURM.s:22830  .debug_str:000000000000f086 .LASF1803
C:\Users\CYMR90~1\AppData\Local\Temp\ccScBURM.s:27475  .debug_str:0000000000021abc .LASF1804
C:\Users\CYMR90~1\AppData\Local\Temp\ccScBURM.s:24178  .debug_str:0000000000014742 .LASF1805
C:\Users\CYMR90~1\AppData\Local\Temp\ccScBURM.s:27081  .debug_str:00000000000201fc .LASF1806
C:\Users\CYMR90~1\AppData\Local\Temp\ccScBURM.s:24316  .debug_str:000000000001500b .LASF1807
C:\Users\CYMR90~1\AppData\Local\Temp\ccScBURM.s:29059  .debug_str:0000000000028076 .LASF1808
C:\Users\CYMR90~1\AppData\Local\Temp\ccScBURM.s:26305  .debug_str:000000000001d2a9 .LASF1809
C:\Users\CYMR90~1\AppData\Local\Temp\ccScBURM.s:25005  .debug_str:0000000000017cfe .LASF1810
C:\Users\CYMR90~1\AppData\Local\Temp\ccScBURM.s:19452  .debug_str:000000000000159f .LASF1811
C:\Users\CYMR90~1\AppData\Local\Temp\ccScBURM.s:23234  .debug_str:00000000000109a3 .LASF1812
C:\Users\CYMR90~1\AppData\Local\Temp\ccScBURM.s:23502  .debug_str:0000000000011ba5 .LASF1813
C:\Users\CYMR90~1\AppData\Local\Temp\ccScBURM.s:26287  .debug_str:000000000001d1b1 .LASF1814
C:\Users\CYMR90~1\AppData\Local\Temp\ccScBURM.s:24971  .debug_str:0000000000017b14 .LASF1815
C:\Users\CYMR90~1\AppData\Local\Temp\ccScBURM.s:26295  .debug_str:000000000001d22f .LASF1816
C:\Users\CYMR90~1\AppData\Local\Temp\ccScBURM.s:26739  .debug_str:000000000001ed62 .LASF1817
C:\Users\CYMR90~1\AppData\Local\Temp\ccScBURM.s:23048  .debug_str:000000000000fe58 .LASF1818
C:\Users\CYMR90~1\AppData\Local\Temp\ccScBURM.s:27221  .debug_str:0000000000020b44 .LASF1819
C:\Users\CYMR90~1\AppData\Local\Temp\ccScBURM.s:20706  .debug_str:00000000000065aa .LASF1820
C:\Users\CYMR90~1\AppData\Local\Temp\ccScBURM.s:21080  .debug_str:0000000000007ec4 .LASF1821
C:\Users\CYMR90~1\AppData\Local\Temp\ccScBURM.s:26673  .debug_str:000000000001e9b3 .LASF1822
C:\Users\CYMR90~1\AppData\Local\Temp\ccScBURM.s:29339  .debug_str:0000000000029332 .LASF1823
C:\Users\CYMR90~1\AppData\Local\Temp\ccScBURM.s:21980  .debug_str:000000000000b9ab .LASF1824
C:\Users\CYMR90~1\AppData\Local\Temp\ccScBURM.s:27315  .debug_str:0000000000021067 .LASF1825
C:\Users\CYMR90~1\AppData\Local\Temp\ccScBURM.s:29687  .debug_str:000000000002a847 .LASF1826
C:\Users\CYMR90~1\AppData\Local\Temp\ccScBURM.s:22800  .debug_str:000000000000eee6 .LASF1827
C:\Users\CYMR90~1\AppData\Local\Temp\ccScBURM.s:22872  .debug_str:000000000000f327 .LASF1828
C:\Users\CYMR90~1\AppData\Local\Temp\ccScBURM.s:29073  .debug_str:00000000000281e9 .LASF1829
C:\Users\CYMR90~1\AppData\Local\Temp\ccScBURM.s:21450  .debug_str:00000000000096b9 .LASF1830
C:\Users\CYMR90~1\AppData\Local\Temp\ccScBURM.s:28735  .debug_str:0000000000026ac5 .LASF1831
C:\Users\CYMR90~1\AppData\Local\Temp\ccScBURM.s:22248  .debug_str:000000000000ccaa .LASF1832
C:\Users\CYMR90~1\AppData\Local\Temp\ccScBURM.s:20906  .debug_str:0000000000007303 .LASF1833
C:\Users\CYMR90~1\AppData\Local\Temp\ccScBURM.s:24606  .debug_str:00000000000161e3 .LASF1834
C:\Users\CYMR90~1\AppData\Local\Temp\ccScBURM.s:28605  .debug_str:00000000000262cd .LASF1835
C:\Users\CYMR90~1\AppData\Local\Temp\ccScBURM.s:24576  .debug_str:0000000000016023 .LASF1836
C:\Users\CYMR90~1\AppData\Local\Temp\ccScBURM.s:25297  .debug_str:0000000000018f73 .LASF1837
C:\Users\CYMR90~1\AppData\Local\Temp\ccScBURM.s:23286  .debug_str:0000000000010d83 .LASF1838
C:\Users\CYMR90~1\AppData\Local\Temp\ccScBURM.s:26243  .debug_str:000000000001ce6b .LASF1839
C:\Users\CYMR90~1\AppData\Local\Temp\ccScBURM.s:25531  .debug_str:0000000000019f00 .LASF1840
C:\Users\CYMR90~1\AppData\Local\Temp\ccScBURM.s:28297  .debug_str:0000000000024df1 .LASF1841
C:\Users\CYMR90~1\AppData\Local\Temp\ccScBURM.s:28691  .debug_str:000000000002683a .LASF1842
C:\Users\CYMR90~1\AppData\Local\Temp\ccScBURM.s:29883  .debug_str:000000000002b4ab .LASF1843
C:\Users\CYMR90~1\AppData\Local\Temp\ccScBURM.s:29741  .debug_str:000000000002ab64 .LASF1844
C:\Users\CYMR90~1\AppData\Local\Temp\ccScBURM.s:21182  .debug_str:0000000000008623 .LASF1845
C:\Users\CYMR90~1\AppData\Local\Temp\ccScBURM.s:26443  .debug_str:000000000001db14 .LASF1846
C:\Users\CYMR90~1\AppData\Local\Temp\ccScBURM.s:27583  .debug_str:0000000000022158 .LASF1847
C:\Users\CYMR90~1\AppData\Local\Temp\ccScBURM.s:27597  .debug_str:000000000002222b .LASF1848
C:\Users\CYMR90~1\AppData\Local\Temp\ccScBURM.s:26827  .debug_str:000000000001f2d0 .LASF1849
C:\Users\CYMR90~1\AppData\Local\Temp\ccScBURM.s:21240  .debug_str:00000000000089a4 .LASF1850
C:\Users\CYMR90~1\AppData\Local\Temp\ccScBURM.s:28645  .debug_str:000000000002656f .LASF1851
C:\Users\CYMR90~1\AppData\Local\Temp\ccScBURM.s:22488  .debug_str:000000000000dbc6 .LASF1852
C:\Users\CYMR90~1\AppData\Local\Temp\ccScBURM.s:19904  .debug_str:0000000000003259 .LASF1853
C:\Users\CYMR90~1\AppData\Local\Temp\ccScBURM.s:26325  .debug_str:000000000001d3ee .LASF1854
C:\Users\CYMR90~1\AppData\Local\Temp\ccScBURM.s:28909  .debug_str:00000000000275f7 .LASF1855
C:\Users\CYMR90~1\AppData\Local\Temp\ccScBURM.s:21326  .debug_str:0000000000008f51 .LASF1856
C:\Users\CYMR90~1\AppData\Local\Temp\ccScBURM.s:22174  .debug_str:000000000000c6e5 .LASF1857
C:\Users\CYMR90~1\AppData\Local\Temp\ccScBURM.s:29007  .debug_str:0000000000027cb7 .LASF1858
C:\Users\CYMR90~1\AppData\Local\Temp\ccScBURM.s:24322  .debug_str:000000000001506c .LASF1859
C:\Users\CYMR90~1\AppData\Local\Temp\ccScBURM.s:25241  .debug_str:0000000000018bf3 .LASF1860
C:\Users\CYMR90~1\AppData\Local\Temp\ccScBURM.s:23096  .debug_str:0000000000010159 .LASF1861
C:\Users\CYMR90~1\AppData\Local\Temp\ccScBURM.s:20860  .debug_str:0000000000006f79 .LASF1862
C:\Users\CYMR90~1\AppData\Local\Temp\ccScBURM.s:25153  .debug_str:00000000000185cd .LASF1863
C:\Users\CYMR90~1\AppData\Local\Temp\ccScBURM.s:20510  .debug_str:00000000000059ab .LASF1864
C:\Users\CYMR90~1\AppData\Local\Temp\ccScBURM.s:27777  .debug_str:0000000000022cdf .LASF1865
C:\Users\CYMR90~1\AppData\Local\Temp\ccScBURM.s:27011  .debug_str:000000000001fe23 .LASF1866
C:\Users\CYMR90~1\AppData\Local\Temp\ccScBURM.s:22108  .debug_str:000000000000c2bb .LASF1867
C:\Users\CYMR90~1\AppData\Local\Temp\ccScBURM.s:19240  .debug_str:0000000000000875 .LASF1868
C:\Users\CYMR90~1\AppData\Local\Temp\ccScBURM.s:21162  .debug_str:00000000000084bf .LASF1869
C:\Users\CYMR90~1\AppData\Local\Temp\ccScBURM.s:29289  .debug_str:0000000000028f92 .LASF1870
C:\Users\CYMR90~1\AppData\Local\Temp\ccScBURM.s:28393  .debug_str:000000000002554c .LASF1871
C:\Users\CYMR90~1\AppData\Local\Temp\ccScBURM.s:24446  .debug_str:0000000000015758 .LASF1872
C:\Users\CYMR90~1\AppData\Local\Temp\ccScBURM.s:21026  .debug_str:0000000000007ad2 .LASF1873
C:\Users\CYMR90~1\AppData\Local\Temp\ccScBURM.s:21896  .debug_str:000000000000b361 .LASF1874
C:\Users\CYMR90~1\AppData\Local\Temp\ccScBURM.s:29461  .debug_str:0000000000029abe .LASF1875
C:\Users\CYMR90~1\AppData\Local\Temp\ccScBURM.s:25763  .debug_str:000000000001af6b .LASF1876
C:\Users\CYMR90~1\AppData\Local\Temp\ccScBURM.s:26503  .debug_str:000000000001df74 .LASF1877
C:\Users\CYMR90~1\AppData\Local\Temp\ccScBURM.s:22936  .debug_str:000000000000f6f4 .LASF1878
C:\Users\CYMR90~1\AppData\Local\Temp\ccScBURM.s:21284  .debug_str:0000000000008c4c .LASF1879
C:\Users\CYMR90~1\AppData\Local\Temp\ccScBURM.s:26807  .debug_str:000000000001f193 .LASF1880
C:\Users\CYMR90~1\AppData\Local\Temp\ccScBURM.s:19352  .debug_str:0000000000000fd8 .LASF1881
C:\Users\CYMR90~1\AppData\Local\Temp\ccScBURM.s:27211  .debug_str:0000000000020a82 .LASF1882
C:\Users\CYMR90~1\AppData\Local\Temp\ccScBURM.s:29879  .debug_str:000000000002b463 .LASF1883
C:\Users\CYMR90~1\AppData\Local\Temp\ccScBURM.s:26917  .debug_str:000000000001f820 .LASF1884
C:\Users\CYMR90~1\AppData\Local\Temp\ccScBURM.s:29023  .debug_str:0000000000027db7 .LASF1885
C:\Users\CYMR90~1\AppData\Local\Temp\ccScBURM.s:21504  .debug_str:0000000000009a56 .LASF1886
C:\Users\CYMR90~1\AppData\Local\Temp\ccScBURM.s:21314  .debug_str:0000000000008e88 .LASF1887
C:\Users\CYMR90~1\AppData\Local\Temp\ccScBURM.s:29911  .debug_str:000000000002b668 .LASF1888
C:\Users\CYMR90~1\AppData\Local\Temp\ccScBURM.s:25385  .debug_str:0000000000019557 .LASF1889
C:\Users\CYMR90~1\AppData\Local\Temp\ccScBURM.s:21496  .debug_str:00000000000099b0 .LASF1890
C:\Users\CYMR90~1\AppData\Local\Temp\ccScBURM.s:21588  .debug_str:0000000000009f8d .LASF1891
C:\Users\CYMR90~1\AppData\Local\Temp\ccScBURM.s:26129  .debug_str:000000000001c5f5 .LASF1892
C:\Users\CYMR90~1\AppData\Local\Temp\ccScBURM.s:21308  .debug_str:0000000000008e1c .LASF1893
C:\Users\CYMR90~1\AppData\Local\Temp\ccScBURM.s:22556  .debug_str:000000000000e012 .LASF1894
C:\Users\CYMR90~1\AppData\Local\Temp\ccScBURM.s:24839  .debug_str:00000000000172be .LASF1895
C:\Users\CYMR90~1\AppData\Local\Temp\ccScBURM.s:19552  .debug_str:0000000000001c3e .LASF1896
C:\Users\CYMR90~1\AppData\Local\Temp\ccScBURM.s:28759  .debug_str:0000000000026c76 .LASF1897
C:\Users\CYMR90~1\AppData\Local\Temp\ccScBURM.s:25631  .debug_str:000000000001a655 .LASF1898
C:\Users\CYMR90~1\AppData\Local\Temp\ccScBURM.s:22378  .debug_str:000000000000d53c .LASF1899
C:\Users\CYMR90~1\AppData\Local\Temp\ccScBURM.s:19164  .debug_str:000000000000040c .LASF1900
C:\Users\CYMR90~1\AppData\Local\Temp\ccScBURM.s:19984  .debug_str:0000000000003790 .LASF1901
C:\Users\CYMR90~1\AppData\Local\Temp\ccScBURM.s:22004  .debug_str:000000000000badd .LASF1902
C:\Users\CYMR90~1\AppData\Local\Temp\ccScBURM.s:30157  .debug_str:000000000002c6fb .LASF1903
C:\Users\CYMR90~1\AppData\Local\Temp\ccScBURM.s:24706  .debug_str:000000000001685d .LASF1904
C:\Users\CYMR90~1\AppData\Local\Temp\ccScBURM.s:21466  .debug_str:0000000000009774 .LASF1905
C:\Users\CYMR90~1\AppData\Local\Temp\ccScBURM.s:29101  .debug_str:000000000002838b .LASF1906
C:\Users\CYMR90~1\AppData\Local\Temp\ccScBURM.s:26169  .debug_str:000000000001c92e .LASF1907
C:\Users\CYMR90~1\AppData\Local\Temp\ccScBURM.s:20498  .debug_str:00000000000058e1 .LASF1908
C:\Users\CYMR90~1\AppData\Local\Temp\ccScBURM.s:29453  .debug_str:0000000000029a41 .LASF1909
C:\Users\CYMR90~1\AppData\Local\Temp\ccScBURM.s:25807  .debug_str:000000000001b26b .LASF1910
C:\Users\CYMR90~1\AppData\Local\Temp\ccScBURM.s:25485  .debug_str:0000000000019c6d .LASF1911
C:\Users\CYMR90~1\AppData\Local\Temp\ccScBURM.s:21916  .debug_str:000000000000b523 .LASF1912
C:\Users\CYMR90~1\AppData\Local\Temp\ccScBURM.s:21754  .debug_str:000000000000a9d1 .LASF1913
C:\Users\CYMR90~1\AppData\Local\Temp\ccScBURM.s:27115  .debug_str:000000000002044f .LASF1914
C:\Users\CYMR90~1\AppData\Local\Temp\ccScBURM.s:28367  .debug_str:0000000000025372 .LASF1915
C:\Users\CYMR90~1\AppData\Local\Temp\ccScBURM.s:25003  .debug_str:0000000000017cd2 .LASF1916
C:\Users\CYMR90~1\AppData\Local\Temp\ccScBURM.s:21662  .debug_str:000000000000a43e .LASF1917
C:\Users\CYMR90~1\AppData\Local\Temp\ccScBURM.s:29511  .debug_str:0000000000029d8e .LASF1918
C:\Users\CYMR90~1\AppData\Local\Temp\ccScBURM.s:26141  .debug_str:000000000001c6ae .LASF1919
C:\Users\CYMR90~1\AppData\Local\Temp\ccScBURM.s:22712  .debug_str:000000000000e98d .LASF1920
C:\Users\CYMR90~1\AppData\Local\Temp\ccScBURM.s:20880  .debug_str:00000000000070ee .LASF1921
C:\Users\CYMR90~1\AppData\Local\Temp\ccScBURM.s:27183  .debug_str:00000000000208dd .LASF1922
C:\Users\CYMR90~1\AppData\Local\Temp\ccScBURM.s:29243  .debug_str:0000000000028cb3 .LASF1923
C:\Users\CYMR90~1\AppData\Local\Temp\ccScBURM.s:21774  .debug_str:000000000000ab3c .LASF1924
C:\Users\CYMR90~1\AppData\Local\Temp\ccScBURM.s:27007  .debug_str:000000000001fdcf .LASF1925
C:\Users\CYMR90~1\AppData\Local\Temp\ccScBURM.s:26033  .debug_str:000000000001c036 .LASF1926
C:\Users\CYMR90~1\AppData\Local\Temp\ccScBURM.s:20022  .debug_str:0000000000003a11 .LASF1927
C:\Users\CYMR90~1\AppData\Local\Temp\ccScBURM.s:20930  .debug_str:000000000000746e .LASF1928
C:\Users\CYMR90~1\AppData\Local\Temp\ccScBURM.s:26933  .debug_str:000000000001f91a .LASF1929
C:\Users\CYMR90~1\AppData\Local\Temp\ccScBURM.s:30185  .debug_str:000000000002c8fe .LASF1930
C:\Users\CYMR90~1\AppData\Local\Temp\ccScBURM.s:29871  .debug_str:000000000002b3c9 .LASF1931
C:\Users\CYMR90~1\AppData\Local\Temp\ccScBURM.s:21038  .debug_str:0000000000007b7c .LASF1932
C:\Users\CYMR90~1\AppData\Local\Temp\ccScBURM.s:22088  .debug_str:000000000000c186 .LASF1933
C:\Users\CYMR90~1\AppData\Local\Temp\ccScBURM.s:26111  .debug_str:000000000001c4ba .LASF1934
C:\Users\CYMR90~1\AppData\Local\Temp\ccScBURM.s:20540  .debug_str:0000000000005ba3 .LASF1935
C:\Users\CYMR90~1\AppData\Local\Temp\ccScBURM.s:25969  .debug_str:000000000001bbfd .LASF1936
C:\Users\CYMR90~1\AppData\Local\Temp\ccScBURM.s:24953  .debug_str:00000000000179f7 .LASF1937
C:\Users\CYMR90~1\AppData\Local\Temp\ccScBURM.s:24272  .debug_str:0000000000014d01 .LASF1938
C:\Users\CYMR90~1\AppData\Local\Temp\ccScBURM.s:21226  .debug_str:0000000000008899 .LASF1939
C:\Users\CYMR90~1\AppData\Local\Temp\ccScBURM.s:29307  .debug_str:00000000000290cf .LASF1940
C:\Users\CYMR90~1\AppData\Local\Temp\ccScBURM.s:26223  .debug_str:000000000001cc98 .LASF1941
C:\Users\CYMR90~1\AppData\Local\Temp\ccScBURM.s:22144  .debug_str:000000000000c4e5 .LASF1942
C:\Users\CYMR90~1\AppData\Local\Temp\ccScBURM.s:23268  .debug_str:0000000000010bfd .LASF1943
C:\Users\CYMR90~1\AppData\Local\Temp\ccScBURM.s:27045  .debug_str:0000000000020029 .LASF1944
C:\Users\CYMR90~1\AppData\Local\Temp\ccScBURM.s:23992  .debug_str:0000000000013b83 .LASF1945
C:\Users\CYMR90~1\AppData\Local\Temp\ccScBURM.s:20826  .debug_str:0000000000006d63 .LASF1946
C:\Users\CYMR90~1\AppData\Local\Temp\ccScBURM.s:19756  .debug_str:000000000000288d .LASF1947
C:\Users\CYMR90~1\AppData\Local\Temp\ccScBURM.s:25859  .debug_str:000000000001b569 .LASF1948
C:\Users\CYMR90~1\AppData\Local\Temp\ccScBURM.s:22818  .debug_str:000000000000efc9 .LASF1949
C:\Users\CYMR90~1\AppData\Local\Temp\ccScBURM.s:19624  .debug_str:0000000000002043 .LASF1950
C:\Users\CYMR90~1\AppData\Local\Temp\ccScBURM.s:27793  .debug_str:0000000000022db0 .LASF1951
C:\Users\CYMR90~1\AppData\Local\Temp\ccScBURM.s:28501  .debug_str:0000000000025c80 .LASF1952
C:\Users\CYMR90~1\AppData\Local\Temp\ccScBURM.s:24114  .debug_str:0000000000014318 .LASF1953
C:\Users\CYMR90~1\AppData\Local\Temp\ccScBURM.s:27329  .debug_str:000000000002113c .LASF1954
C:\Users\CYMR90~1\AppData\Local\Temp\ccScBURM.s:27989  .debug_str:0000000000023962 .LASF1955
C:\Users\CYMR90~1\AppData\Local\Temp\ccScBURM.s:19678  .debug_str:000000000000235b .LASF1956
C:\Users\CYMR90~1\AppData\Local\Temp\ccScBURM.s:29713  .debug_str:000000000002a9ce .LASF1957
C:\Users\CYMR90~1\AppData\Local\Temp\ccScBURM.s:21044  .debug_str:0000000000007bed .LASF1958
C:\Users\CYMR90~1\AppData\Local\Temp\ccScBURM.s:29291  .debug_str:0000000000028fd1 .LASF1959
C:\Users\CYMR90~1\AppData\Local\Temp\ccScBURM.s:26177  .debug_str:000000000001c9b4 .LASF1960
C:\Users\CYMR90~1\AppData\Local\Temp\ccScBURM.s:19204  .debug_str:0000000000000631 .LASF1961
C:\Users\CYMR90~1\AppData\Local\Temp\ccScBURM.s:24492  .debug_str:0000000000015a1b .LASF1962
C:\Users\CYMR90~1\AppData\Local\Temp\ccScBURM.s:28349  .debug_str:0000000000025225 .LASF1963
C:\Users\CYMR90~1\AppData\Local\Temp\ccScBURM.s:20884  .debug_str:0000000000007159 .LASF1964
C:\Users\CYMR90~1\AppData\Local\Temp\ccScBURM.s:26315  .debug_str:000000000001d332 .LASF1965
C:\Users\CYMR90~1\AppData\Local\Temp\ccScBURM.s:29811  .debug_str:000000000002af82 .LASF1966
C:\Users\CYMR90~1\AppData\Local\Temp\ccScBURM.s:26155  .debug_str:000000000001c83d .LASF1967
C:\Users\CYMR90~1\AppData\Local\Temp\ccScBURM.s:27683  .debug_str:0000000000022724 .LASF1968
C:\Users\CYMR90~1\AppData\Local\Temp\ccScBURM.s:20868  .debug_str:000000000000701c .LASF1969
C:\Users\CYMR90~1\AppData\Local\Temp\ccScBURM.s:19602  .debug_str:0000000000001f3d .LASF1970
C:\Users\CYMR90~1\AppData\Local\Temp\ccScBURM.s:28385  .debug_str:00000000000254a2 .LASF1971
C:\Users\CYMR90~1\AppData\Local\Temp\ccScBURM.s:25473  .debug_str:0000000000019bad .LASF1972
C:\Users\CYMR90~1\AppData\Local\Temp\ccScBURM.s:25281  .debug_str:0000000000018e7d .LASF1973
C:\Users\CYMR90~1\AppData\Local\Temp\ccScBURM.s:29761  .debug_str:000000000002acaf .LASF1974
C:\Users\CYMR90~1\AppData\Local\Temp\ccScBURM.s:21062  .debug_str:0000000000007d99 .LASF1975
C:\Users\CYMR90~1\AppData\Local\Temp\ccScBURM.s:21416  .debug_str:0000000000009463 .LASF1976
C:\Users\CYMR90~1\AppData\Local\Temp\ccScBURM.s:29531  .debug_str:0000000000029eb7 .LASF1977
C:\Users\CYMR90~1\AppData\Local\Temp\ccScBURM.s:20366  .debug_str:00000000000050f5 .LASF1978
C:\Users\CYMR90~1\AppData\Local\Temp\ccScBURM.s:28287  .debug_str:0000000000024d49 .LASF1979
C:\Users\CYMR90~1\AppData\Local\Temp\ccScBURM.s:28149  .debug_str:0000000000024445 .LASF1980
C:\Users\CYMR90~1\AppData\Local\Temp\ccScBURM.s:27995  .debug_str:00000000000239bd .LASF1981
C:\Users\CYMR90~1\AppData\Local\Temp\ccScBURM.s:28807  .debug_str:0000000000026f26 .LASF1982
C:\Users\CYMR90~1\AppData\Local\Temp\ccScBURM.s:29717  .debug_str:000000000002aa24 .LASF1983
C:\Users\CYMR90~1\AppData\Local\Temp\ccScBURM.s:26701  .debug_str:000000000001eb18 .LASF1984
C:\Users\CYMR90~1\AppData\Local\Temp\ccScBURM.s:25889  .debug_str:000000000001b754 .LASF1985
C:\Users\CYMR90~1\AppData\Local\Temp\ccScBURM.s:24188  .debug_str:00000000000147cb .LASF1986
C:\Users\CYMR90~1\AppData\Local\Temp\ccScBURM.s:25181  .debug_str:0000000000018769 .LASF1987
C:\Users\CYMR90~1\AppData\Local\Temp\ccScBURM.s:22242  .debug_str:000000000000cc50 .LASF1988
C:\Users\CYMR90~1\AppData\Local\Temp\ccScBURM.s:20120  .debug_str:0000000000004065 .LASF1989
C:\Users\CYMR90~1\AppData\Local\Temp\ccScBURM.s:22304  .debug_str:000000000000cfb1 .LASF1990
C:\Users\CYMR90~1\AppData\Local\Temp\ccScBURM.s:23192  .debug_str:0000000000010725 .LASF1991
C:\Users\CYMR90~1\AppData\Local\Temp\ccScBURM.s:20272  .debug_str:0000000000004b3d .LASF1992
C:\Users\CYMR90~1\AppData\Local\Temp\ccScBURM.s:19348  .debug_str:0000000000000fa8 .LASF1993
C:\Users\CYMR90~1\AppData\Local\Temp\ccScBURM.s:28401  .debug_str:00000000000255e0 .LASF1994
C:\Users\CYMR90~1\AppData\Local\Temp\ccScBURM.s:19982  .debug_str:000000000000375c .LASF1995
C:\Users\CYMR90~1\AppData\Local\Temp\ccScBURM.s:28859  .debug_str:0000000000027337 .LASF1996
C:\Users\CYMR90~1\AppData\Local\Temp\ccScBURM.s:25745  .debug_str:000000000001ade5 .LASF1997
C:\Users\CYMR90~1\AppData\Local\Temp\ccScBURM.s:25109  .debug_str:0000000000018345 .LASF1998
C:\Users\CYMR90~1\AppData\Local\Temp\ccScBURM.s:24594  .debug_str:0000000000016138 .LASF1999
C:\Users\CYMR90~1\AppData\Local\Temp\ccScBURM.s:21198  .debug_str:00000000000086ea .LASF2000
C:\Users\CYMR90~1\AppData\Local\Temp\ccScBURM.s:27691  .debug_str:0000000000022794 .LASF2001
C:\Users\CYMR90~1\AppData\Local\Temp\ccScBURM.s:29079  .debug_str:000000000002823e .LASF2002
C:\Users\CYMR90~1\AppData\Local\Temp\ccScBURM.s:24144  .debug_str:0000000000014498 .LASF2003
C:\Users\CYMR90~1\AppData\Local\Temp\ccScBURM.s:27585  .debug_str:0000000000022173 .LASF2004
C:\Users\CYMR90~1\AppData\Local\Temp\ccScBURM.s:24799  .debug_str:0000000000017067 .LASF2005
C:\Users\CYMR90~1\AppData\Local\Temp\ccScBURM.s:29963  .debug_str:000000000002b9fc .LASF2006
C:\Users\CYMR90~1\AppData\Local\Temp\ccScBURM.s:20408  .debug_str:000000000000538e .LASF2007
C:\Users\CYMR90~1\AppData\Local\Temp\ccScBURM.s:23922  .debug_str:0000000000013750 .LASF2008
C:\Users\CYMR90~1\AppData\Local\Temp\ccScBURM.s:26595  .debug_str:000000000001e4cc .LASF2009
C:\Users\CYMR90~1\AppData\Local\Temp\ccScBURM.s:22272  .debug_str:000000000000cdfd .LASF2010
C:\Users\CYMR90~1\AppData\Local\Temp\ccScBURM.s:19534  .debug_str:0000000000001b40 .LASF2011
C:\Users\CYMR90~1\AppData\Local\Temp\ccScBURM.s:27875  .debug_str:0000000000023244 .LASF2012
C:\Users\CYMR90~1\AppData\Local\Temp\ccScBURM.s:27635  .debug_str:0000000000022419 .LASF2013
C:\Users\CYMR90~1\AppData\Local\Temp\ccScBURM.s:25609  .debug_str:000000000001a4f8 .LASF2014
C:\Users\CYMR90~1\AppData\Local\Temp\ccScBURM.s:29441  .debug_str:000000000002998d .LASF2015
C:\Users\CYMR90~1\AppData\Local\Temp\ccScBURM.s:27785  .debug_str:0000000000022d59 .LASF2016
C:\Users\CYMR90~1\AppData\Local\Temp\ccScBURM.s:29873  .debug_str:000000000002b3f9 .LASF2017
C:\Users\CYMR90~1\AppData\Local\Temp\ccScBURM.s:26355  .debug_str:000000000001d5aa .LASF2018
C:\Users\CYMR90~1\AppData\Local\Temp\ccScBURM.s:20766  .debug_str:0000000000006983 .LASF2019
C:\Users\CYMR90~1\AppData\Local\Temp\ccScBURM.s:27829  .debug_str:0000000000022faf .LASF2020
C:\Users\CYMR90~1\AppData\Local\Temp\ccScBURM.s:28797  .debug_str:0000000000026ea8 .LASF2021
C:\Users\CYMR90~1\AppData\Local\Temp\ccScBURM.s:25021  .debug_str:0000000000017e11 .LASF2022
C:\Users\CYMR90~1\AppData\Local\Temp\ccScBURM.s:28737  .debug_str:0000000000026ada .LASF2023
C:\Users\CYMR90~1\AppData\Local\Temp\ccScBURM.s:21978  .debug_str:000000000000b990 .LASF2024
C:\Users\CYMR90~1\AppData\Local\Temp\ccScBURM.s:29825  .debug_str:000000000002b060 .LASF2025
C:\Users\CYMR90~1\AppData\Local\Temp\ccScBURM.s:19944  .debug_str:00000000000034f4 .LASF2026
C:\Users\CYMR90~1\AppData\Local\Temp\ccScBURM.s:27887  .debug_str:00000000000232ea .LASF2027
C:\Users\CYMR90~1\AppData\Local\Temp\ccScBURM.s:26905  .debug_str:000000000001f74c .LASF2028
C:\Users\CYMR90~1\AppData\Local\Temp\ccScBURM.s:23572  .debug_str:0000000000011fba .LASF2029
C:\Users\CYMR90~1\AppData\Local\Temp\ccScBURM.s:25007  .debug_str:0000000000017d13 .LASF2030
C:\Users\CYMR90~1\AppData\Local\Temp\ccScBURM.s:21748  .debug_str:000000000000a98c .LASF2031
C:\Users\CYMR90~1\AppData\Local\Temp\ccScBURM.s:22954  .debug_str:000000000000f8a9 .LASF2032
C:\Users\CYMR90~1\AppData\Local\Temp\ccScBURM.s:21958  .debug_str:000000000000b800 .LASF2033
C:\Users\CYMR90~1\AppData\Local\Temp\ccScBURM.s:23500  .debug_str:0000000000011b88 .LASF2034
C:\Users\CYMR90~1\AppData\Local\Temp\ccScBURM.s:27363  .debug_str:00000000000213d9 .LASF2035
C:\Users\CYMR90~1\AppData\Local\Temp\ccScBURM.s:27763  .debug_str:0000000000022c12 .LASF2036
C:\Users\CYMR90~1\AppData\Local\Temp\ccScBURM.s:28329  .debug_str:000000000002503f .LASF2037
C:\Users\CYMR90~1\AppData\Local\Temp\ccScBURM.s:23594  .debug_str:000000000001215c .LASF2038
C:\Users\CYMR90~1\AppData\Local\Temp\ccScBURM.s:25551  .debug_str:000000000001a028 .LASF2039
C:\Users\CYMR90~1\AppData\Local\Temp\ccScBURM.s:22300  .debug_str:000000000000cf61 .LASF2040
C:\Users\CYMR90~1\AppData\Local\Temp\ccScBURM.s:19764  .debug_str:0000000000002900 .LASF2041
C:\Users\CYMR90~1\AppData\Local\Temp\ccScBURM.s:20500  .debug_str:000000000000591f .LASF2042
C:\Users\CYMR90~1\AppData\Local\Temp\ccScBURM.s:30233  .debug_str:000000000002cc5d .LASF2043
C:\Users\CYMR90~1\AppData\Local\Temp\ccScBURM.s:23892  .debug_str:0000000000013550 .LASF2044
C:\Users\CYMR90~1\AppData\Local\Temp\ccScBURM.s:27651  .debug_str:000000000002250f .LASF2045
C:\Users\CYMR90~1\AppData\Local\Temp\ccScBURM.s:29255  .debug_str:0000000000028d86 .LASF2046
C:\Users\CYMR90~1\AppData\Local\Temp\ccScBURM.s:26015  .debug_str:000000000001bf1d .LASF2047
C:\Users\CYMR90~1\AppData\Local\Temp\ccScBURM.s:26551  .debug_str:000000000001e230 .LASF2048
C:\Users\CYMR90~1\AppData\Local\Temp\ccScBURM.s:20562  .debug_str:0000000000005d14 .LASF2049
C:\Users\CYMR90~1\AppData\Local\Temp\ccScBURM.s:19930  .debug_str:00000000000033fa .LASF2050
C:\Users\CYMR90~1\AppData\Local\Temp\ccScBURM.s:21862  .debug_str:000000000000b183 .LASF2051
C:\Users\CYMR90~1\AppData\Local\Temp\ccScBURM.s:28365  .debug_str:000000000002532b .LASF2052
C:\Users\CYMR90~1\AppData\Local\Temp\ccScBURM.s:29671  .debug_str:000000000002a76d .LASF2053
C:\Users\CYMR90~1\AppData\Local\Temp\ccScBURM.s:20376  .debug_str:000000000000519d .LASF2054
C:\Users\CYMR90~1\AppData\Local\Temp\ccScBURM.s:28695  .debug_str:0000000000026871 .LASF2055
C:\Users\CYMR90~1\AppData\Local\Temp\ccScBURM.s:26717  .debug_str:000000000001ec10 .LASF2056
C:\Users\CYMR90~1\AppData\Local\Temp\ccScBURM.s:24859  .debug_str:00000000000173ea .LASF2057
C:\Users\CYMR90~1\AppData\Local\Temp\ccScBURM.s:21738  .debug_str:000000000000a8e3 .LASF2058
C:\Users\CYMR90~1\AppData\Local\Temp\ccScBURM.s:22546  .debug_str:000000000000df67 .LASF2059
C:\Users\CYMR90~1\AppData\Local\Temp\ccScBURM.s:27169  .debug_str:000000000002081a .LASF2060
C:\Users\CYMR90~1\AppData\Local\Temp\ccScBURM.s:24020  .debug_str:0000000000013d24 .LASF2061
C:\Users\CYMR90~1\AppData\Local\Temp\ccScBURM.s:19736  .debug_str:000000000000271d .LASF2062
C:\Users\CYMR90~1\AppData\Local\Temp\ccScBURM.s:23312  .debug_str:0000000000010ecd .LASF2063
C:\Users\CYMR90~1\AppData\Local\Temp\ccScBURM.s:26683  .debug_str:000000000001ea23 .LASF2064
C:\Users\CYMR90~1\AppData\Local\Temp\ccScBURM.s:21432  .debug_str:0000000000009543 .LASF2065
C:\Users\CYMR90~1\AppData\Local\Temp\ccScBURM.s:21890  .debug_str:000000000000b303 .LASF2066
C:\Users\CYMR90~1\AppData\Local\Temp\ccScBURM.s:24959  .debug_str:0000000000017a58 .LASF2067
C:\Users\CYMR90~1\AppData\Local\Temp\ccScBURM.s:24568  .debug_str:0000000000015f8d .LASF2068
C:\Users\CYMR90~1\AppData\Local\Temp\ccScBURM.s:22434  .debug_str:000000000000d894 .LASF2069
C:\Users\CYMR90~1\AppData\Local\Temp\ccScBURM.s:20534  .debug_str:0000000000005b5c .LASF2070
C:\Users\CYMR90~1\AppData\Local\Temp\ccScBURM.s:23750  .debug_str:0000000000012b94 .LASF2071
C:\Users\CYMR90~1\AppData\Local\Temp\ccScBURM.s:22778  .debug_str:000000000000edc7 .LASF2072
C:\Users\CYMR90~1\AppData\Local\Temp\ccScBURM.s:22020  .debug_str:000000000000bc03 .LASF2073
C:\Users\CYMR90~1\AppData\Local\Temp\ccScBURM.s:30043  .debug_str:000000000002bf90 .LASF2074
C:\Users\CYMR90~1\AppData\Local\Temp\ccScBURM.s:21300  .debug_str:0000000000008db0 .LASF2075
C:\Users\CYMR90~1\AppData\Local\Temp\ccScBURM.s:29331  .debug_str:00000000000292b7 .LASF2076
C:\Users\CYMR90~1\AppData\Local\Temp\ccScBURM.s:20388  .debug_str:0000000000005257 .LASF2077
C:\Users\CYMR90~1\AppData\Local\Temp\ccScBURM.s:19504  .debug_str:000000000000195c .LASF2078
C:\Users\CYMR90~1\AppData\Local\Temp\ccScBURM.s:27915  .debug_str:00000000000234e8 .LASF2079
C:\Users\CYMR90~1\AppData\Local\Temp\ccScBURM.s:29219  .debug_str:0000000000028b37 .LASF2080
C:\Users\CYMR90~1\AppData\Local\Temp\ccScBURM.s:29309  .debug_str:00000000000290f7 .LASF2081
C:\Users\CYMR90~1\AppData\Local\Temp\ccScBURM.s:23620  .debug_str:00000000000122d8 .LASF2082
C:\Users\CYMR90~1\AppData\Local\Temp\ccScBURM.s:21084  .debug_str:0000000000007f04 .LASF2083
C:\Users\CYMR90~1\AppData\Local\Temp\ccScBURM.s:27799  .debug_str:0000000000022e0e .LASF2084
C:\Users\CYMR90~1\AppData\Local\Temp\ccScBURM.s:19400  .debug_str:000000000000128a .LASF2085
C:\Users\CYMR90~1\AppData\Local\Temp\ccScBURM.s:19254  .debug_str:0000000000000951 .LASF2086
C:\Users\CYMR90~1\AppData\Local\Temp\ccScBURM.s:25811  .debug_str:000000000001b2b1 .LASF2087
C:\Users\CYMR90~1\AppData\Local\Temp\ccScBURM.s:26875  .debug_str:000000000001f5ab .LASF2088
C:\Users\CYMR90~1\AppData\Local\Temp\ccScBURM.s:24787  .debug_str:0000000000016fae .LASF2089
C:\Users\CYMR90~1\AppData\Local\Temp\ccScBURM.s:23556  .debug_str:0000000000011ed2 .LASF2090
C:\Users\CYMR90~1\AppData\Local\Temp\ccScBURM.s:24885  .debug_str:000000000001757a .LASF2091
C:\Users\CYMR90~1\AppData\Local\Temp\ccScBURM.s:24048  .debug_str:0000000000013ed5 .LASF2092
C:\Users\CYMR90~1\AppData\Local\Temp\ccScBURM.s:19924  .debug_str:00000000000033aa .LASF2093
C:\Users\CYMR90~1\AppData\Local\Temp\ccScBURM.s:20144  .debug_str:0000000000004265 .LASF2094
C:\Users\CYMR90~1\AppData\Local\Temp\ccScBURM.s:21542  .debug_str:0000000000009ca4 .LASF2095
C:\Users\CYMR90~1\AppData\Local\Temp\ccScBURM.s:19900  .debug_str:00000000000031f6 .LASF2096
C:\Users\CYMR90~1\AppData\Local\Temp\ccScBURM.s:28511  .debug_str:0000000000025d18 .LASF2097
C:\Users\CYMR90~1\AppData\Local\Temp\ccScBURM.s:23108  .debug_str:0000000000010243 .LASF2098
C:\Users\CYMR90~1\AppData\Local\Temp\ccScBURM.s:21898  .debug_str:000000000000b38a .LASF2099
C:\Users\CYMR90~1\AppData\Local\Temp\ccScBURM.s:20704  .debug_str:0000000000006587 .LASF2100
C:\Users\CYMR90~1\AppData\Local\Temp\ccScBURM.s:19812  .debug_str:0000000000002c01 .LASF2101
C:\Users\CYMR90~1\AppData\Local\Temp\ccScBURM.s:21580  .debug_str:0000000000009ee6 .LASF2102
C:\Users\CYMR90~1\AppData\Local\Temp\ccScBURM.s:29993  .debug_str:000000000002bbed .LASF2103
C:\Users\CYMR90~1\AppData\Local\Temp\ccScBURM.s:24883  .debug_str:0000000000017556 .LASF2104
C:\Users\CYMR90~1\AppData\Local\Temp\ccScBURM.s:19918  .debug_str:0000000000003339 .LASF2105
C:\Users\CYMR90~1\AppData\Local\Temp\ccScBURM.s:29279  .debug_str:0000000000028f19 .LASF2106
C:\Users\CYMR90~1\AppData\Local\Temp\ccScBURM.s:23588  .debug_str:00000000000120e2 .LASF2107
C:\Users\CYMR90~1\AppData\Local\Temp\ccScBURM.s:19934  .debug_str:0000000000003438 .LASF2108
C:\Users\CYMR90~1\AppData\Local\Temp\ccScBURM.s:22344  .debug_str:000000000000d266 .LASF2109
C:\Users\CYMR90~1\AppData\Local\Temp\ccScBURM.s:24831  .debug_str:0000000000017226 .LASF2110
C:\Users\CYMR90~1\AppData\Local\Temp\ccScBURM.s:26895  .debug_str:000000000001f6c6 .LASF2111
C:\Users\CYMR90~1\AppData\Local\Temp\ccScBURM.s:29435  .debug_str:0000000000029933 .LASF2112
C:\Users\CYMR90~1\AppData\Local\Temp\ccScBURM.s:28841  .debug_str:0000000000027218 .LASF2113
C:\Users\CYMR90~1\AppData\Local\Temp\ccScBURM.s:23944  .debug_str:0000000000013888 .LASF2114
C:\Users\CYMR90~1\AppData\Local\Temp\ccScBURM.s:25795  .debug_str:000000000001b190 .LASF2115
C:\Users\CYMR90~1\AppData\Local\Temp\ccScBURM.s:24126  .debug_str:00000000000143b5 .LASF2116
C:\Users\CYMR90~1\AppData\Local\Temp\ccScBURM.s:28141  .debug_str:00000000000243d6 .LASF2117
C:\Users\CYMR90~1\AppData\Local\Temp\ccScBURM.s:26837  .debug_str:000000000001f36f .LASF2118
C:\Users\CYMR90~1\AppData\Local\Temp\ccScBURM.s:19768  .debug_str:0000000000002937 .LASF2119
C:\Users\CYMR90~1\AppData\Local\Temp\ccScBURM.s:27269  .debug_str:0000000000020e01 .LASF2120
C:\Users\CYMR90~1\AppData\Local\Temp\ccScBURM.s:21156  .debug_str:0000000000008455 .LASF2121
C:\Users\CYMR90~1\AppData\Local\Temp\ccScBURM.s:23990  .debug_str:0000000000013b5f .LASF2122
C:\Users\CYMR90~1\AppData\Local\Temp\ccScBURM.s:26579  .debug_str:000000000001e3cf .LASF2123
C:\Users\CYMR90~1\AppData\Local\Temp\ccScBURM.s:23846  .debug_str:00000000000131d7 .LASF2124
C:\Users\CYMR90~1\AppData\Local\Temp\ccScBURM.s:24951  .debug_str:00000000000179d0 .LASF2125
C:\Users\CYMR90~1\AppData\Local\Temp\ccScBURM.s:28821  .debug_str:0000000000027031 .LASF2126
C:\Users\CYMR90~1\AppData\Local\Temp\ccScBURM.s:27377  .debug_str:00000000000214af .LASF2127
C:\Users\CYMR90~1\AppData\Local\Temp\ccScBURM.s:23308  .debug_str:0000000000010e92 .LASF2128
C:\Users\CYMR90~1\AppData\Local\Temp\ccScBURM.s:27285  .debug_str:0000000000020edb .LASF2129
C:\Users\CYMR90~1\AppData\Local\Temp\ccScBURM.s:25171  .debug_str:00000000000186bc .LASF2130
C:\Users\CYMR90~1\AppData\Local\Temp\ccScBURM.s:27111  .debug_str:000000000002040a .LASF2131
C:\Users\CYMR90~1\AppData\Local\Temp\ccScBURM.s:23494  .debug_str:0000000000011b12 .LASF2132
C:\Users\CYMR90~1\AppData\Local\Temp\ccScBURM.s:19908  .debug_str:000000000000329b .LASF2133
C:\Users\CYMR90~1\AppData\Local\Temp\ccScBURM.s:19648  .debug_str:0000000000002192 .LASF2134
C:\Users\CYMR90~1\AppData\Local\Temp\ccScBURM.s:25329  .debug_str:000000000001920f .LASF2135
C:\Users\CYMR90~1\AppData\Local\Temp\ccScBURM.s:29539  .debug_str:0000000000029f46 .LASF2136
C:\Users\CYMR90~1\AppData\Local\Temp\ccScBURM.s:21158  .debug_str:000000000000847a .LASF2137
C:\Users\CYMR90~1\AppData\Local\Temp\ccScBURM.s:27471  .debug_str:0000000000021a7f .LASF2138
C:\Users\CYMR90~1\AppData\Local\Temp\ccScBURM.s:23408  .debug_str:0000000000011464 .LASF2139
C:\Users\CYMR90~1\AppData\Local\Temp\ccScBURM.s:22896  .debug_str:000000000000f4b1 .LASF2140
C:\Users\CYMR90~1\AppData\Local\Temp\ccScBURM.s:26853  .debug_str:000000000001f46a .LASF2141
C:\Users\CYMR90~1\AppData\Local\Temp\ccScBURM.s:27399  .debug_str:00000000000215f1 .LASF2142
C:\Users\CYMR90~1\AppData\Local\Temp\ccScBURM.s:23684  .debug_str:000000000001271e .LASF2143
C:\Users\CYMR90~1\AppData\Local\Temp\ccScBURM.s:19936  .debug_str:000000000000345f .LASF2144
C:\Users\CYMR90~1\AppData\Local\Temp\ccScBURM.s:19120  .debug_str:000000000000014f .LASF2145
C:\Users\CYMR90~1\AppData\Local\Temp\ccScBURM.s:22750  .debug_str:000000000000ebfd .LASF2146
C:\Users\CYMR90~1\AppData\Local\Temp\ccScBURM.s:24891  .debug_str:00000000000175d0 .LASF2147
C:\Users\CYMR90~1\AppData\Local\Temp\ccScBURM.s:29245  .debug_str:0000000000028cf3 .LASF2148
C:\Users\CYMR90~1\AppData\Local\Temp\ccScBURM.s:28843  .debug_str:000000000002723f .LASF2149
C:\Users\CYMR90~1\AppData\Local\Temp\ccScBURM.s:23946  .debug_str:00000000000138af .LASF2150
C:\Users\CYMR90~1\AppData\Local\Temp\ccScBURM.s:22514  .debug_str:000000000000dd11 .LASF2151
C:\Users\CYMR90~1\AppData\Local\Temp\ccScBURM.s:29391  .debug_str:00000000000296d6 .LASF2152
C:\Users\CYMR90~1\AppData\Local\Temp\ccScBURM.s:24668  .debug_str:00000000000165f0 .LASF2153
C:\Users\CYMR90~1\AppData\Local\Temp\ccScBURM.s:19456  .debug_str:00000000000015ef .LASF2154
C:\Users\CYMR90~1\AppData\Local\Temp\ccScBURM.s:20010  .debug_str:0000000000003963 .LASF2155
C:\Users\CYMR90~1\AppData\Local\Temp\ccScBURM.s:28809  .debug_str:0000000000026f49 .LASF2156
C:\Users\CYMR90~1\AppData\Local\Temp\ccScBURM.s:23346  .debug_str:00000000000110cc .LASF2157
C:\Users\CYMR90~1\AppData\Local\Temp\ccScBURM.s:25233  .debug_str:0000000000018af4 .LASF2158
C:\Users\CYMR90~1\AppData\Local\Temp\ccScBURM.s:28615  .debug_str:000000000002638e .LASF2159
C:\Users\CYMR90~1\AppData\Local\Temp\ccScBURM.s:21330  .debug_str:0000000000008f93 .LASF2160
C:\Users\CYMR90~1\AppData\Local\Temp\ccScBURM.s:29521  .debug_str:0000000000029e34 .LASF2161
C:\Users\CYMR90~1\AppData\Local\Temp\ccScBURM.s:30223  .debug_str:000000000002cb49 .LASF2162
C:\Users\CYMR90~1\AppData\Local\Temp\ccScBURM.s:20044  .debug_str:0000000000003b9a .LASF2163
C:\Users\CYMR90~1\AppData\Local\Temp\ccScBURM.s:27897  .debug_str:0000000000023386 .LASF2164
C:\Users\CYMR90~1\AppData\Local\Temp\ccScBURM.s:25313  .debug_str:0000000000019130 .LASF2165
C:\Users\CYMR90~1\AppData\Local\Temp\ccScBURM.s:22890  .debug_str:000000000000f45a .LASF2166
C:\Users\CYMR90~1\AppData\Local\Temp\ccScBURM.s:21190  .debug_str:000000000000867e .LASF2167
C:\Users\CYMR90~1\AppData\Local\Temp\ccScBURM.s:26409  .debug_str:000000000001d94a .LASF2168
C:\Users\CYMR90~1\AppData\Local\Temp\ccScBURM.s:24616  .debug_str:0000000000016285 .LASF2169
C:\Users\CYMR90~1\AppData\Local\Temp\ccScBURM.s:22666  .debug_str:000000000000e67c .LASF2170
C:\Users\CYMR90~1\AppData\Local\Temp\ccScBURM.s:22806  .debug_str:000000000000ef28 .LASF2171
C:\Users\CYMR90~1\AppData\Local\Temp\ccScBURM.s:26857  .debug_str:000000000001f4a1 .LASF2172
C:\Users\CYMR90~1\AppData\Local\Temp\ccScBURM.s:24556  .debug_str:0000000000015eb0 .LASF2173
C:\Users\CYMR90~1\AppData\Local\Temp\ccScBURM.s:23550  .debug_str:0000000000011e90 .LASF2174
C:\Users\CYMR90~1\AppData\Local\Temp\ccScBURM.s:26647  .debug_str:000000000001e81f .LASF2175
C:\Users\CYMR90~1\AppData\Local\Temp\ccScBURM.s:21900  .debug_str:000000000000b399 .LASF2176
C:\Users\CYMR90~1\AppData\Local\Temp\ccScBURM.s:27545  .debug_str:0000000000021f0c .LASF2177
C:\Users\CYMR90~1\AppData\Local\Temp\ccScBURM.s:22528  .debug_str:000000000000de0a .LASF2178
C:\Users\CYMR90~1\AppData\Local\Temp\ccScBURM.s:21034  .debug_str:0000000000007b46 .LASF2179
C:\Users\CYMR90~1\AppData\Local\Temp\ccScBURM.s:28531  .debug_str:0000000000025e80 .LASF2180
C:\Users\CYMR90~1\AppData\Local\Temp\ccScBURM.s:22696  .debug_str:000000000000e8a1 .LASF2181
C:\Users\CYMR90~1\AppData\Local\Temp\ccScBURM.s:24590  .debug_str:0000000000016102 .LASF2182
C:\Users\CYMR90~1\AppData\Local\Temp\ccScBURM.s:20164  .debug_str:0000000000004383 .LASF2183
C:\Users\CYMR90~1\AppData\Local\Temp\ccScBURM.s:22980  .debug_str:000000000000fa36 .LASF2184
C:\Users\CYMR90~1\AppData\Local\Temp\ccScBURM.s:29783  .debug_str:000000000002adfd .LASF2185
C:\Users\CYMR90~1\AppData\Local\Temp\ccScBURM.s:26657  .debug_str:000000000001e8bf .LASF2186
C:\Users\CYMR90~1\AppData\Local\Temp\ccScBURM.s:21526  .debug_str:0000000000009bbc .LASF2187
C:\Users\CYMR90~1\AppData\Local\Temp\ccScBURM.s:25647  .debug_str:000000000001a7fd .LASF2188
C:\Users\CYMR90~1\AppData\Local\Temp\ccScBURM.s:20104  .debug_str:0000000000003efd .LASF2189
C:\Users\CYMR90~1\AppData\Local\Temp\ccScBURM.s:21626  .debug_str:000000000000a1e4 .LASF2190
C:\Users\CYMR90~1\AppData\Local\Temp\ccScBURM.s:26737  .debug_str:000000000001ed26 .LASF2191
C:\Users\CYMR90~1\AppData\Local\Temp\ccScBURM.s:20026  .debug_str:0000000000003a5e .LASF2192
C:\Users\CYMR90~1\AppData\Local\Temp\ccScBURM.s:23438  .debug_str:0000000000011656 .LASF2193
C:\Users\CYMR90~1\AppData\Local\Temp\ccScBURM.s:28093  .debug_str:0000000000024029 .LASF2194
C:\Users\CYMR90~1\AppData\Local\Temp\ccScBURM.s:20984  .debug_str:00000000000077e7 .LASF2195
C:\Users\CYMR90~1\AppData\Local\Temp\ccScBURM.s:24286  .debug_str:0000000000014dfa .LASF2196
C:\Users\CYMR90~1\AppData\Local\Temp\ccScBURM.s:21256  .debug_str:0000000000008aa0 .LASF2197
C:\Users\CYMR90~1\AppData\Local\Temp\ccScBURM.s:27105  .debug_str:00000000000203c1 .LASF2198
C:\Users\CYMR90~1\AppData\Local\Temp\ccScBURM.s:21762  .debug_str:000000000000aa6b .LASF2199
C:\Users\CYMR90~1\AppData\Local\Temp\ccScBURM.s:27611  .debug_str:00000000000222ee .LASF2200
C:\Users\CYMR90~1\AppData\Local\Temp\ccScBURM.s:26937  .debug_str:000000000001f95b .LASF2201
C:\Users\CYMR90~1\AppData\Local\Temp\ccScBURM.s:28107  .debug_str:000000000002414e .LASF2202
C:\Users\CYMR90~1\AppData\Local\Temp\ccScBURM.s:28681  .debug_str:00000000000267ad .LASF2203
C:\Users\CYMR90~1\AppData\Local\Temp\ccScBURM.s:28515  .debug_str:0000000000025d4b .LASF2204
C:\Users\CYMR90~1\AppData\Local\Temp\ccScBURM.s:28157  .debug_str:00000000000244ac .LASF2205
C:\Users\CYMR90~1\AppData\Local\Temp\ccScBURM.s:27235  .debug_str:0000000000020c28 .LASF2206
C:\Users\CYMR90~1\AppData\Local\Temp\ccScBURM.s:23156  .debug_str:00000000000104f9 .LASF2207
C:\Users\CYMR90~1\AppData\Local\Temp\ccScBURM.s:25277  .debug_str:0000000000018e2f .LASF2208
C:\Users\CYMR90~1\AppData\Local\Temp\ccScBURM.s:27083  .debug_str:0000000000020210 .LASF2209
C:\Users\CYMR90~1\AppData\Local\Temp\ccScBURM.s:22032  .debug_str:000000000000bca4 .LASF2210
C:\Users\CYMR90~1\AppData\Local\Temp\ccScBURM.s:20764  .debug_str:000000000000695b .LASF2211
C:\Users\CYMR90~1\AppData\Local\Temp\ccScBURM.s:23334  .debug_str:0000000000010ff5 .LASF2212
C:\Users\CYMR90~1\AppData\Local\Temp\ccScBURM.s:30045  .debug_str:000000000002bfa1 .LASF2213
C:\Users\CYMR90~1\AppData\Local\Temp\ccScBURM.s:24034  .debug_str:0000000000013dea .LASF2214
C:\Users\CYMR90~1\AppData\Local\Temp\ccScBURM.s:21722  .debug_str:000000000000a7fb .LASF2215
C:\Users\CYMR90~1\AppData\Local\Temp\ccScBURM.s:25885  .debug_str:000000000001b71c .LASF2216
C:\Users\CYMR90~1\AppData\Local\Temp\ccScBURM.s:25205  .debug_str:000000000001893e .LASF2217
C:\Users\CYMR90~1\AppData\Local\Temp\ccScBURM.s:29815  .debug_str:000000000002afbf .LASF2218
C:\Users\CYMR90~1\AppData\Local\Temp\ccScBURM.s:26433  .debug_str:000000000001da96 .LASF2219
C:\Users\CYMR90~1\AppData\Local\Temp\ccScBURM.s:25291  .debug_str:0000000000018ef4 .LASF2220
C:\Users\CYMR90~1\AppData\Local\Temp\ccScBURM.s:23720  .debug_str:0000000000012979 .LASF2221
C:\Users\CYMR90~1\AppData\Local\Temp\ccScBURM.s:25925  .debug_str:000000000001b93c .LASF2222
C:\Users\CYMR90~1\AppData\Local\Temp\ccScBURM.s:20698  .debug_str:000000000000652f .LASF2223
C:\Users\CYMR90~1\AppData\Local\Temp\ccScBURM.s:19142  .debug_str:000000000000029d .LASF2224
C:\Users\CYMR90~1\AppData\Local\Temp\ccScBURM.s:20236  .debug_str:0000000000004873 .LASF2225
C:\Users\CYMR90~1\AppData\Local\Temp\ccScBURM.s:25475  .debug_str:0000000000019bbe .LASF2226
C:\Users\CYMR90~1\AppData\Local\Temp\ccScBURM.s:24757  .debug_str:0000000000016dc8 .LASF2227
C:\Users\CYMR90~1\AppData\Local\Temp\ccScBURM.s:26485  .debug_str:000000000001de5d .LASF2228
C:\Users\CYMR90~1\AppData\Local\Temp\ccScBURM.s:20206  .debug_str:0000000000004655 .LASF2229
C:\Users\CYMR90~1\AppData\Local\Temp\ccScBURM.s:26711  .debug_str:000000000001eb9d .LASF2230
C:\Users\CYMR90~1\AppData\Local\Temp\ccScBURM.s:19514  .debug_str:00000000000019f7 .LASF2231
C:\Users\CYMR90~1\AppData\Local\Temp\ccScBURM.s:25463  .debug_str:0000000000019afa .LASF2232
C:\Users\CYMR90~1\AppData\Local\Temp\ccScBURM.s:22206  .debug_str:000000000000c937 .LASF2233
C:\Users\CYMR90~1\AppData\Local\Temp\ccScBURM.s:20436  .debug_str:0000000000005552 .LASF2234
C:\Users\CYMR90~1\AppData\Local\Temp\ccScBURM.s:29999  .debug_str:000000000002bc4a .LASF2235
C:\Users\CYMR90~1\AppData\Local\Temp\ccScBURM.s:22670  .debug_str:000000000000e6b7 .LASF2236
C:\Users\CYMR90~1\AppData\Local\Temp\ccScBURM.s:27353  .debug_str:000000000002133d .LASF2237
C:\Users\CYMR90~1\AppData\Local\Temp\ccScBURM.s:26389  .debug_str:000000000001d7ff .LASF2238
C:\Users\CYMR90~1\AppData\Local\Temp\ccScBURM.s:26319  .debug_str:000000000001d36f .LASF2239
C:\Users\CYMR90~1\AppData\Local\Temp\ccScBURM.s:19572  .debug_str:0000000000001d7c .LASF2240
C:\Users\CYMR90~1\AppData\Local\Temp\ccScBURM.s:27371  .debug_str:000000000002145b .LASF2241
C:\Users\CYMR90~1\AppData\Local\Temp\ccScBURM.s:28885  .debug_str:0000000000027489 .LASF2242
C:\Users\CYMR90~1\AppData\Local\Temp\ccScBURM.s:22412  .debug_str:000000000000d780 .LASF2243
C:\Users\CYMR90~1\AppData\Local\Temp\ccScBURM.s:24767  .debug_str:0000000000016e64 .LASF2244
C:\Users\CYMR90~1\AppData\Local\Temp\ccScBURM.s:21712  .debug_str:000000000000a720 .LASF2245
C:\Users\CYMR90~1\AppData\Local\Temp\ccScBURM.s:24350  .debug_str:00000000000151ff .LASF2246
C:\Users\CYMR90~1\AppData\Local\Temp\ccScBURM.s:19938  .debug_str:0000000000003486 .LASF2247
C:\Users\CYMR90~1\AppData\Local\Temp\ccScBURM.s:26731  .debug_str:000000000001eccc .LASF2248
C:\Users\CYMR90~1\AppData\Local\Temp\ccScBURM.s:25863  .debug_str:000000000001b5a7 .LASF2249
C:\Users\CYMR90~1\AppData\Local\Temp\ccScBURM.s:24925  .debug_str:00000000000177ef .LASF2250
C:\Users\CYMR90~1\AppData\Local\Temp\ccScBURM.s:28115  .debug_str:00000000000241e7 .LASF2251
C:\Users\CYMR90~1\AppData\Local\Temp\ccScBURM.s:23726  .debug_str:00000000000129d6 .LASF2252
C:\Users\CYMR90~1\AppData\Local\Temp\ccScBURM.s:22478  .debug_str:000000000000db20 .LASF2253
C:\Users\CYMR90~1\AppData\Local\Temp\ccScBURM.s:21242  .debug_str:00000000000089c1 .LASF2254
C:\Users\CYMR90~1\AppData\Local\Temp\ccScBURM.s:23134  .debug_str:00000000000103c4 .LASF2255
C:\Users\CYMR90~1\AppData\Local\Temp\ccScBURM.s:26133  .debug_str:000000000001c637 .LASF2256
C:\Users\CYMR90~1\AppData\Local\Temp\ccScBURM.s:23428  .debug_str:00000000000115aa .LASF2257
C:\Users\CYMR90~1\AppData\Local\Temp\ccScBURM.s:23646  .debug_str:000000000001248f .LASF2258
C:\Users\CYMR90~1\AppData\Local\Temp\ccScBURM.s:23330  .debug_str:0000000000010fb3 .LASF2259
C:\Users\CYMR90~1\AppData\Local\Temp\ccScBURM.s:24396  .debug_str:00000000000154ab .LASF2260
C:\Users\CYMR90~1\AppData\Local\Temp\ccScBURM.s:19632  .debug_str:00000000000020b4 .LASF2261
C:\Users\CYMR90~1\AppData\Local\Temp\ccScBURM.s:22718  .debug_str:000000000000e9f3 .LASF2262
C:\Users\CYMR90~1\AppData\Local\Temp\ccScBURM.s:26505  .debug_str:000000000001df9e .LASF2263
C:\Users\CYMR90~1\AppData\Local\Temp\ccScBURM.s:25565  .debug_str:000000000001a0e1 .LASF2264
C:\Users\CYMR90~1\AppData\Local\Temp\ccScBURM.s:22564  .debug_str:000000000000e081 .LASF2265
C:\Users\CYMR90~1\AppData\Local\Temp\ccScBURM.s:21914  .debug_str:000000000000b503 .LASF2266
C:\Users\CYMR90~1\AppData\Local\Temp\ccScBURM.s:24933  .debug_str:00000000000178a9 .LASF2267
C:\Users\CYMR90~1\AppData\Local\Temp\ccScBURM.s:21324  .debug_str:0000000000008f31 .LASF2268
C:\Users\CYMR90~1\AppData\Local\Temp\ccScBURM.s:20258  .debug_str:0000000000004a57 .LASF2269
C:\Users\CYMR90~1\AppData\Local\Temp\ccScBURM.s:26011  .debug_str:000000000001bedd .LASF2270
C:\Users\CYMR90~1\AppData\Local\Temp\ccScBURM.s:26411  .debug_str:000000000001d962 .LASF2271
C:\Users\CYMR90~1\AppData\Local\Temp\ccScBURM.s:24242  .debug_str:0000000000014b17 .LASF2272
C:\Users\CYMR90~1\AppData\Local\Temp\ccScBURM.s:29095  .debug_str:000000000002833b .LASF2273
C:\Users\CYMR90~1\AppData\Local\Temp\ccScBURM.s:25769  .debug_str:000000000001afce .LASF2274
C:\Users\CYMR90~1\AppData\Local\Temp\ccScBURM.s:22484  .debug_str:000000000000db8b .LASF2275
C:\Users\CYMR90~1\AppData\Local\Temp\ccScBURM.s:20038  .debug_str:0000000000003b34 .LASF2276
C:\Users\CYMR90~1\AppData\Local\Temp\ccScBURM.s:19310  .debug_str:0000000000000d00 .LASF2277
C:\Users\CYMR90~1\AppData\Local\Temp\ccScBURM.s:28949  .debug_str:000000000002789a .LASF2278
C:\Users\CYMR90~1\AppData\Local\Temp\ccScBURM.s:27357  .debug_str:000000000002137b .LASF2279
C:\Users\CYMR90~1\AppData\Local\Temp\ccScBURM.s:20440  .debug_str:0000000000005586 .LASF2280
C:\Users\CYMR90~1\AppData\Local\Temp\ccScBURM.s:25499  .debug_str:0000000000019d41 .LASF2281
C:\Users\CYMR90~1\AppData\Local\Temp\ccScBURM.s:24819  .debug_str:000000000001716f .LASF2282
C:\Users\CYMR90~1\AppData\Local\Temp\ccScBURM.s:26189  .debug_str:000000000001ca53 .LASF2283
C:\Users\CYMR90~1\AppData\Local\Temp\ccScBURM.s:25727  .debug_str:000000000001acc1 .LASF2284
C:\Users\CYMR90~1\AppData\Local\Temp\ccScBURM.s:28903  .debug_str:0000000000027587 .LASF2285
C:\Users\CYMR90~1\AppData\Local\Temp\ccScBURM.s:23336  .debug_str:000000000001101d .LASF2286
C:\Users\CYMR90~1\AppData\Local\Temp\ccScBURM.s:27509  .debug_str:0000000000021cfe .LASF2287
C:\Users\CYMR90~1\AppData\Local\Temp\ccScBURM.s:29403  .debug_str:0000000000029753 .LASF2288
C:\Users\CYMR90~1\AppData\Local\Temp\ccScBURM.s:23542  .debug_str:0000000000011de5 .LASF2289
C:\Users\CYMR90~1\AppData\Local\Temp\ccScBURM.s:29867  .debug_str:000000000002b37f .LASF2290
C:\Users\CYMR90~1\AppData\Local\Temp\ccScBURM.s:26599  .debug_str:000000000001e519 .LASF2291
C:\Users\CYMR90~1\AppData\Local\Temp\ccScBURM.s:20340  .debug_str:0000000000004f6a .LASF2292
C:\Users\CYMR90~1\AppData\Local\Temp\ccScBURM.s:29269  .debug_str:0000000000028e57 .LASF2293
C:\Users\CYMR90~1\AppData\Local\Temp\ccScBURM.s:29831  .debug_str:000000000002b0f7 .LASF2294
C:\Users\CYMR90~1\AppData\Local\Temp\ccScBURM.s:22544  .debug_str:000000000000df3c .LASF2295
C:\Users\CYMR90~1\AppData\Local\Temp\ccScBURM.s:22518  .debug_str:000000000000dd47 .LASF2296
C:\Users\CYMR90~1\AppData\Local\Temp\ccScBURM.s:21892  .debug_str:000000000000b314 .LASF2297
C:\Users\CYMR90~1\AppData\Local\Temp\ccScBURM.s:24046  .debug_str:0000000000013eaa .LASF2298
C:\Users\CYMR90~1\AppData\Local\Temp\ccScBURM.s:29109  .debug_str:0000000000028430 .LASF2299
C:\Users\CYMR90~1\AppData\Local\Temp\ccScBURM.s:22868  .debug_str:000000000000f2d4 .LASF2300
C:\Users\CYMR90~1\AppData\Local\Temp\ccScBURM.s:25957  .debug_str:000000000001bb58 .LASF2301
C:\Users\CYMR90~1\AppData\Local\Temp\ccScBURM.s:28243  .debug_str:0000000000024a79 .LASF2302
C:\Users\CYMR90~1\AppData\Local\Temp\ccScBURM.s:22476  .debug_str:000000000000daf9 .LASF2303
C:\Users\CYMR90~1\AppData\Local\Temp\ccScBURM.s:27403  .debug_str:000000000002162c .LASF2304
C:\Users\CYMR90~1\AppData\Local\Temp\ccScBURM.s:19390  .debug_str:000000000000120b .LASF2305
C:\Users\CYMR90~1\AppData\Local\Temp\ccScBURM.s:25671  .debug_str:000000000001a957 .LASF2306
C:\Users\CYMR90~1\AppData\Local\Temp\ccScBURM.s:26153  .debug_str:000000000001c814 .LASF2307
C:\Users\CYMR90~1\AppData\Local\Temp\ccScBURM.s:19884  .debug_str:00000000000030dd .LASF2308
C:\Users\CYMR90~1\AppData\Local\Temp\ccScBURM.s:28529  .debug_str:0000000000025e57 .LASF2309
C:\Users\CYMR90~1\AppData\Local\Temp\ccScBURM.s:29343  .debug_str:000000000002936a .LASF2310
C:\Users\CYMR90~1\AppData\Local\Temp\ccScBURM.s:24084  .debug_str:000000000001412a .LASF2311
C:\Users\CYMR90~1\AppData\Local\Temp\ccScBURM.s:29061  .debug_str:000000000002808b .LASF2312
C:\Users\CYMR90~1\AppData\Local\Temp\ccScBURM.s:20946  .debug_str:0000000000007569 .LASF2313
C:\Users\CYMR90~1\AppData\Local\Temp\ccScBURM.s:27187  .debug_str:000000000002092d .LASF2314
C:\Users\CYMR90~1\AppData\Local\Temp\ccScBURM.s:21004  .debug_str:0000000000007924 .LASF2315
C:\Users\CYMR90~1\AppData\Local\Temp\ccScBURM.s:25975  .debug_str:000000000001bc73 .LASF2316
C:\Users\CYMR90~1\AppData\Local\Temp\ccScBURM.s:29105  .debug_str:00000000000283ef .LASF2317
C:\Users\CYMR90~1\AppData\Local\Temp\ccScBURM.s:22754  .debug_str:000000000000ec3b .LASF2318
C:\Users\CYMR90~1\AppData\Local\Temp\ccScBURM.s:20270  .debug_str:0000000000004b13 .LASF2319
C:\Users\CYMR90~1\AppData\Local\Temp\ccScBURM.s:19804  .debug_str:0000000000002b95 .LASF2320
C:\Users\CYMR90~1\AppData\Local\Temp\ccScBURM.s:30303  .debug_str:000000000002d0b6 .LASF2321
C:\Users\CYMR90~1\AppData\Local\Temp\ccScBURM.s:20626  .debug_str:00000000000060dc .LASF2322
C:\Users\CYMR90~1\AppData\Local\Temp\ccScBURM.s:24204  .debug_str:00000000000148d6 .LASF2323
C:\Users\CYMR90~1\AppData\Local\Temp\ccScBURM.s:29893  .debug_str:000000000002b519 .LASF2324
C:\Users\CYMR90~1\AppData\Local\Temp\ccScBURM.s:21690  .debug_str:000000000000a604 .LASF2325
C:\Users\CYMR90~1\AppData\Local\Temp\ccScBURM.s:25165  .debug_str:000000000001865e .LASF2326
C:\Users\CYMR90~1\AppData\Local\Temp\ccScBURM.s:19666  .debug_str:00000000000022b0 .LASF2327
C:\Users\CYMR90~1\AppData\Local\Temp\ccScBURM.s:24118  .debug_str:0000000000014343 .LASF2328
C:\Users\CYMR90~1\AppData\Local\Temp\ccScBURM.s:20998  .debug_str:00000000000078d7 .LASF2329
C:\Users\CYMR90~1\AppData\Local\Temp\ccScBURM.s:22138  .debug_str:000000000000c486 .LASF2330
C:\Users\CYMR90~1\AppData\Local\Temp\ccScBURM.s:23176  .debug_str:0000000000010623 .LASF2331
C:\Users\CYMR90~1\AppData\Local\Temp\ccScBURM.s:27313  .debug_str:000000000002104a .LASF2332
C:\Users\CYMR90~1\AppData\Local\Temp\ccScBURM.s:28705  .debug_str:0000000000026930 .LASF2333
C:\Users\CYMR90~1\AppData\Local\Temp\ccScBURM.s:23188  .debug_str:00000000000106dd .LASF2334
C:\Users\CYMR90~1\AppData\Local\Temp\ccScBURM.s:23582  .debug_str:000000000001207e .LASF2335
C:\Users\CYMR90~1\AppData\Local\Temp\ccScBURM.s:22646  .debug_str:000000000000e549 .LASF2336
C:\Users\CYMR90~1\AppData\Local\Temp\ccScBURM.s:20640  .debug_str:00000000000061d7 .LASF2337
C:\Users\CYMR90~1\AppData\Local\Temp\ccScBURM.s:19712  .debug_str:000000000000254c .LASF2338
C:\Users\CYMR90~1\AppData\Local\Temp\ccScBURM.s:26375  .debug_str:000000000001d720 .LASF2339
C:\Users\CYMR90~1\AppData\Local\Temp\ccScBURM.s:28589  .debug_str:00000000000261e6 .LASF2340
C:\Users\CYMR90~1\AppData\Local\Temp\ccScBURM.s:26967  .debug_str:000000000001fb51 .LASF2341
C:\Users\CYMR90~1\AppData\Local\Temp\ccScBURM.s:26983  .debug_str:000000000001fc29 .LASF2342
C:\Users\CYMR90~1\AppData\Local\Temp\ccScBURM.s:28013  .debug_str:0000000000023ab6 .LASF2343
C:\Users\CYMR90~1\AppData\Local\Temp\ccScBURM.s:28811  .debug_str:0000000000026f5f .LASF2344
C:\Users\CYMR90~1\AppData\Local\Temp\ccScBURM.s:26077  .debug_str:000000000001c302 .LASF2345
C:\Users\CYMR90~1\AppData\Local\Temp\ccScBURM.s:26247  .debug_str:000000000001cea9 .LASF2346
C:\Users\CYMR90~1\AppData\Local\Temp\ccScBURM.s:21212  .debug_str:00000000000087bf .LASF2347
C:\Users\CYMR90~1\AppData\Local\Temp\ccScBURM.s:23932  .debug_str:00000000000137fa .LASF2348
C:\Users\CYMR90~1\AppData\Local\Temp\ccScBURM.s:27455  .debug_str:000000000002194e .LASF2349
C:\Users\CYMR90~1\AppData\Local\Temp\ccScBURM.s:29699  .debug_str:000000000002a8fa .LASF2350
C:\Users\CYMR90~1\AppData\Local\Temp\ccScBURM.s:28229  .debug_str:000000000002498a .LASF2351
C:\Users\CYMR90~1\AppData\Local\Temp\ccScBURM.s:20790  .debug_str:0000000000006ae5 .LASF2352
C:\Users\CYMR90~1\AppData\Local\Temp\ccScBURM.s:23088  .debug_str:00000000000100d3 .LASF2353
C:\Users\CYMR90~1\AppData\Local\Temp\ccScBURM.s:20736  .debug_str:0000000000006769 .LASF2354
C:\Users\CYMR90~1\AppData\Local\Temp\ccScBURM.s:30103  .debug_str:000000000002c3cb .LASF2355
C:\Users\CYMR90~1\AppData\Local\Temp\ccScBURM.s:29525  .debug_str:0000000000029e59 .LASF2356
C:\Users\CYMR90~1\AppData\Local\Temp\ccScBURM.s:22392  .debug_str:000000000000d61b .LASF2357
C:\Users\CYMR90~1\AppData\Local\Temp\ccScBURM.s:21442  .debug_str:0000000000009636 .LASF2358
C:\Users\CYMR90~1\AppData\Local\Temp\ccScBURM.s:20032  .debug_str:0000000000003ae7 .LASF2359
C:\Users\CYMR90~1\AppData\Local\Temp\ccScBURM.s:23100  .debug_str:00000000000101ac .LASF2360
C:\Users\CYMR90~1\AppData\Local\Temp\ccScBURM.s:21872  .debug_str:000000000000b21f .LASF2361
C:\Users\CYMR90~1\AppData\Local\Temp\ccScBURM.s:20670  .debug_str:0000000000006379 .LASF2362
C:\Users\CYMR90~1\AppData\Local\Temp\ccScBURM.s:28019  .debug_str:0000000000023b06 .LASF2363
C:\Users\CYMR90~1\AppData\Local\Temp\ccScBURM.s:27195  .debug_str:00000000000209a8 .LASF2364
C:\Users\CYMR90~1\AppData\Local\Temp\ccScBURM.s:23640  .debug_str:0000000000012427 .LASF2365
C:\Users\CYMR90~1\AppData\Local\Temp\ccScBURM.s:28263  .debug_str:0000000000024bf0 .LASF2366
C:\Users\CYMR90~1\AppData\Local\Temp\ccScBURM.s:28881  .debug_str:000000000002745c .LASF2367
C:\Users\CYMR90~1\AppData\Local\Temp\ccScBURM.s:21428  .debug_str:0000000000009513 .LASF2368
C:\Users\CYMR90~1\AppData\Local\Temp\ccScBURM.s:22748  .debug_str:000000000000ebd8 .LASF2369
C:\Users\CYMR90~1\AppData\Local\Temp\ccScBURM.s:20800  .debug_str:0000000000006ba2 .LASF2370
C:\Users\CYMR90~1\AppData\Local\Temp\ccScBURM.s:23152  .debug_str:00000000000104c0 .LASF2371
C:\Users\CYMR90~1\AppData\Local\Temp\ccScBURM.s:29979  .debug_str:000000000002baf3 .LASF2372
C:\Users\CYMR90~1\AppData\Local\Temp\ccScBURM.s:28657  .debug_str:0000000000026649 .LASF2373
C:\Users\CYMR90~1\AppData\Local\Temp\ccScBURM.s:19248  .debug_str:00000000000008fd .LASF2374
C:\Users\CYMR90~1\AppData\Local\Temp\ccScBURM.s:23546  .debug_str:0000000000011e3a .LASF2375
C:\Users\CYMR90~1\AppData\Local\Temp\ccScBURM.s:26679  .debug_str:000000000001e9f2 .LASF2376
C:\Users\CYMR90~1\AppData\Local\Temp\ccScBURM.s:29925  .debug_str:000000000002b794 .LASF2377
C:\Users\CYMR90~1\AppData\Local\Temp\ccScBURM.s:21874  .debug_str:000000000000b244 .LASF2378
C:\Users\CYMR90~1\AppData\Local\Temp\ccScBURM.s:20842  .debug_str:0000000000006e76 .LASF2379
C:\Users\CYMR90~1\AppData\Local\Temp\ccScBURM.s:28221  .debug_str:0000000000024907 .LASF2380
C:\Users\CYMR90~1\AppData\Local\Temp\ccScBURM.s:27977  .debug_str:00000000000238d1 .LASF2381
C:\Users\CYMR90~1\AppData\Local\Temp\ccScBURM.s:23318  .debug_str:0000000000010f34 .LASF2382
C:\Users\CYMR90~1\AppData\Local\Temp\ccScBURM.s:26453  .debug_str:000000000001dbd5 .LASF2383
C:\Users\CYMR90~1\AppData\Local\Temp\ccScBURM.s:29669  .debug_str:000000000002a754 .LASF2384
C:\Users\CYMR90~1\AppData\Local\Temp\ccScBURM.s:19546  .debug_str:0000000000001bf8 .LASF2385
C:\Users\CYMR90~1\AppData\Local\Temp\ccScBURM.s:24212  .debug_str:000000000001493e .LASF2386
C:\Users\CYMR90~1\AppData\Local\Temp\ccScBURM.s:28883  .debug_str:000000000002746e .LASF2387
C:\Users\CYMR90~1\AppData\Local\Temp\ccScBURM.s:25825  .debug_str:000000000001b37a .LASF2388
C:\Users\CYMR90~1\AppData\Local\Temp\ccScBURM.s:26975  .debug_str:000000000001fbc9 .LASF2389
C:\Users\CYMR90~1\AppData\Local\Temp\ccScBURM.s:20412  .debug_str:00000000000053ca .LASF2390
C:\Users\CYMR90~1\AppData\Local\Temp\ccScBURM.s:25091  .debug_str:000000000001821b .LASF2391
C:\Users\CYMR90~1\AppData\Local\Temp\ccScBURM.s:29769  .debug_str:000000000002ad23 .LASF2392
C:\Users\CYMR90~1\AppData\Local\Temp\ccScBURM.s:25933  .debug_str:000000000001b9c4 .LASF2393
C:\Users\CYMR90~1\AppData\Local\Temp\ccScBURM.s:28943  .debug_str:0000000000027835 .LASF2394
C:\Users\CYMR90~1\AppData\Local\Temp\ccScBURM.s:22404  .debug_str:000000000000d6e4 .LASF2395
C:\Users\CYMR90~1\AppData\Local\Temp\ccScBURM.s:27033  .debug_str:000000000001ff5e .LASF2396
C:\Users\CYMR90~1\AppData\Local\Temp\ccScBURM.s:20460  .debug_str:0000000000005680 .LASF2397
C:\Users\CYMR90~1\AppData\Local\Temp\ccScBURM.s:25145  .debug_str:0000000000018562 .LASF2398
C:\Users\CYMR90~1\AppData\Local\Temp\ccScBURM.s:29827  .debug_str:000000000002b0c6 .LASF2399
C:\Users\CYMR90~1\AppData\Local\Temp\ccScBURM.s:29703  .debug_str:000000000002a932 .LASF2400
C:\Users\CYMR90~1\AppData\Local\Temp\ccScBURM.s:21666  .debug_str:000000000000a48c .LASF2401
C:\Users\CYMR90~1\AppData\Local\Temp\ccScBURM.s:24835  .debug_str:000000000001726b .LASF2402
C:\Users\CYMR90~1\AppData\Local\Temp\ccScBURM.s:28023  .debug_str:0000000000023b37 .LASF2403
C:\Users\CYMR90~1\AppData\Local\Temp\ccScBURM.s:20062  .debug_str:0000000000003c7f .LASF2404
C:\Users\CYMR90~1\AppData\Local\Temp\ccScBURM.s:23196  .debug_str:0000000000010781 .LASF2405
C:\Users\CYMR90~1\AppData\Local\Temp\ccScBURM.s:26347  .debug_str:000000000001d545 .LASF2406
C:\Users\CYMR90~1\AppData\Local\Temp\ccScBURM.s:29551  .debug_str:000000000002a00f .LASF2407
C:\Users\CYMR90~1\AppData\Local\Temp\ccScBURM.s:23978  .debug_str:0000000000013a96 .LASF2408
C:\Users\CYMR90~1\AppData\Local\Temp\ccScBURM.s:22382  .debug_str:000000000000d574 .LASF2409
C:\Users\CYMR90~1\AppData\Local\Temp\ccScBURM.s:25717  .debug_str:000000000001ac1e .LASF2410
C:\Users\CYMR90~1\AppData\Local\Temp\ccScBURM.s:19136  .debug_str:0000000000000241 .LASF2411
C:\Users\CYMR90~1\AppData\Local\Temp\ccScBURM.s:25743  .debug_str:000000000001adcc .LASF2412
C:\Users\CYMR90~1\AppData\Local\Temp\ccScBURM.s:28431  .debug_str:000000000002584d .LASF2413
C:\Users\CYMR90~1\AppData\Local\Temp\ccScBURM.s:21908  .debug_str:000000000000b43a .LASF2414
C:\Users\CYMR90~1\AppData\Local\Temp\ccScBURM.s:26521  .debug_str:000000000001e08f .LASF2415
C:\Users\CYMR90~1\AppData\Local\Temp\ccScBURM.s:22236  .debug_str:000000000000cc18 .LASF2416
C:\Users\CYMR90~1\AppData\Local\Temp\ccScBURM.s:24632  .debug_str:000000000001635a .LASF2417
C:\Users\CYMR90~1\AppData\Local\Temp\ccScBURM.s:26733  .debug_str:000000000001ecfb .LASF2418
C:\Users\CYMR90~1\AppData\Local\Temp\ccScBURM.s:23852  .debug_str:0000000000013237 .LASF2419
C:\Users\CYMR90~1\AppData\Local\Temp\ccScBURM.s:28483  .debug_str:0000000000025b73 .LASF2420
C:\Users\CYMR90~1\AppData\Local\Temp\ccScBURM.s:21950  .debug_str:000000000000b794 .LASF2421
C:\Users\CYMR90~1\AppData\Local\Temp\ccScBURM.s:26571  .debug_str:000000000001e366 .LASF2422
C:\Users\CYMR90~1\AppData\Local\Temp\ccScBURM.s:20028  .debug_str:0000000000003a9c .LASF2423
C:\Users\CYMR90~1\AppData\Local\Temp\ccScBURM.s:24690  .debug_str:0000000000016709 .LASF2424
C:\Users\CYMR90~1\AppData\Local\Temp\ccScBURM.s:21788  .debug_str:000000000000ac26 .LASF2425
C:\Users\CYMR90~1\AppData\Local\Temp\ccScBURM.s:24865  .debug_str:0000000000017431 .LASF2426
C:\Users\CYMR90~1\AppData\Local\Temp\ccScBURM.s:28061  .debug_str:0000000000023da7 .LASF2427
C:\Users\CYMR90~1\AppData\Local\Temp\ccScBURM.s:20012  .debug_str:0000000000003979 .LASF2428
C:\Users\CYMR90~1\AppData\Local\Temp\ccScBURM.s:23230  .debug_str:0000000000010972 .LASF2429
C:\Users\CYMR90~1\AppData\Local\Temp\ccScBURM.s:23476  .debug_str:0000000000011981 .LASF2430
C:\Users\CYMR90~1\AppData\Local\Temp\ccScBURM.s:29591  .debug_str:000000000002a239 .LASF2431
C:\Users\CYMR90~1\AppData\Local\Temp\ccScBURM.s:20212  .debug_str:00000000000046c6 .LASF2432
C:\Users\CYMR90~1\AppData\Local\Temp\ccScBURM.s:28853  .debug_str:00000000000272eb .LASF2433
C:\Users\CYMR90~1\AppData\Local\Temp\ccScBURM.s:27827  .debug_str:0000000000022f98 .LASF2434
C:\Users\CYMR90~1\AppData\Local\Temp\ccScBURM.s:29163  .debug_str:00000000000287ea .LASF2435
C:\Users\CYMR90~1\AppData\Local\Temp\ccScBURM.s:22620  .debug_str:000000000000e3c6 .LASF2436
C:\Users\CYMR90~1\AppData\Local\Temp\ccScBURM.s:27255  .debug_str:0000000000020d35 .LASF2437
C:\Users\CYMR90~1\AppData\Local\Temp\ccScBURM.s:20690  .debug_str:00000000000064c1 .LASF2438
C:\Users\CYMR90~1\AppData\Local\Temp\ccScBURM.s:25379  .debug_str:000000000001951f .LASF2439
C:\Users\CYMR90~1\AppData\Local\Temp\ccScBURM.s:30047  .debug_str:000000000002bfc9 .LASF2440
C:\Users\CYMR90~1\AppData\Local\Temp\ccScBURM.s:23484  .debug_str:00000000000119ee .LASF2441
C:\Users\CYMR90~1\AppData\Local\Temp\ccScBURM.s:28125  .debug_str:00000000000242ca .LASF2442
C:\Users\CYMR90~1\AppData\Local\Temp\ccScBURM.s:22090  .debug_str:000000000000c1b6 .LASF2443
C:\Users\CYMR90~1\AppData\Local\Temp\ccScBURM.s:27307  .debug_str:0000000000020fdf .LASF2444
C:\Users\CYMR90~1\AppData\Local\Temp\ccScBURM.s:20740  .debug_str:00000000000067a2 .LASF2445
C:\Users\CYMR90~1\AppData\Local\Temp\ccScBURM.s:25427  .debug_str:00000000000198ae .LASF2446
C:\Users\CYMR90~1\AppData\Local\Temp\ccScBURM.s:30099  .debug_str:000000000002c38c .LASF2447
C:\Users\CYMR90~1\AppData\Local\Temp\ccScBURM.s:23538  .debug_str:0000000000011d97 .LASF2448
C:\Users\CYMR90~1\AppData\Local\Temp\ccScBURM.s:28173  .debug_str:00000000000245bf .LASF2449
C:\Users\CYMR90~1\AppData\Local\Temp\ccScBURM.s:26997  .debug_str:000000000001fd2a .LASF2450
C:\Users\CYMR90~1\AppData\Local\Temp\ccScBURM.s:28281  .debug_str:0000000000024cff .LASF2451
C:\Users\CYMR90~1\AppData\Local\Temp\ccScBURM.s:26645  .debug_str:000000000001e808 .LASF2452
C:\Users\CYMR90~1\AppData\Local\Temp\ccScBURM.s:25273  .debug_str:0000000000018e04 .LASF2453
C:\Users\CYMR90~1\AppData\Local\Temp\ccScBURM.s:28433  .debug_str:0000000000025866 .LASF2454
C:\Users\CYMR90~1\AppData\Local\Temp\ccScBURM.s:21852  .debug_str:000000000000b107 .LASF2455
C:\Users\CYMR90~1\AppData\Local\Temp\ccScBURM.s:23614  .debug_str:0000000000012295 .LASF2456
C:\Users\CYMR90~1\AppData\Local\Temp\ccScBURM.s:26741  .debug_str:000000000001ed77 .LASF2457
C:\Users\CYMR90~1\AppData\Local\Temp\ccScBURM.s:28211  .debug_str:000000000002487d .LASF2458
C:\Users\CYMR90~1\AppData\Local\Temp\ccScBURM.s:21856  .debug_str:000000000000b144 .LASF2459
C:\Users\CYMR90~1\AppData\Local\Temp\ccScBURM.s:28137  .debug_str:0000000000024375 .LASF2460
C:\Users\CYMR90~1\AppData\Local\Temp\ccScBURM.s:29921  .debug_str:000000000002b704 .LASF2461
C:\Users\CYMR90~1\AppData\Local\Temp\ccScBURM.s:26233  .debug_str:000000000001cde9 .LASF2462
C:\Users\CYMR90~1\AppData\Local\Temp\ccScBURM.s:19672  .debug_str:00000000000022fc .LASF2463
C:\Users\CYMR90~1\AppData\Local\Temp\ccScBURM.s:24330  .debug_str:00000000000150c2 .LASF2464
C:\Users\CYMR90~1\AppData\Local\Temp\ccScBURM.s:29011  .debug_str:0000000000027cfd .LASF2465
C:\Users\CYMR90~1\AppData\Local\Temp\ccScBURM.s:22466  .debug_str:000000000000da6b .LASF2466
C:\Users\CYMR90~1\AppData\Local\Temp\ccScBURM.s:27101  .debug_str:0000000000020379 .LASF2467
C:\Users\CYMR90~1\AppData\Local\Temp\ccScBURM.s:25217  .debug_str:00000000000189e6 .LASF2468
C:\Users\CYMR90~1\AppData\Local\Temp\ccScBURM.s:20092  .debug_str:0000000000003e70 .LASF2469
C:\Users\CYMR90~1\AppData\Local\Temp\ccScBURM.s:19728  .debug_str:0000000000002690 .LASF2470
C:\Users\CYMR90~1\AppData\Local\Temp\ccScBURM.s:23902  .debug_str:000000000001360c .LASF2471
C:\Users\CYMR90~1\AppData\Local\Temp\ccScBURM.s:29065  .debug_str:000000000002816f .LASF2472
C:\Users\CYMR90~1\AppData\Local\Temp\ccScBURM.s:22522  .debug_str:000000000000dd98 .LASF2473
C:\Users\CYMR90~1\AppData\Local\Temp\ccScBURM.s:27157  .debug_str:000000000002072c .LASF2474
C:\Users\CYMR90~1\AppData\Local\Temp\ccScBURM.s:29287  .debug_str:0000000000028f79 .LASF2475
C:\Users\CYMR90~1\AppData\Local\Temp\ccScBURM.s:19870  .debug_str:0000000000002fd0 .LASF2476
C:\Users\CYMR90~1\AppData\Local\Temp\ccScBURM.s:24408  .debug_str:0000000000015536 .LASF2477
C:\Users\CYMR90~1\AppData\Local\Temp\ccScBURM.s:29051  .debug_str:0000000000027ff4 .LASF2478
C:\Users\CYMR90~1\AppData\Local\Temp\ccScBURM.s:27423  .debug_str:000000000002178c .LASF2479
C:\Users\CYMR90~1\AppData\Local\Temp\ccScBURM.s:25829  .debug_str:000000000001b3bb .LASF2480
C:\Users\CYMR90~1\AppData\Local\Temp\ccScBURM.s:25939  .debug_str:000000000001ba0f .LASF2481
C:\Users\CYMR90~1\AppData\Local\Temp\ccScBURM.s:29139  .debug_str:000000000002867d .LASF2482
C:\Users\CYMR90~1\AppData\Local\Temp\ccScBURM.s:21088  .debug_str:0000000000007f3d .LASF2483
C:\Users\CYMR90~1\AppData\Local\Temp\ccScBURM.s:24184  .debug_str:000000000001479b .LASF2484
C:\Users\CYMR90~1\AppData\Local\Temp\ccScBURM.s:23906  .debug_str:0000000000013639 .LASF2485
C:\Users\CYMR90~1\AppData\Local\Temp\ccScBURM.s:28543  .debug_str:0000000000025f38 .LASF2486
C:\Users\CYMR90~1\AppData\Local\Temp\ccScBURM.s:22000  .debug_str:000000000000baab .LASF2487
C:\Users\CYMR90~1\AppData\Local\Temp\ccScBURM.s:26623  .debug_str:000000000001e661 .LASF2488
C:\Users\CYMR90~1\AppData\Local\Temp\ccScBURM.s:20082  .debug_str:0000000000003ddd .LASF2489
C:\Users\CYMR90~1\AppData\Local\Temp\ccScBURM.s:24753  .debug_str:0000000000016d83 .LASF2490
C:\Users\CYMR90~1\AppData\Local\Temp\ccScBURM.s:29421  .debug_str:000000000002985b .LASF2491
C:\Users\CYMR90~1\AppData\Local\Temp\ccScBURM.s:22880  .debug_str:000000000000f38a .LASF2492
C:\Users\CYMR90~1\AppData\Local\Temp\ccScBURM.s:20952  .debug_str:00000000000075ca .LASF2493
C:\Users\CYMR90~1\AppData\Local\Temp\ccScBURM.s:22058  .debug_str:000000000000bfa0 .LASF2494
C:\Users\CYMR90~1\AppData\Local\Temp\ccScBURM.s:26669  .debug_str:000000000001e97d .LASF2495
C:\Users\CYMR90~1\AppData\Local\Temp\ccScBURM.s:20128  .debug_str:00000000000040d2 .LASF2496
C:\Users\CYMR90~1\AppData\Local\Temp\ccScBURM.s:19516  .debug_str:0000000000001a18 .LASF2497
C:\Users\CYMR90~1\AppData\Local\Temp\ccScBURM.s:29473  .debug_str:0000000000029b80 .LASF2498
C:\Users\CYMR90~1\AppData\Local\Temp\ccScBURM.s:22942  .debug_str:000000000000f754 .LASF2499
C:\Users\CYMR90~1\AppData\Local\Temp\ccScBURM.s:22660  .debug_str:000000000000e61a .LASF2500
C:\Users\CYMR90~1\AppData\Local\Temp\ccScBURM.s:25839  .debug_str:000000000001b469 .LASF2501
C:\Users\CYMR90~1\AppData\Local\Temp\ccScBURM.s:29021  .debug_str:0000000000027da4 .LASF2502
C:\Users\CYMR90~1\AppData\Local\Temp\ccScBURM.s:20968  .debug_str:00000000000076ed .LASF2503
C:\Users\CYMR90~1\AppData\Local\Temp\ccScBURM.s:24070  .debug_str:000000000001401f .LASF2504
C:\Users\CYMR90~1\AppData\Local\Temp\ccScBURM.s:27253  .debug_str:0000000000020d22 .LASF2505
C:\Users\CYMR90~1\AppData\Local\Temp\ccScBURM.s:29407  .debug_str:0000000000029798 .LASF2506
C:\Users\CYMR90~1\AppData\Local\Temp\ccScBURM.s:22432  .debug_str:000000000000d881 .LASF2507
C:\Users\CYMR90~1\AppData\Local\Temp\ccScBURM.s:25621  .debug_str:000000000001a5aa .LASF2508
C:\Users\CYMR90~1\AppData\Local\Temp\ccScBURM.s:28779  .debug_str:0000000000026dbd .LASF2509
C:\Users\CYMR90~1\AppData\Local\Temp\ccScBURM.s:29107  .debug_str:000000000002841b .LASF2510
C:\Users\CYMR90~1\AppData\Local\Temp\ccScBURM.s:22566  .debug_str:000000000000e0a1 .LASF2511
C:\Users\CYMR90~1\AppData\Local\Temp\ccScBURM.s:27199  .debug_str:00000000000209d7 .LASF2512
C:\Users\CYMR90~1\AppData\Local\Temp\ccScBURM.s:20618  .debug_str:0000000000006045 .LASF2513
C:\Users\CYMR90~1\AppData\Local\Temp\ccScBURM.s:25319  .debug_str:0000000000019197 .LASF2514
C:\Users\CYMR90~1\AppData\Local\Temp\ccScBURM.s:26081  .debug_str:000000000001c33e .LASF2515
C:\Users\CYMR90~1\AppData\Local\Temp\ccScBURM.s:23426  .debug_str:0000000000011595 .LASF2516
C:\Users\CYMR90~1\AppData\Local\Temp\ccScBURM.s:28071  .debug_str:0000000000023e17 .LASF2517
C:\Users\CYMR90~1\AppData\Local\Temp\ccScBURM.s:26171  .debug_str:000000000001c969 .LASF2518
C:\Users\CYMR90~1\AppData\Local\Temp\ccScBURM.s:27341  .debug_str:00000000000211e2 .LASF2519
C:\Users\CYMR90~1\AppData\Local\Temp\ccScBURM.s:20770  .debug_str:00000000000069ba .LASF2520
C:\Users\CYMR90~1\AppData\Local\Temp\ccScBURM.s:25453  .debug_str:0000000000019a62 .LASF2521
C:\Users\CYMR90~1\AppData\Local\Temp\ccScBURM.s:30127  .debug_str:000000000002c54a .LASF2522
C:\Users\CYMR90~1\AppData\Local\Temp\ccScBURM.s:23564  .debug_str:0000000000011f3f .LASF2523
C:\Users\CYMR90~1\AppData\Local\Temp\ccScBURM.s:28193  .debug_str:00000000000246f4 .LASF2524
C:\Users\CYMR90~1\AppData\Local\Temp\ccScBURM.s:23760  .debug_str:0000000000012c0f .LASF2525
C:\Users\CYMR90~1\AppData\Local\Temp\ccScBURM.s:19964  .debug_str:0000000000003643 .LASF2526
C:\Users\CYMR90~1\AppData\Local\Temp\ccScBURM.s:25115  .debug_str:0000000000018389 .LASF2527
C:\Users\CYMR90~1\AppData\Local\Temp\ccScBURM.s:21500  .debug_str:0000000000009a1b .LASF2528
C:\Users\CYMR90~1\AppData\Local\Temp\ccScBURM.s:20294  .debug_str:0000000000004cac .LASF2529
C:\Users\CYMR90~1\AppData\Local\Temp\ccScBURM.s:28503  .debug_str:0000000000025ca0 .LASF2530
C:\Users\CYMR90~1\AppData\Local\Temp\ccScBURM.s:24532  .debug_str:0000000000015cf2 .LASF2531
C:\Users\CYMR90~1\AppData\Local\Temp\ccScBURM.s:24300  .debug_str:0000000000014f19 .LASF2532
C:\Users\CYMR90~1\AppData\Local\Temp\ccScBURM.s:24674  .debug_str:0000000000016633 .LASF2533
C:\Users\CYMR90~1\AppData\Local\Temp\ccScBURM.s:21564  .debug_str:0000000000009dff .LASF2534
C:\Users\CYMR90~1\AppData\Local\Temp\ccScBURM.s:20816  .debug_str:0000000000006ca7 .LASF2535
C:\Users\CYMR90~1\AppData\Local\Temp\ccScBURM.s:29237  .debug_str:0000000000028c44 .LASF2536
C:\Users\CYMR90~1\AppData\Local\Temp\ccScBURM.s:19214  .debug_str:00000000000006e2 .LASF2537
C:\Users\CYMR90~1\AppData\Local\Temp\ccScBURM.s:20988  .debug_str:000000000000782f .LASF2538
C:\Users\CYMR90~1\AppData\Local\Temp\ccScBURM.s:20006  .debug_str:0000000000003926 .LASF2539
C:\Users\CYMR90~1\AppData\Local\Temp\ccScBURM.s:28397  .debug_str:00000000000255a4 .LASF2540
C:\Users\CYMR90~1\AppData\Local\Temp\ccScBURM.s:23566  .debug_str:0000000000011f54 .LASF2541
C:\Users\CYMR90~1\AppData\Local\Temp\ccScBURM.s:22346  .debug_str:000000000000d28b .LASF2542
C:\Users\CYMR90~1\AppData\Local\Temp\ccScBURM.s:26931  .debug_str:000000000001f8f8 .LASF2543
C:\Users\CYMR90~1\AppData\Local\Temp\ccScBURM.s:26049  .debug_str:000000000001c16c .LASF2544
C:\Users\CYMR90~1\AppData\Local\Temp\ccScBURM.s:20054  .debug_str:0000000000003c00 .LASF2545
C:\Users\CYMR90~1\AppData\Local\Temp\ccScBURM.s:28551  .debug_str:0000000000025fc8 .LASF2546
C:\Users\CYMR90~1\AppData\Local\Temp\ccScBURM.s:22320  .debug_str:000000000000d0eb .LASF2547
C:\Users\CYMR90~1\AppData\Local\Temp\ccScBURM.s:21406  .debug_str:00000000000093cb .LASF2548
C:\Users\CYMR90~1\AppData\Local\Temp\ccScBURM.s:20384  .debug_str:000000000000520a .LASF2549
C:\Users\CYMR90~1\AppData\Local\Temp\ccScBURM.s:28891  .debug_str:00000000000274ee .LASF2550
C:\Users\CYMR90~1\AppData\Local\Temp\ccScBURM.s:29191  .debug_str:00000000000289ba .LASF2551
C:\Users\CYMR90~1\AppData\Local\Temp\ccScBURM.s:23424  .debug_str:0000000000011573 .LASF2552
C:\Users\CYMR90~1\AppData\Local\Temp\ccScBURM.s:27291  .debug_str:0000000000020f28 .LASF2553
C:\Users\CYMR90~1\AppData\Local\Temp\ccScBURM.s:24454  .debug_str:00000000000157d5 .LASF2554
C:\Users\CYMR90~1\AppData\Local\Temp\ccScBURM.s:25017  .debug_str:0000000000017da9 .LASF2555
C:\Users\CYMR90~1\AppData\Local\Temp\ccScBURM.s:23884  .debug_str:00000000000134d5 .LASF2556
C:\Users\CYMR90~1\AppData\Local\Temp\ccScBURM.s:24356  .debug_str:0000000000015288 .LASF2557
C:\Users\CYMR90~1\AppData\Local\Temp\ccScBURM.s:23092  .debug_str:0000000000010112 .LASF2558
C:\Users\CYMR90~1\AppData\Local\Temp\ccScBURM.s:23374  .debug_str:0000000000011269 .LASF2559
C:\Users\CYMR90~1\AppData\Local\Temp\ccScBURM.s:22472  .debug_str:000000000000dabe .LASF2560
C:\Users\CYMR90~1\AppData\Local\Temp\ccScBURM.s:21480  .debug_str:000000000000986c .LASF2561
C:\Users\CYMR90~1\AppData\Local\Temp\ccScBURM.s:29887  .debug_str:000000000002b4cf .LASF2562
C:\Users\CYMR90~1\AppData\Local\Temp\ccScBURM.s:23116  .debug_str:00000000000102c5 .LASF2563
C:\Users\CYMR90~1\AppData\Local\Temp\ccScBURM.s:29231  .debug_str:0000000000028be7 .LASF2564
C:\Users\CYMR90~1\AppData\Local\Temp\ccScBURM.s:27965  .debug_str:000000000002380a .LASF2565
C:\Users\CYMR90~1\AppData\Local\Temp\ccScBURM.s:24847  .debug_str:0000000000017338 .LASF2566
C:\Users\CYMR90~1\AppData\Local\Temp\ccScBURM.s:24472  .debug_str:000000000001590b .LASF2567
C:\Users\CYMR90~1\AppData\Local\Temp\ccScBURM.s:24602  .debug_str:00000000000161bd .LASF2568
C:\Users\CYMR90~1\AppData\Local\Temp\ccScBURM.s:28913  .debug_str:000000000002762e .LASF2569
C:\Users\CYMR90~1\AppData\Local\Temp\ccScBURM.s:22336  .debug_str:000000000000d1ef .LASF2570
C:\Users\CYMR90~1\AppData\Local\Temp\ccScBURM.s:26713  .debug_str:000000000001ebbe .LASF2571
C:\Users\CYMR90~1\AppData\Local\Temp\ccScBURM.s:20888  .debug_str:0000000000007193 .LASF2572
C:\Users\CYMR90~1\AppData\Local\Temp\ccScBURM.s:19354  .debug_str:0000000000001003 .LASF2573
C:\Users\CYMR90~1\AppData\Local\Temp\ccScBURM.s:25707  .debug_str:000000000001ab9a .LASF2574
C:\Users\CYMR90~1\AppData\Local\Temp\ccScBURM.s:21734  .debug_str:000000000000a8bc .LASF2575
C:\Users\CYMR90~1\AppData\Local\Temp\ccScBURM.s:24582  .debug_str:0000000000016086 .LASF2576
C:\Users\CYMR90~1\AppData\Local\Temp\ccScBURM.s:22056  .debug_str:000000000000bf88 .LASF2577
C:\Users\CYMR90~1\AppData\Local\Temp\ccScBURM.s:22184  .debug_str:000000000000c772 .LASF2578
C:\Users\CYMR90~1\AppData\Local\Temp\ccScBURM.s:26091  .debug_str:000000000001c3b7 .LASF2579
C:\Users\CYMR90~1\AppData\Local\Temp\ccScBURM.s:20330  .debug_str:0000000000004ece .LASF2580
C:\Users\CYMR90~1\AppData\Local\Temp\ccScBURM.s:25945  .debug_str:000000000001ba66 .LASF2581
C:\Users\CYMR90~1\AppData\Local\Temp\ccScBURM.s:24458  .debug_str:000000000001583e .LASF2582
C:\Users\CYMR90~1\AppData\Local\Temp\ccScBURM.s:29375  .debug_str:00000000000295ad .LASF2583
C:\Users\CYMR90~1\AppData\Local\Temp\ccScBURM.s:27575  .debug_str:00000000000220d4 .LASF2584
C:\Users\CYMR90~1\AppData\Local\Temp\ccScBURM.s:20300  .debug_str:0000000000004d11 .LASF2585
C:\Users\CYMR90~1\AppData\Local\Temp\ccScBURM.s:19366  .debug_str:00000000000010aa .LASF2586
C:\Users\CYMR90~1\AppData\Local\Temp\ccScBURM.s:29649  .debug_str:000000000002a619 .LASF2587
C:\Users\CYMR90~1\AppData\Local\Temp\ccScBURM.s:19308  .debug_str:0000000000000ce0 .LASF2588
C:\Users\CYMR90~1\AppData\Local\Temp\ccScBURM.s:21008  .debug_str:0000000000007976 .LASF2589
C:\Users\CYMR90~1\AppData\Local\Temp\ccScBURM.s:21478  .debug_str:000000000000984c .LASF2590
C:\Users\CYMR90~1\AppData\Local\Temp\ccScBURM.s:23740  .debug_str:0000000000012aed .LASF2591
C:\Users\CYMR90~1\AppData\Local\Temp\ccScBURM.s:21534  .debug_str:0000000000009c32 .LASF2592
C:\Users\CYMR90~1\AppData\Local\Temp\ccScBURM.s:20094  .debug_str:0000000000003e89 .LASF2593
C:\Users\CYMR90~1\AppData\Local\Temp\ccScBURM.s:25955  .debug_str:000000000001bb36 .LASF2594
C:\Users\CYMR90~1\AppData\Local\Temp\ccScBURM.s:25107  .debug_str:0000000000018321 .LASF2595
C:\Users\CYMR90~1\AppData\Local\Temp\ccScBURM.s:26667  .debug_str:000000000001e95b .LASF2596
C:\Users\CYMR90~1\AppData\Local\Temp\ccScBURM.s:30215  .debug_str:000000000002cae0 .LASF2597
C:\Users\CYMR90~1\AppData\Local\Temp\ccScBURM.s:19542  .debug_str:0000000000001bbe .LASF2598
C:\Users\CYMR90~1\AppData\Local\Temp\ccScBURM.s:23988  .debug_str:0000000000013b3b .LASF2599
C:\Users\CYMR90~1\AppData\Local\Temp\ccScBURM.s:27551  .debug_str:0000000000021f54 .LASF2600
C:\Users\CYMR90~1\AppData\Local\Temp\ccScBURM.s:29997  .debug_str:000000000002bc2c .LASF2601
C:\Users\CYMR90~1\AppData\Local\Temp\ccScBURM.s:23430  .debug_str:00000000000115d9 .LASF2602
C:\Users\CYMR90~1\AppData\Local\Temp\ccScBURM.s:22770  .debug_str:000000000000ed65 .LASF2603
C:\Users\CYMR90~1\AppData\Local\Temp\ccScBURM.s:26217  .debug_str:000000000001cc44 .LASF2604
C:\Users\CYMR90~1\AppData\Local\Temp\ccScBURM.s:25491  .debug_str:0000000000019cb2 .LASF2605
C:\Users\CYMR90~1\AppData\Local\Temp\ccScBURM.s:20346  .debug_str:0000000000004fcf .LASF2606
C:\Users\CYMR90~1\AppData\Local\Temp\ccScBURM.s:20264  .debug_str:0000000000004ac2 .LASF2607
C:\Users\CYMR90~1\AppData\Local\Temp\ccScBURM.s:30245  .debug_str:000000000002cd3d .LASF2608
C:\Users\CYMR90~1\AppData\Local\Temp\ccScBURM.s:26835  .debug_str:000000000001f351 .LASF2609
C:\Users\CYMR90~1\AppData\Local\Temp\ccScBURM.s:21160  .debug_str:00000000000084a1 .LASF2610
C:\Users\CYMR90~1\AppData\Local\Temp\ccScBURM.s:21148  .debug_str:0000000000008400 .LASF2611
C:\Users\CYMR90~1\AppData\Local\Temp\ccScBURM.s:28439  .debug_str:00000000000258c0 .LASF2612
C:\Users\CYMR90~1\AppData\Local\Temp\ccScBURM.s:23388  .debug_str:0000000000011347 .LASF2613
C:\Users\CYMR90~1\AppData\Local\Temp\ccScBURM.s:24600  .debug_str:0000000000016199 .LASF2614
C:\Users\CYMR90~1\AppData\Local\Temp\ccScBURM.s:25903  .debug_str:000000000001b853 .LASF2615
C:\Users\CYMR90~1\AppData\Local\Temp\ccScBURM.s:29169  .debug_str:0000000000028879 .LASF2616
C:\Users\CYMR90~1\AppData\Local\Temp\ccScBURM.s:27429  .debug_str:00000000000217fa .LASF2617
C:\Users\CYMR90~1\AppData\Local\Temp\ccScBURM.s:26457  .debug_str:000000000001dc00 .LASF2618
C:\Users\CYMR90~1\AppData\Local\Temp\ccScBURM.s:25465  .debug_str:0000000000019b37 .LASF2619
C:\Users\CYMR90~1\AppData\Local\Temp\ccScBURM.s:24558  .debug_str:0000000000015ece .LASF2620
C:\Users\CYMR90~1\AppData\Local\Temp\ccScBURM.s:23648  .debug_str:00000000000124be .LASF2621
C:\Users\CYMR90~1\AppData\Local\Temp\ccScBURM.s:27811  .debug_str:0000000000022ec6 .LASF2622
C:\Users\CYMR90~1\AppData\Local\Temp\ccScBURM.s:24386  .debug_str:000000000001541d .LASF2623
C:\Users\CYMR90~1\AppData\Local\Temp\ccScBURM.s:20190  .debug_str:0000000000004543 .LASF2624
C:\Users\CYMR90~1\AppData\Local\Temp\ccScBURM.s:19896  .debug_str:00000000000031ab .LASF2625
C:\Users\CYMR90~1\AppData\Local\Temp\ccScBURM.s:21408  .debug_str:00000000000093ed .LASF2626
C:\Users\CYMR90~1\AppData\Local\Temp\ccScBURM.s:19304  .debug_str:0000000000000ca9 .LASF2627
C:\Users\CYMR90~1\AppData\Local\Temp\ccScBURM.s:22562  .debug_str:000000000000e063 .LASF2628
C:\Users\CYMR90~1\AppData\Local\Temp\ccScBURM.s:21218  .debug_str:0000000000008821 .LASF2629
C:\Users\CYMR90~1\AppData\Local\Temp\ccScBURM.s:19592  .debug_str:0000000000001ec4 .LASF2630
C:\Users\CYMR90~1\AppData\Local\Temp\ccScBURM.s:22016  .debug_str:000000000000bb93 .LASF2631
C:\Users\CYMR90~1\AppData\Local\Temp\ccScBURM.s:19406  .debug_str:00000000000012dc .LASF2632
C:\Users\CYMR90~1\AppData\Local\Temp\ccScBURM.s:25593  .debug_str:000000000001a447 .LASF2633
C:\Users\CYMR90~1\AppData\Local\Temp\ccScBURM.s:25377  .debug_str:000000000001950e .LASF2634
C:\Users\CYMR90~1\AppData\Local\Temp\ccScBURM.s:23912  .debug_str:00000000000136a6 .LASF2635
C:\Users\CYMR90~1\AppData\Local\Temp\ccScBURM.s:23144  .debug_str:0000000000010447 .LASF2636
C:\Users\CYMR90~1\AppData\Local\Temp\ccScBURM.s:21604  .debug_str:000000000000a090 .LASF2637
C:\Users\CYMR90~1\AppData\Local\Temp\ccScBURM.s:25635  .debug_str:000000000001a697 .LASF2638
C:\Users\CYMR90~1\AppData\Local\Temp\ccScBURM.s:26267  .debug_str:000000000001d077 .LASF2639
C:\Users\CYMR90~1\AppData\Local\Temp\ccScBURM.s:24781  .debug_str:0000000000016f41 .LASF2640
C:\Users\CYMR90~1\AppData\Local\Temp\ccScBURM.s:28667  .debug_str:00000000000266e7 .LASF2641
C:\Users\CYMR90~1\AppData\Local\Temp\ccScBURM.s:23856  .debug_str:0000000000013268 .LASF2642
C:\Users\CYMR90~1\AppData\Local\Temp\ccScBURM.s:19174  .debug_str:0000000000000491 .LASF2643
C:\Users\CYMR90~1\AppData\Local\Temp\ccScBURM.s:19656  .debug_str:0000000000002201 .LASF2644
C:\Users\CYMR90~1\AppData\Local\Temp\ccScBURM.s:24416  .debug_str:00000000000155a6 .LASF2645
C:\Users\CYMR90~1\AppData\Local\Temp\ccScBURM.s:19292  .debug_str:0000000000000c08 .LASF2646
C:\Users\CYMR90~1\AppData\Local\Temp\ccScBURM.s:26363  .debug_str:000000000001d683 .LASF2647
C:\Users\CYMR90~1\AppData\Local\Temp\ccScBURM.s:21726  .debug_str:000000000000a84c .LASF2648
C:\Users\CYMR90~1\AppData\Local\Temp\ccScBURM.s:28241  .debug_str:0000000000024a53 .LASF2649
C:\Users\CYMR90~1\AppData\Local\Temp\ccScBURM.s:20444  .debug_str:00000000000055b5 .LASF2650
C:\Users\CYMR90~1\AppData\Local\Temp\ccScBURM.s:20056  .debug_str:0000000000003c22 .LASF2651
C:\Users\CYMR90~1\AppData\Local\Temp\ccScBURM.s:24112  .debug_str:00000000000142eb .LASF2652
C:\Users\CYMR90~1\AppData\Local\Temp\ccScBURM.s:22094  .debug_str:000000000000c1ea .LASF2653
C:\Users\CYMR90~1\AppData\Local\Temp\ccScBURM.s:26823  .debug_str:000000000001f296 .LASF2654
C:\Users\CYMR90~1\AppData\Local\Temp\ccScBURM.s:22644  .debug_str:000000000000e524 .LASF2655
C:\Users\CYMR90~1\AppData\Local\Temp\ccScBURM.s:26635  .debug_str:000000000001e742 .LASF2656
C:\Users\CYMR90~1\AppData\Local\Temp\ccScBURM.s:30199  .debug_str:000000000002ca0a .LASF2657
C:\Users\CYMR90~1\AppData\Local\Temp\ccScBURM.s:20558  .debug_str:0000000000005cb3 .LASF2658
C:\Users\CYMR90~1\AppData\Local\Temp\ccScBURM.s:25619  .debug_str:000000000001a58c .LASF2659
C:\Users\CYMR90~1\AppData\Local\Temp\ccScBURM.s:21812  .debug_str:000000000000adb3 .LASF2660
C:\Users\CYMR90~1\AppData\Local\Temp\ccScBURM.s:28375  .debug_str:00000000000253e5 .LASF2661
C:\Users\CYMR90~1\AppData\Local\Temp\ccScBURM.s:19844  .debug_str:0000000000002e35 .LASF2662
C:\Users\CYMR90~1\AppData\Local\Temp\ccScBURM.s:30085  .debug_str:000000000002c261 .LASF2663
C:\Users\CYMR90~1\AppData\Local\Temp\ccScBURM.s:19440  .debug_str:00000000000014dc .LASF2664
C:\Users\CYMR90~1\AppData\Local\Temp\ccScBURM.s:27581  .debug_str:000000000002212b .LASF2665
C:\Users\CYMR90~1\AppData\Local\Temp\ccScBURM.s:27591  .debug_str:00000000000221d1 .LASF2666
C:\Users\CYMR90~1\AppData\Local\Temp\ccScBURM.s:24008  .debug_str:0000000000013c7b .LASF2667
C:\Users\CYMR90~1\AppData\Local\Temp\ccScBURM.s:23804  .debug_str:0000000000012efa .LASF2668
C:\Users\CYMR90~1\AppData\Local\Temp\ccScBURM.s:26629  .debug_str:000000000001e6d7 .LASF2669
C:\Users\CYMR90~1\AppData\Local\Temp\ccScBURM.s:21940  .debug_str:000000000000b6cf .LASF2670
C:\Users\CYMR90~1\AppData\Local\Temp\ccScBURM.s:20824  .debug_str:0000000000006d36 .LASF2671
C:\Users\CYMR90~1\AppData\Local\Temp\ccScBURM.s:26929  .debug_str:000000000001f8ca .LASF2672
C:\Users\CYMR90~1\AppData\Local\Temp\ccScBURM.s:29429  .debug_str:00000000000298c2 .LASF2673
C:\Users\CYMR90~1\AppData\Local\Temp\ccScBURM.s:24931  .debug_str:0000000000017879 .LASF2674
C:\Users\CYMR90~1\AppData\Local\Temp\ccScBURM.s:26281  .debug_str:000000000001d140 .LASF2675
C:\Users\CYMR90~1\AppData\Local\Temp\ccScBURM.s:24172  .debug_str:00000000000146cf .LASF2676
C:\Users\CYMR90~1\AppData\Local\Temp\ccScBURM.s:22474  .debug_str:000000000000dae1 .LASF2677
C:\Users\CYMR90~1\AppData\Local\Temp\ccScBURM.s:25797  .debug_str:000000000001b1b5 .LASF2678
C:\Users\CYMR90~1\AppData\Local\Temp\ccScBURM.s:29807  .debug_str:000000000002af51 .LASF2679
C:\Users\CYMR90~1\AppData\Local\Temp\ccScBURM.s:20358  .debug_str:000000000000507f .LASF2680
C:\Users\CYMR90~1\AppData\Local\Temp\ccScBURM.s:20980  .debug_str:00000000000077a9 .LASF2681
C:\Users\CYMR90~1\AppData\Local\Temp\ccScBURM.s:29247  .debug_str:0000000000028d19 .LASF2682
C:\Users\CYMR90~1\AppData\Local\Temp\ccScBURM.s:25305  .debug_str:00000000000190b7 .LASF2683
C:\Users\CYMR90~1\AppData\Local\Temp\ccScBURM.s:28313  .debug_str:0000000000024ece .LASF2684
C:\Users\CYMR90~1\AppData\Local\Temp\ccScBURM.s:22328  .debug_str:000000000000d161 .LASF2685
C:\Users\CYMR90~1\AppData\Local\Temp\ccScBURM.s:27485  .debug_str:0000000000021b4e .LASF2686
C:\Users\CYMR90~1\AppData\Local\Temp\ccScBURM.s:20958  .debug_str:000000000000762f .LASF2687
C:\Users\CYMR90~1\AppData\Local\Temp\ccScBURM.s:23418  .debug_str:0000000000011529 .LASF2688
C:\Users\CYMR90~1\AppData\Local\Temp\ccScBURM.s:20036  .debug_str:0000000000003b19 .LASF2689
C:\Users\CYMR90~1\AppData\Local\Temp\ccScBURM.s:25259  .debug_str:0000000000018d11 .LASF2690
C:\Users\CYMR90~1\AppData\Local\Temp\ccScBURM.s:19224  .debug_str:000000000000078b .LASF2691
C:\Users\CYMR90~1\AppData\Local\Temp\ccScBURM.s:27025  .debug_str:000000000001fefc .LASF2692
C:\Users\CYMR90~1\AppData\Local\Temp\ccScBURM.s:29159  .debug_str:00000000000287b8 .LASF2693
C:\Users\CYMR90~1\AppData\Local\Temp\ccScBURM.s:21116  .debug_str:00000000000081b9 .LASF2694
C:\Users\CYMR90~1\AppData\Local\Temp\ccScBURM.s:21746  .debug_str:000000000000a976 .LASF2695
C:\Users\CYMR90~1\AppData\Local\Temp\ccScBURM.s:27481  .debug_str:0000000000021b12 .LASF2696
C:\Users\CYMR90~1\AppData\Local\Temp\ccScBURM.s:19356  .debug_str:0000000000001015 .LASF2697
C:\Users\CYMR90~1\AppData\Local\Temp\ccScBURM.s:22574  .debug_str:000000000000e112 .LASF2698
C:\Users\CYMR90~1\AppData\Local\Temp\ccScBURM.s:25765  .debug_str:000000000001af94 .LASF2699
C:\Users\CYMR90~1\AppData\Local\Temp\ccScBURM.s:28915  .debug_str:0000000000027641 .LASF2700
C:\Users\CYMR90~1\AppData\Local\Temp\ccScBURM.s:20866  .debug_str:0000000000007006 .LASF2701
C:\Users\CYMR90~1\AppData\Local\Temp\ccScBURM.s:24062  .debug_str:0000000000013f90 .LASF2702
C:\Users\CYMR90~1\AppData\Local\Temp\ccScBURM.s:20552  .debug_str:0000000000005c63 .LASF2703
C:\Users\CYMR90~1\AppData\Local\Temp\ccScBURM.s:25255  .debug_str:0000000000018ce9 .LASF2704
C:\Users\CYMR90~1\AppData\Local\Temp\ccScBURM.s:29931  .debug_str:000000000002b7ed .LASF2705
C:\Users\CYMR90~1\AppData\Local\Temp\ccScBURM.s:23366  .debug_str:00000000000111f0 .LASF2706
C:\Users\CYMR90~1\AppData\Local\Temp\ccScBURM.s:28001  .debug_str:0000000000023a11 .LASF2707
C:\Users\CYMR90~1\AppData\Local\Temp\ccScBURM.s:21456  .debug_str:000000000000970d .LASF2708
C:\Users\CYMR90~1\AppData\Local\Temp\ccScBURM.s:21824  .debug_str:000000000000af3c .LASF2709
C:\Users\CYMR90~1\AppData\Local\Temp\ccScBURM.s:22482  .debug_str:000000000000db71 .LASF2710
C:\Users\CYMR90~1\AppData\Local\Temp\ccScBURM.s:27725  .debug_str:0000000000022968 .LASF2711
C:\Users\CYMR90~1\AppData\Local\Temp\ccScBURM.s:24985  .debug_str:0000000000017bc9 .LASF2712
C:\Users\CYMR90~1\AppData\Local\Temp\ccScBURM.s:20278  .debug_str:0000000000004ba1 .LASF2713
C:\Users\CYMR90~1\AppData\Local\Temp\ccScBURM.s:21696  .debug_str:000000000000a659 .LASF2714
C:\Users\CYMR90~1\AppData\Local\Temp\ccScBURM.s:26851  .debug_str:000000000001f44e .LASF2715
C:\Users\CYMR90~1\AppData\Local\Temp\ccScBURM.s:20838  .debug_str:0000000000006e41 .LASF2716
C:\Users\CYMR90~1\AppData\Local\Temp\ccScBURM.s:25959  .debug_str:000000000001bb83 .LASF2717
C:\Users\CYMR90~1\AppData\Local\Temp\ccScBURM.s:22182  .debug_str:000000000000c756 .LASF2718
C:\Users\CYMR90~1\AppData\Local\Temp\ccScBURM.s:21924  .debug_str:000000000000b59e .LASF2719
C:\Users\CYMR90~1\AppData\Local\Temp\ccScBURM.s:27097  .debug_str:0000000000020338 .LASF2720
C:\Users\CYMR90~1\AppData\Local\Temp\ccScBURM.s:21070  .debug_str:0000000000007e08 .LASF2721
C:\Users\CYMR90~1\AppData\Local\Temp\ccScBURM.s:26183  .debug_str:000000000001ca09 .LASF2722
C:\Users\CYMR90~1\AppData\Local\Temp\ccScBURM.s:20150  .debug_str:00000000000042c5 .LASF2723
C:\Users\CYMR90~1\AppData\Local\Temp\ccScBURM.s:27979  .debug_str:00000000000238ea .LASF2724
C:\Users\CYMR90~1\AppData\Local\Temp\ccScBURM.s:25285  .debug_str:0000000000018ea0 .LASF2725
C:\Users\CYMR90~1\AppData\Local\Temp\ccScBURM.s:19618  .debug_str:0000000000002007 .LASF2726
C:\Users\CYMR90~1\AppData\Local\Temp\ccScBURM.s:19970  .debug_str:000000000000368c .LASF2727
C:\Users\CYMR90~1\AppData\Local\Temp\ccScBURM.s:28443  .debug_str:0000000000025903 .LASF2728
C:\Users\CYMR90~1\AppData\Local\Temp\ccScBURM.s:25823  .debug_str:000000000001b362 .LASF2729
C:\Users\CYMR90~1\AppData\Local\Temp\ccScBURM.s:24973  .debug_str:0000000000017b2b .LASF2730
C:\Users\CYMR90~1\AppData\Local\Temp\ccScBURM.s:30113  .debug_str:000000000002c46c .LASF2731
C:\Users\CYMR90~1\AppData\Local\Temp\ccScBURM.s:24060  .debug_str:0000000000013f76 .LASF2732
C:\Users\CYMR90~1\AppData\Local\Temp\ccScBURM.s:29271  .debug_str:0000000000028e80 .LASF2733
C:\Users\CYMR90~1\AppData\Local\Temp\ccScBURM.s:23172  .debug_str:00000000000105ee .LASF2734
C:\Users\CYMR90~1\AppData\Local\Temp\ccScBURM.s:25723  .debug_str:000000000001ac89 .LASF2735
C:\Users\CYMR90~1\AppData\Local\Temp\ccScBURM.s:19650  .debug_str:00000000000021b6 .LASF2736
C:\Users\CYMR90~1\AppData\Local\Temp\ccScBURM.s:24771  .debug_str:0000000000016ebc .LASF2737
C:\Users\CYMR90~1\AppData\Local\Temp\ccScBURM.s:24094  .debug_str:00000000000141da .LASF2738
C:\Users\CYMR90~1\AppData\Local\Temp\ccScBURM.s:23868  .debug_str:0000000000013364 .LASF2739
C:\Users\CYMR90~1\AppData\Local\Temp\ccScBURM.s:22774  .debug_str:000000000000ed96 .LASF2740
C:\Users\CYMR90~1\AppData\Local\Temp\ccScBURM.s:29809  .debug_str:000000000002af69 .LASF2741
C:\Users\CYMR90~1\AppData\Local\Temp\ccScBURM.s:21764  .debug_str:000000000000aa8f .LASF2742
C:\Users\CYMR90~1\AppData\Local\Temp\ccScBURM.s:24929  .debug_str:0000000000017860 .LASF2743
C:\Users\CYMR90~1\AppData\Local\Temp\ccScBURM.s:28121  .debug_str:0000000000024263 .LASF2744
C:\Users\CYMR90~1\AppData\Local\Temp\ccScBURM.s:20080  .debug_str:0000000000003dc4 .LASF2745
C:\Users\CYMR90~1\AppData\Local\Temp\ccScBURM.s:23296  .debug_str:0000000000010e06 .LASF2746
C:\Users\CYMR90~1\AppData\Local\Temp\ccScBURM.s:26435  .debug_str:000000000001dabc .LASF2747
C:\Users\CYMR90~1\AppData\Local\Temp\ccScBURM.s:29561  .debug_str:000000000002a08d .LASF2748
C:\Users\CYMR90~1\AppData\Local\Temp\ccScBURM.s:21530  .debug_str:0000000000009bfd .LASF2749
C:\Users\CYMR90~1\AppData\Local\Temp\ccScBURM.s:24692  .debug_str:0000000000016722 .LASF2750
C:\Users\CYMR90~1\AppData\Local\Temp\ccScBURM.s:26671  .debug_str:000000000001e998 .LASF2751
C:\Users\CYMR90~1\AppData\Local\Temp\ccScBURM.s:20130  .debug_str:00000000000040ed .LASF2752
C:\Users\CYMR90~1\AppData\Local\Temp\ccScBURM.s:24805  .debug_str:00000000000170a1 .LASF2753
C:\Users\CYMR90~1\AppData\Local\Temp\ccScBURM.s:29475  .debug_str:0000000000029b9b .LASF2754
C:\Users\CYMR90~1\AppData\Local\Temp\ccScBURM.s:22944  .debug_str:000000000000f76f .LASF2755
C:\Users\CYMR90~1\AppData\Local\Temp\ccScBURM.s:27569  .debug_str:000000000002208a .LASF2756
C:\Users\CYMR90~1\AppData\Local\Temp\ccScBURM.s:20994  .debug_str:00000000000078a0 .LASF2757
C:\Users\CYMR90~1\AppData\Local\Temp\ccScBURM.s:24186  .debug_str:00000000000147b4 .LASF2758
C:\Users\CYMR90~1\AppData\Local\Temp\ccScBURM.s:27279  .debug_str:0000000000020e8c .LASF2759
C:\Users\CYMR90~1\AppData\Local\Temp\ccScBURM.s:19256  .debug_str:000000000000096d .LASF2760
C:\Users\CYMR90~1\AppData\Local\Temp\ccScBURM.s:22462  .debug_str:000000000000da34 .LASF2761
C:\Users\CYMR90~1\AppData\Local\Temp\ccScBURM.s:25653  .debug_str:000000000001a84e .LASF2762
C:\Users\CYMR90~1\AppData\Local\Temp\ccScBURM.s:28803  .debug_str:0000000000026efb .LASF2763
C:\Users\CYMR90~1\AppData\Local\Temp\ccScBURM.s:20758  .debug_str:0000000000006907 .LASF2764
C:\Users\CYMR90~1\AppData\Local\Temp\ccScBURM.s:23966  .debug_str:00000000000139ea .LASF2765
C:\Users\CYMR90~1\AppData\Local\Temp\ccScBURM.s:27143  .debug_str:0000000000020680 .LASF2766
C:\Users\CYMR90~1\AppData\Local\Temp\ccScBURM.s:24486  .debug_str:00000000000159d2 .LASF2767
C:\Users\CYMR90~1\AppData\Local\Temp\ccScBURM.s:29173  .debug_str:00000000000288ab .LASF2768
C:\Users\CYMR90~1\AppData\Local\Temp\ccScBURM.s:22628  .debug_str:000000000000e450 .LASF2769
C:\Users\CYMR90~1\AppData\Local\Temp\ccScBURM.s:20696  .debug_str:0000000000006516 .LASF2770
C:\Users\CYMR90~1\AppData\Local\Temp\ccScBURM.s:25389  .debug_str:00000000000195ba .LASF2771
C:\Users\CYMR90~1\AppData\Local\Temp\ccScBURM.s:23924  .debug_str:0000000000013766 .LASF2772
C:\Users\CYMR90~1\AppData\Local\Temp\ccScBURM.s:27085  .debug_str:0000000000020239 .LASF2773
C:\Users\CYMR90~1\AppData\Local\Temp\ccScBURM.s:30287  .debug_str:000000000002cfc9 .LASF2774
C:\Users\CYMR90~1\AppData\Local\Temp\ccScBURM.s:26051  .debug_str:000000000001c18e .LASF2775
C:\Users\CYMR90~1\AppData\Local\Temp\ccScBURM.s:28103  .debug_str:0000000000024117 .LASF2776
C:\Users\CYMR90~1\AppData\Local\Temp\ccScBURM.s:28517  .debug_str:0000000000025d6f .LASF2777
C:\Users\CYMR90~1\AppData\Local\Temp\ccScBURM.s:22468  .debug_str:000000000000da84 .LASF2778
C:\Users\CYMR90~1\AppData\Local\Temp\ccScBURM.s:23696  .debug_str:00000000000127dd .LASF2779
C:\Users\CYMR90~1\AppData\Local\Temp\ccScBURM.s:26825  .debug_str:000000000001f2bb .LASF2780
C:\Users\CYMR90~1\AppData\Local\Temp\ccScBURM.s:30065  .debug_str:000000000002c11a .LASF2781
C:\Users\CYMR90~1\AppData\Local\Temp\ccScBURM.s:27571  .debug_str:00000000000220a5 .LASF2782
C:\Users\CYMR90~1\AppData\Local\Temp\ccScBURM.s:29535  .debug_str:0000000000029f09 .LASF2783
C:\Users\CYMR90~1\AppData\Local\Temp\ccScBURM.s:20052  .debug_str:0000000000003be9 .LASF2784
C:\Users\CYMR90~1\AppData\Local\Temp\ccScBURM.s:24716  .debug_str:00000000000168fa .LASF2785
C:\Users\CYMR90~1\AppData\Local\Temp\ccScBURM.s:29395  .debug_str:0000000000029703 .LASF2786
C:\Users\CYMR90~1\AppData\Local\Temp\ccScBURM.s:22858  .debug_str:000000000000f225 .LASF2787
C:\Users\CYMR90~1\AppData\Local\Temp\ccScBURM.s:24682  .debug_str:00000000000166be .LASF2788
C:\Users\CYMR90~1\AppData\Local\Temp\ccScBURM.s:29365  .debug_str:00000000000294d3 .LASF2789
C:\Users\CYMR90~1\AppData\Local\Temp\ccScBURM.s:22832  .debug_str:000000000000f0a9 .LASF2790
C:\Users\CYMR90~1\AppData\Local\Temp\ccScBURM.s:27459  .debug_str:000000000002198f .LASF2791
C:\Users\CYMR90~1\AppData\Local\Temp\ccScBURM.s:23976  .debug_str:0000000000013a81 .LASF2792
C:\Users\CYMR90~1\AppData\Local\Temp\ccScBURM.s:19558  .debug_str:0000000000001c9f .LASF2793
C:\Users\CYMR90~1\AppData\Local\Temp\ccScBURM.s:24222  .debug_str:00000000000149b7 .LASF2794
C:\Users\CYMR90~1\AppData\Local\Temp\ccScBURM.s:28897  .debug_str:0000000000027535 .LASF2795
C:\Users\CYMR90~1\AppData\Local\Temp\ccScBURM.s:22364  .debug_str:000000000000d3ff .LASF2796
C:\Users\CYMR90~1\AppData\Local\Temp\ccScBURM.s:26985  .debug_str:000000000001fc42 .LASF2797
C:\Users\CYMR90~1\AppData\Local\Temp\ccScBURM.s:21986  .debug_str:000000000000b9f6 .LASF2798
C:\Users\CYMR90~1\AppData\Local\Temp\ccScBURM.s:26615  .debug_str:000000000001e5d3 .LASF2799
C:\Users\CYMR90~1\AppData\Local\Temp\ccScBURM.s:20070  .debug_str:0000000000003cf9 .LASF2800
C:\Users\CYMR90~1\AppData\Local\Temp\ccScBURM.s:24732  .debug_str:0000000000016a9f .LASF2801
C:\Users\CYMR90~1\AppData\Local\Temp\ccScBURM.s:21376  .debug_str:000000000000920e .LASF2802
C:\Users\CYMR90~1\AppData\Local\Temp\ccScBURM.s:28077  .debug_str:0000000000023e77 .LASF2803
C:\Users\CYMR90~1\AppData\Local\Temp\ccScBURM.s:19568  .debug_str:0000000000001d3d .LASF2804
C:\Users\CYMR90~1\AppData\Local\Temp\ccScBURM.s:22796  .debug_str:000000000000eeb1 .LASF2805
C:\Users\CYMR90~1\AppData\Local\Temp\ccScBURM.s:28857  .debug_str:0000000000027322 .LASF2806
C:\Users\CYMR90~1\AppData\Local\Temp\ccScBURM.s:29149  .debug_str:0000000000028724 .LASF2807
C:\Users\CYMR90~1\AppData\Local\Temp\ccScBURM.s:21002  .debug_str:000000000000790f .LASF2808
C:\Users\CYMR90~1\AppData\Local\Temp\ccScBURM.s:24194  .debug_str:0000000000014813 .LASF2809
C:\Users\CYMR90~1\AppData\Local\Temp\ccScBURM.s:26871  .debug_str:000000000001f564 .LASF2810
C:\Users\CYMR90~1\AppData\Local\Temp\ccScBURM.s:19344  .debug_str:0000000000000f7b .LASF2811
C:\Users\CYMR90~1\AppData\Local\Temp\ccScBURM.s:22558  .debug_str:000000000000e037 .LASF2812
C:\Users\CYMR90~1\AppData\Local\Temp\ccScBURM.s:21094  .debug_str:0000000000007fb8 .LASF2813
C:\Users\CYMR90~1\AppData\Local\Temp\ccScBURM.s:25033  .debug_str:0000000000017eca .LASF2814
C:\Users\CYMR90~1\AppData\Local\Temp\ccScBURM.s:29719  .debug_str:000000000002aa47 .LASF2815
C:\Users\CYMR90~1\AppData\Local\Temp\ccScBURM.s:23170  .debug_str:00000000000105d7 .LASF2816
C:\Users\CYMR90~1\AppData\Local\Temp\ccScBURM.s:27809  .debug_str:0000000000022eaf .LASF2817
C:\Users\CYMR90~1\AppData\Local\Temp\ccScBURM.s:28409  .debug_str:0000000000025672 .LASF2818
C:\Users\CYMR90~1\AppData\Local\Temp\ccScBURM.s:25913  .debug_str:000000000001b8bb .LASF2819
C:\Users\CYMR90~1\AppData\Local\Temp\ccScBURM.s:23352  .debug_str:0000000000011112 .LASF2820
C:\Users\CYMR90~1\AppData\Local\Temp\ccScBURM.s:29585  .debug_str:000000000002a1cd .LASF2821
C:\Users\CYMR90~1\AppData\Local\Temp\ccScBURM.s:25545  .debug_str:0000000000019fcd .LASF2822
C:\Users\CYMR90~1\AppData\Local\Temp\ccScBURM.s:21192  .debug_str:0000000000008695 .LASF2823
C:\Users\CYMR90~1\AppData\Local\Temp\ccScBURM.s:22158  .debug_str:000000000000c5b5 .LASF2824
C:\Users\CYMR90~1\AppData\Local\Temp\ccScBURM.s:29601  .debug_str:000000000002a2ec .LASF2825
C:\Users\CYMR90~1\AppData\Local\Temp\ccScBURM.s:19980  .debug_str:000000000000373f .LASF2826
C:\Users\CYMR90~1\AppData\Local\Temp\ccScBURM.s:24871  .debug_str:0000000000017485 .LASF2827
C:\Users\CYMR90~1\AppData\Local\Temp\ccScBURM.s:20336  .debug_str:0000000000004f3a .LASF2828
C:\Users\CYMR90~1\AppData\Local\Temp\ccScBURM.s:23690  .debug_str:000000000001277a .LASF2829
C:\Users\CYMR90~1\AppData\Local\Temp\ccScBURM.s:20380  .debug_str:00000000000051d4 .LASF2830
C:\Users\CYMR90~1\AppData\Local\Temp\ccScBURM.s:27153  .debug_str:00000000000206f8 .LASF2831
C:\Users\CYMR90~1\AppData\Local\Temp\ccScBURM.s:23962  .debug_str:00000000000139ae .LASF2832
C:\Users\CYMR90~1\AppData\Local\Temp\ccScBURM.s:22764  .debug_str:000000000000ecfa .LASF2833
C:\Users\CYMR90~1\AppData\Local\Temp\ccScBURM.s:21816  .debug_str:000000000000ae08 .LASF2834
C:\Users\CYMR90~1\AppData\Local\Temp\ccScBURM.s:19404  .debug_str:00000000000012be .LASF2835
C:\Users\CYMR90~1\AppData\Local\Temp\ccScBURM.s:22194  .debug_str:000000000000c818 .LASF2836
C:\Users\CYMR90~1\AppData\Local\Temp\ccScBURM.s:23970  .debug_str:0000000000013a25 .LASF2837
C:\Users\CYMR90~1\AppData\Local\Temp\ccScBURM.s:27149  .debug_str:00000000000206d0 .LASF2838
C:\Users\CYMR90~1\AppData\Local\Temp\ccScBURM.s:19130  .debug_str:000000000000020a .LASF2839
C:\Users\CYMR90~1\AppData\Local\Temp\ccScBURM.s:22326  .debug_str:000000000000d14e .LASF2840
C:\Users\CYMR90~1\AppData\Local\Temp\ccScBURM.s:25495  .debug_str:0000000000019d08 .LASF2841
C:\Users\CYMR90~1\AppData\Local\Temp\ccScBURM.s:19320  .debug_str:0000000000000d8e .LASF2842
C:\Users\CYMR90~1\AppData\Local\Temp\ccScBURM.s:28921  .debug_str:0000000000027699 .LASF2843
C:\Users\CYMR90~1\AppData\Local\Temp\ccScBURM.s:27305  .debug_str:0000000000020fcc .LASF2844
C:\Users\CYMR90~1\AppData\Local\Temp\ccScBURM.s:25731  .debug_str:000000000001ad0d .LASF2845
C:\Users\CYMR90~1\AppData\Local\Temp\ccScBURM.s:30121  .debug_str:000000000002c4ef .LASF2846
C:\Users\CYMR90~1\AppData\Local\Temp\ccScBURM.s:19434  .debug_str:00000000000014a6 .LASF2847
C:\Users\CYMR90~1\AppData\Local\Temp\ccScBURM.s:24104  .debug_str:000000000001427b .LASF2848
C:\Users\CYMR90~1\AppData\Local\Temp\ccScBURM.s:28771  .debug_str:0000000000026d3d .LASF2849
C:\Users\CYMR90~1\AppData\Local\Temp\ccScBURM.s:29801  .debug_str:000000000002aeef .LASF2850
C:\Users\CYMR90~1\AppData\Local\Temp\ccScBURM.s:26055  .debug_str:000000000001c1bc .LASF2851
C:\Users\CYMR90~1\AppData\Local\Temp\ccScBURM.s:22372  .debug_str:000000000000d457 .LASF2852
C:\Users\CYMR90~1\AppData\Local\Temp\ccScBURM.s:27605  .debug_str:0000000000022299 .LASF2853
C:\Users\CYMR90~1\AppData\Local\Temp\ccScBURM.s:19550  .debug_str:0000000000001c2b .LASF2854
C:\Users\CYMR90~1\AppData\Local\Temp\ccScBURM.s:22780  .debug_str:000000000000ede1 .LASF2855
C:\Users\CYMR90~1\AppData\Local\Temp\ccScBURM.s:25935  .debug_str:000000000001b9df .LASF2856
C:\Users\CYMR90~1\AppData\Local\Temp\ccScBURM.s:29043  .debug_str:0000000000027f6c .LASF2857
C:\Users\CYMR90~1\AppData\Local\Temp\ccScBURM.s:22704  .debug_str:000000000000e91e .LASF2858
C:\Users\CYMR90~1\AppData\Local\Temp\ccScBURM.s:24180  .debug_str:0000000000014764 .LASF2859
C:\Users\CYMR90~1\AppData\Local\Temp\ccScBURM.s:24216  .debug_str:0000000000014972 .LASF2860
C:\Users\CYMR90~1\AppData\Local\Temp\ccScBURM.s:19336  .debug_str:0000000000000f1c .LASF2861
C:\Users\CYMR90~1\AppData\Local\Temp\ccScBURM.s:19476  .debug_str:00000000000017ae .LASF2862
C:\Users\CYMR90~1\AppData\Local\Temp\ccScBURM.s:24740  .debug_str:0000000000016b19 .LASF2863
C:\Users\CYMR90~1\AppData\Local\Temp\ccScBURM.s:27603  .debug_str:0000000000022284 .LASF2864
C:\Users\CYMR90~1\AppData\Local\Temp\ccScBURM.s:22878  .debug_str:000000000000f375 .LASF2865
C:\Users\CYMR90~1\AppData\Local\Temp\ccScBURM.s:27507  .debug_str:0000000000021ce9 .LASF2866
C:\Users\CYMR90~1\AppData\Local\Temp\ccScBURM.s:27671  .debug_str:000000000002265d .LASF2867
C:\Users\CYMR90~1\AppData\Local\Temp\ccScBURM.s:25645  .debug_str:000000000001a7e8 .LASF2868
C:\Users\CYMR90~1\AppData\Local\Temp\ccScBURM.s:24899  .debug_str:000000000001763d .LASF2869
C:\Users\CYMR90~1\AppData\Local\Temp\ccScBURM.s:22648  .debug_str:000000000000e563 .LASF2870
C:\Users\CYMR90~1\AppData\Local\Temp\ccScBURM.s:23814  .debug_str:0000000000012fa2 .LASF2871
C:\Users\CYMR90~1\AppData\Local\Temp\ccScBURM.s:23778  .debug_str:0000000000012d4d .LASF2872
C:\Users\CYMR90~1\AppData\Local\Temp\ccScBURM.s:19888  .debug_str:0000000000003118 .LASF2873
C:\Users\CYMR90~1\AppData\Local\Temp\ccScBURM.s:19770  .debug_str:000000000000295e .LASF2874
C:\Users\CYMR90~1\AppData\Local\Temp\ccScBURM.s:27267  .debug_str:0000000000020de6 .LASF2875
C:\Users\CYMR90~1\AppData\Local\Temp\ccScBURM.s:28245  .debug_str:0000000000024aa4 .LASF2876
C:\Users\CYMR90~1\AppData\Local\Temp\ccScBURM.s:27933  .debug_str:0000000000023609 .LASF2877
C:\Users\CYMR90~1\AppData\Local\Temp\ccScBURM.s:21876  .debug_str:000000000000b25d .LASF2878
C:\Users\CYMR90~1\AppData\Local\Temp\ccScBURM.s:25035  .debug_str:0000000000017ee1 .LASF2879
C:\Users\CYMR90~1\AppData\Local\Temp\ccScBURM.s:28223  .debug_str:0000000000024920 .LASF2880
C:\Users\CYMR90~1\AppData\Local\Temp\ccScBURM.s:20182  .debug_str:00000000000044c1 .LASF2881
C:\Users\CYMR90~1\AppData\Local\Temp\ccScBURM.s:22238  .debug_str:000000000000cc31 .LASF2882
C:\Users\CYMR90~1\AppData\Local\Temp\ccScBURM.s:26455  .debug_str:000000000001dbee .LASF2883
C:\Users\CYMR90~1\AppData\Local\Temp\ccScBURM.s:30219  .debug_str:000000000002cb2a .LASF2884
C:\Users\CYMR90~1\AppData\Local\Temp\ccScBURM.s:21642  .debug_str:000000000000a2ef .LASF2885
C:\Users\CYMR90~1\AppData\Local\Temp\ccScBURM.s:24811  .debug_str:00000000000170fe .LASF2886
C:\Users\CYMR90~1\AppData\Local\Temp\ccScBURM.s:27997  .debug_str:00000000000239df .LASF2887
C:\Users\CYMR90~1\AppData\Local\Temp\ccScBURM.s:26187  .debug_str:000000000001ca3f .LASF2888
C:\Users\CYMR90~1\AppData\Local\Temp\ccScBURM.s:19616  .debug_str:0000000000001ff3 .LASF2889
C:\Users\CYMR90~1\AppData\Local\Temp\ccScBURM.s:24278  .debug_str:0000000000014d78 .LASF2890
C:\Users\CYMR90~1\AppData\Local\Temp\ccScBURM.s:28959  .debug_str:000000000002797f .LASF2891
C:\Users\CYMR90~1\AppData\Local\Temp\ccScBURM.s:22422  .debug_str:000000000000d81a .LASF2892
C:\Users\CYMR90~1\AppData\Local\Temp\ccScBURM.s:27051  .debug_str:0000000000020087 .LASF2893
C:\Users\CYMR90~1\AppData\Local\Temp\ccScBURM.s:29625  .debug_str:000000000002a4af .LASF2894
C:\Users\CYMR90~1\AppData\Local\Temp\ccScBURM.s:29837  .debug_str:000000000002b162 .LASF2895
C:\Users\CYMR90~1\AppData\Local\Temp\ccScBURM.s:25681  .debug_str:000000000001a9e7 .LASF2896
C:\Users\CYMR90~1\AppData\Local\Temp\ccScBURM.s:20900  .debug_str:0000000000007272 .LASF2897
C:\Users\CYMR90~1\AppData\Local\Temp\ccScBURM.s:21200  .debug_str:0000000000008701 .LASF2898
C:\Users\CYMR90~1\AppData\Local\Temp\ccScBURM.s:25095  .debug_str:000000000001824e .LASF2899
C:\Users\CYMR90~1\AppData\Local\Temp\ccScBURM.s:29935  .debug_str:000000000002b81a .LASF2900
C:\Users\CYMR90~1\AppData\Local\Temp\ccScBURM.s:23560  .debug_str:0000000000011f0d .LASF2901
C:\Users\CYMR90~1\AppData\Local\Temp\ccScBURM.s:24372  .debug_str:0000000000015341 .LASF2902
C:\Users\CYMR90~1\AppData\Local\Temp\ccScBURM.s:20608  .debug_str:0000000000005f9e .LASF2903
C:\Users\CYMR90~1\AppData\Local\Temp\ccScBURM.s:27293  .debug_str:0000000000020f4a .LASF2904
C:\Users\CYMR90~1\AppData\Local\Temp\ccScBURM.s:28655  .debug_str:0000000000026629 .LASF2905
C:\Users\CYMR90~1\AppData\Local\Temp\ccScBURM.s:30035  .debug_str:000000000002bf0d .LASF2906
C:\Users\CYMR90~1\AppData\Local\Temp\ccScBURM.s:20140  .debug_str:000000000000421f .LASF2907
C:\Users\CYMR90~1\AppData\Local\Temp\ccScBURM.s:23822  .debug_str:0000000000013030 .LASF2908
C:\Users\CYMR90~1\AppData\Local\Temp\ccScBURM.s:29153  .debug_str:0000000000028752 .LASF2909
C:\Users\CYMR90~1\AppData\Local\Temp\ccScBURM.s:27117  .debug_str:000000000002047d .LASF2910
C:\Users\CYMR90~1\AppData\Local\Temp\ccScBURM.s:26013  .debug_str:000000000001befa .LASF2911
C:\Users\CYMR90~1\AppData\Local\Temp\ccScBURM.s:25591  .debug_str:000000000001a409 .LASF2912
C:\Users\CYMR90~1\AppData\Local\Temp\ccScBURM.s:25513  .debug_str:0000000000019de7 .LASF2913
C:\Users\CYMR90~1\AppData\Local\Temp\ccScBURM.s:27709  .debug_str:0000000000022885 .LASF2914
C:\Users\CYMR90~1\AppData\Local\Temp\ccScBURM.s:26007  .debug_str:000000000001bea7 .LASF2915
C:\Users\CYMR90~1\AppData\Local\Temp\ccScBURM.s:25157  .debug_str:0000000000018605 .LASF2916
C:\Users\CYMR90~1\AppData\Local\Temp\ccScBURM.s:26531  .debug_str:000000000001e12b .LASF2917
C:\Users\CYMR90~1\AppData\Local\Temp\ccScBURM.s:23756  .debug_str:0000000000012be1 .LASF2918
C:\Users\CYMR90~1\AppData\Local\Temp\ccScBURM.s:22506  .debug_str:000000000000dcad .LASF2919
C:\Users\CYMR90~1\AppData\Local\Temp\ccScBURM.s:21636  .debug_str:000000000000a28c .LASF2920
C:\Users\CYMR90~1\AppData\Local\Temp\ccScBURM.s:20744  .debug_str:0000000000006835 .LASF2921
C:\Users\CYMR90~1\AppData\Local\Temp\ccScBURM.s:19892  .debug_str:000000000000314e .LASF2922
C:\Users\CYMR90~1\AppData\Local\Temp\ccScBURM.s:30261  .debug_str:000000000002ce2f .LASF2923
C:\Users\CYMR90~1\AppData\Local\Temp\ccScBURM.s:29399  .debug_str:0000000000029734 .LASF2924
C:\Users\CYMR90~1\AppData\Local\Temp\ccScBURM.s:28155  .debug_str:000000000002449a .LASF2925
C:\Users\CYMR90~1\AppData\Local\Temp\ccScBURM.s:20106  .debug_str:0000000000003f9a .LASF2926
C:\Users\CYMR90~1\AppData\Local\Temp\ccScBURM.s:23338  .debug_str:0000000000011044 .LASF2927
C:\Users\CYMR90~1\AppData\Local\Temp\ccScBURM.s:26473  .debug_str:000000000001dd98 .LASF2928
C:\Users\CYMR90~1\AppData\Local\Temp\ccScBURM.s:29689  .debug_str:000000000002a85d .LASF2929
C:\Users\CYMR90~1\AppData\Local\Temp\ccScBURM.s:21654  .debug_str:000000000000a3d8 .LASF2930
C:\Users\CYMR90~1\AppData\Local\Temp\ccScBURM.s:27789  .debug_str:0000000000022d91 .LASF2931
C:\Users\CYMR90~1\AppData\Local\Temp\ccScBURM.s:30221  .debug_str:000000000002cb3c .LASF2932
C:\Users\CYMR90~1\AppData\Local\Temp\ccScBURM.s:23586  .debug_str:00000000000120c1 .LASF2933
C:\Users\CYMR90~1\AppData\Local\Temp\ccScBURM.s:24430  .debug_str:0000000000015680 .LASF2934
C:\Users\CYMR90~1\AppData\Local\Temp\ccScBURM.s:19700  .debug_str:00000000000024b2 .LASF2935
C:\Users\CYMR90~1\AppData\Local\Temp\ccScBURM.s:26259  .debug_str:000000000001d00d .LASF2936
C:\Users\CYMR90~1\AppData\Local\Temp\ccScBURM.s:25649  .debug_str:000000000001a816 .LASF2937
C:\Users\CYMR90~1\AppData\Local\Temp\ccScBURM.s:25687  .debug_str:000000000001aa72 .LASF2938
C:\Users\CYMR90~1\AppData\Local\Temp\ccScBURM.s:24650  .debug_str:0000000000016444 .LASF2939
C:\Users\CYMR90~1\AppData\Local\Temp\ccScBURM.s:21942  .debug_str:000000000000b6fd .LASF2940
C:\Users\CYMR90~1\AppData\Local\Temp\ccScBURM.s:24054  .debug_str:0000000000013f29 .LASF2941
C:\Users\CYMR90~1\AppData\Local\Temp\ccScBURM.s:28573  .debug_str:00000000000260ee .LASF2942
C:\Users\CYMR90~1\AppData\Local\Temp\ccScBURM.s:25845  .debug_str:000000000001b4ab .LASF2943
C:\Users\CYMR90~1\AppData\Local\Temp\ccScBURM.s:20592  .debug_str:0000000000005eaf .LASF2944
C:\Users\CYMR90~1\AppData\Local\Temp\ccScBURM.s:22504  .debug_str:000000000000dc8b .LASF2945
C:\Users\CYMR90~1\AppData\Local\Temp\ccScBURM.s:24354  .debug_str:000000000001524b .LASF2946
C:\Users\CYMR90~1\AppData\Local\Temp\ccScBURM.s:28931  .debug_str:000000000002774c .LASF2947
C:\Users\CYMR90~1\AppData\Local\Temp\ccScBURM.s:22072  .debug_str:000000000000c0a7 .LASF2948
C:\Users\CYMR90~1\AppData\Local\Temp\ccScBURM.s:22630  .debug_str:000000000000e469 .LASF2949
C:\Users\CYMR90~1\AppData\Local\Temp\ccScBURM.s:26577  .debug_str:000000000001e3bc .LASF2950
C:\Users\CYMR90~1\AppData\Local\Temp\ccScBURM.s:20356  .debug_str:0000000000005069 .LASF2951
C:\Users\CYMR90~1\AppData\Local\Temp\ccScBURM.s:29795  .debug_str:000000000002ae96 .LASF2952
C:\Users\CYMR90~1\AppData\Local\Temp\ccScBURM.s:28011  .debug_str:0000000000023aa1 .LASF2953
C:\Users\CYMR90~1\AppData\Local\Temp\ccScBURM.s:28805  .debug_str:0000000000026f12 .LASF2954
C:\Users\CYMR90~1\AppData\Local\Temp\ccScBURM.s:20786  .debug_str:0000000000006ab6 .LASF2955
C:\Users\CYMR90~1\AppData\Local\Temp\ccScBURM.s:30291  .debug_str:000000000002cffd .LASF2956
C:\Users\CYMR90~1\AppData\Local\Temp\ccScBURM.s:19866  .debug_str:0000000000002f95 .LASF2957
C:\Users\CYMR90~1\AppData\Local\Temp\ccScBURM.s:19594  .debug_str:0000000000001ee6 .LASF2958
C:\Users\CYMR90~1\AppData\Local\Temp\ccScBURM.s:26605  .debug_str:000000000001e567 .LASF2959
C:\Users\CYMR90~1\AppData\Local\Temp\ccScBURM.s:19842  .debug_str:0000000000002e1e .LASF2960
C:\Users\CYMR90~1\AppData\Local\Temp\ccScBURM.s:19150  .debug_str:0000000000000347 .LASF2961
C:\Users\CYMR90~1\AppData\Local\Temp\ccScBURM.s:30081  .debug_str:000000000002c1ec .LASF2962
C:\Users\CYMR90~1\AppData\Local\Temp\ccScBURM.s:28709  .debug_str:0000000000026962 .LASF2963
C:\Users\CYMR90~1\AppData\Local\Temp\ccScBURM.s:20578  .debug_str:0000000000005dea .LASF2964
C:\Users\CYMR90~1\AppData\Local\Temp\ccScBURM.s:29767  .debug_str:000000000002ad0e .LASF2965
C:\Users\CYMR90~1\AppData\Local\Temp\ccScBURM.s:26173  .debug_str:000000000001c97e .LASF2966
C:\Users\CYMR90~1\AppData\Local\Temp\ccScBURM.s:27167  .debug_str:00000000000207f4 .LASF2967
C:\Users\CYMR90~1\AppData\Local\Temp\ccScBURM.s:23002  .debug_str:000000000000fb77 .LASF2968
C:\Users\CYMR90~1\AppData\Local\Temp\ccScBURM.s:22142  .debug_str:000000000000c4b3 .LASF2969
C:\Users\CYMR90~1\AppData\Local\Temp\ccScBURM.s:25901  .debug_str:000000000001b837 .LASF2970
C:\Users\CYMR90~1\AppData\Local\Temp\ccScBURM.s:29113  .debug_str:000000000002847b .LASF2971
C:\Users\CYMR90~1\AppData\Local\Temp\ccScBURM.s:27563  .debug_str:0000000000022015 .LASF2972
C:\Users\CYMR90~1\AppData\Local\Temp\ccScBURM.s:25893  .debug_str:000000000001b79b .LASF2973
C:\Users\CYMR90~1\AppData\Local\Temp\ccScBURM.s:20192  .debug_str:000000000000455f .LASF2974
C:\Users\CYMR90~1\AppData\Local\Temp\ccScBURM.s:26221  .debug_str:000000000001cc76 .LASF2975
C:\Users\CYMR90~1\AppData\Local\Temp\ccScBURM.s:29363  .debug_str:00000000000294b2 .LASF2976
C:\Users\CYMR90~1\AppData\Local\Temp\ccScBURM.s:28507  .debug_str:0000000000025ce3 .LASF2977
C:\Users\CYMR90~1\AppData\Local\Temp\ccScBURM.s:26353  .debug_str:000000000001d57f .LASF2978
C:\Users\CYMR90~1\AppData\Local\Temp\ccScBURM.s:22446  .debug_str:000000000000d95c .LASF2979
C:\Users\CYMR90~1\AppData\Local\Temp\ccScBURM.s:29859  .debug_str:000000000002b2f0 .LASF2980
C:\Users\CYMR90~1\AppData\Local\Temp\ccScBURM.s:25029  .debug_str:0000000000017e78 .LASF2981
C:\Users\CYMR90~1\AppData\Local\Temp\ccScBURM.s:20066  .debug_str:0000000000003cbe .LASF2982
C:\Users\CYMR90~1\AppData\Local\Temp\ccScBURM.s:29899  .debug_str:000000000002b57e .LASF2983
C:\Users\CYMR90~1\AppData\Local\Temp\ccScBURM.s:22702  .debug_str:000000000000e8fc .LASF2984
C:\Users\CYMR90~1\AppData\Local\Temp\ccScBURM.s:22822  .debug_str:000000000000f002 .LASF2985
C:\Users\CYMR90~1\AppData\Local\Temp\ccScBURM.s:24260  .debug_str:0000000000014c21 .LASF2986
C:\Users\CYMR90~1\AppData\Local\Temp\ccScBURM.s:24164  .debug_str:000000000001462d .LASF2987
C:\Users\CYMR90~1\AppData\Local\Temp\ccScBURM.s:22848  .debug_str:000000000000f180 .LASF2988
C:\Users\CYMR90~1\AppData\Local\Temp\ccScBURM.s:22530  .debug_str:000000000000de28 .LASF2989
C:\Users\CYMR90~1\AppData\Local\Temp\ccScBURM.s:27949  .debug_str:000000000002372e .LASF2990
C:\Users\CYMR90~1\AppData\Local\Temp\ccScBURM.s:24845  .debug_str:0000000000017313 .LASF2991
C:\Users\CYMR90~1\AppData\Local\Temp\ccScBURM.s:23956  .debug_str:000000000001394c .LASF2992
C:\Users\CYMR90~1\AppData\Local\Temp\ccScBURM.s:21268  .debug_str:0000000000008b79 .LASF2993
C:\Users\CYMR90~1\AppData\Local\Temp\ccScBURM.s:29611  .debug_str:000000000002a3a4 .LASF2994
C:\Users\CYMR90~1\AppData\Local\Temp\ccScBURM.s:30073  .debug_str:000000000002c176 .LASF2995
C:\Users\CYMR90~1\AppData\Local\Temp\ccScBURM.s:24346  .debug_str:00000000000151bb .LASF2996
C:\Users\CYMR90~1\AppData\Local\Temp\ccScBURM.s:20426  .debug_str:000000000000548c .LASF2997
C:\Users\CYMR90~1\AppData\Local\Temp\ccScBURM.s:24524  .debug_str:0000000000015c75 .LASF2998
C:\Users\CYMR90~1\AppData\Local\Temp\ccScBURM.s:30037  .debug_str:000000000002bf2d .LASF2999
C:\Users\CYMR90~1\AppData\Local\Temp\ccScBURM.s:23190  .debug_str:00000000000106f8 .LASF3000
C:\Users\CYMR90~1\AppData\Local\Temp\ccScBURM.s:21674  .debug_str:000000000000a529 .LASF3001
C:\Users\CYMR90~1\AppData\Local\Temp\ccScBURM.s:19246  .debug_str:00000000000008d2 .LASF3002
C:\Users\CYMR90~1\AppData\Local\Temp\ccScBURM.s:27161  .debug_str:0000000000020775 .LASF3003
C:\Users\CYMR90~1\AppData\Local\Temp\ccScBURM.s:30143  .debug_str:000000000002c602 .LASF3004
C:\Users\CYMR90~1\AppData\Local\Temp\ccScBURM.s:28073  .debug_str:0000000000023e2c .LASF3005
C:\Users\CYMR90~1\AppData\Local\Temp\ccScBURM.s:27469  .debug_str:0000000000021a53 .LASF3006
C:\Users\CYMR90~1\AppData\Local\Temp\ccScBURM.s:20386  .debug_str:000000000000522c .LASF3007
C:\Users\CYMR90~1\AppData\Local\Temp\ccScBURM.s:30267  .debug_str:000000000002ce7d .LASF3008
C:\Users\CYMR90~1\AppData\Local\Temp\ccScBURM.s:22722  .debug_str:000000000000ea2a .LASF3009
C:\Users\CYMR90~1\AppData\Local\Temp\ccScBURM.s:26025  .debug_str:000000000001bfc8 .LASF3010
C:\Users\CYMR90~1\AppData\Local\Temp\ccScBURM.s:27715  .debug_str:00000000000228f9 .LASF3011
C:\Users\CYMR90~1\AppData\Local\Temp\ccScBURM.s:23314  .debug_str:0000000000010ef9 .LASF3012
C:\Users\CYMR90~1\AppData\Local\Temp\ccScBURM.s:22444  .debug_str:000000000000d943 .LASF3013
C:\Users\CYMR90~1\AppData\Local\Temp\ccScBURM.s:27151  .debug_str:00000000000206e3 .LASF3014
C:\Users\CYMR90~1\AppData\Local\Temp\ccScBURM.s:29471  .debug_str:0000000000029b6a .LASF3015
C:\Users\CYMR90~1\AppData\Local\Temp\ccScBURM.s:22096  .debug_str:000000000000c218 .LASF3016
C:\Users\CYMR90~1\AppData\Local\Temp\ccScBURM.s:20886  .debug_str:000000000000717c .LASF3017
C:\Users\CYMR90~1\AppData\Local\Temp\ccScBURM.s:27317  .debug_str:000000000002107f .LASF3018
C:\Users\CYMR90~1\AppData\Local\Temp\ccScBURM.s:29499  .debug_str:0000000000029cf3 .LASF3019
C:\Users\CYMR90~1\AppData\Local\Temp\ccScBURM.s:19850  .debug_str:0000000000002ea0 .LASF3020
C:\Users\CYMR90~1\AppData\Local\Temp\ccScBURM.s:22156  .debug_str:000000000000c5a1 .LASF3021
C:\Users\CYMR90~1\AppData\Local\Temp\ccScBURM.s:22654  .debug_str:000000000000e5c5 .LASF3022
C:\Users\CYMR90~1\AppData\Local\Temp\ccScBURM.s:29889  .debug_str:000000000002b4f2 .LASF3023
C:\Users\CYMR90~1\AppData\Local\Temp\ccScBURM.s:20856  .debug_str:0000000000006f3a .LASF3024
C:\Users\CYMR90~1\AppData\Local\Temp\ccScBURM.s:27047  .debug_str:0000000000020048 .LASF3025
C:\Users\CYMR90~1\AppData\Local\Temp\ccScBURM.s:23032  .debug_str:000000000000fd4d .LASF3026
C:\Users\CYMR90~1\AppData\Local\Temp\ccScBURM.s:24857  .debug_str:00000000000173d3 .LASF3027
C:\Users\CYMR90~1\AppData\Local\Temp\ccScBURM.s:21492  .debug_str:0000000000009977 .LASF3028
C:\Users\CYMR90~1\AppData\Local\Temp\ccScBURM.s:21596  .debug_str:000000000000a01a .LASF3029
C:\Users\CYMR90~1\AppData\Local\Temp\ccScBURM.s:22608  .debug_str:000000000000e2f7 .LASF3030
C:\Users\CYMR90~1\AppData\Local\Temp\ccScBURM.s:21704  .debug_str:000000000000a6d4 .LASF3031
C:\Users\CYMR90~1\AppData\Local\Temp\ccScBURM.s:28291  .debug_str:0000000000024d92 .LASF3032
C:\Users\CYMR90~1\AppData\Local\Temp\ccScBURM.s:22776  .debug_str:000000000000edb1 .LASF3033
C:\Users\CYMR90~1\AppData\Local\Temp\ccScBURM.s:22578  .debug_str:000000000000e158 .LASF3034
C:\Users\CYMR90~1\AppData\Local\Temp\ccScBURM.s:29039  .debug_str:0000000000027f1f .LASF3035
C:\Users\CYMR90~1\AppData\Local\Temp\ccScBURM.s:21236  .debug_str:000000000000896a .LASF3036
C:\Users\CYMR90~1\AppData\Local\Temp\ccScBURM.s:29965  .debug_str:000000000002ba11 .LASF3037
C:\Users\CYMR90~1\AppData\Local\Temp\ccScBURM.s:29133  .debug_str:00000000000285fa .LASF3038
C:\Users\CYMR90~1\AppData\Local\Temp\ccScBURM.s:19138  .debug_str:000000000000025a .LASF3039
C:\Users\CYMR90~1\AppData\Local\Temp\ccScBURM.s:20114  .debug_str:000000000000401c .LASF3040
C:\Users\CYMR90~1\AppData\Local\Temp\ccScBURM.s:26079  .debug_str:000000000001c31f .LASF3041
C:\Users\CYMR90~1\AppData\Local\Temp\ccScBURM.s:25883  .debug_str:000000000001b6ff .LASF3042
C:\Users\CYMR90~1\AppData\Local\Temp\ccScBURM.s:28305  .debug_str:0000000000024e58 .LASF3043
C:\Users\CYMR90~1\AppData\Local\Temp\ccScBURM.s:22450  .debug_str:000000000000d9a0 .LASF3044
C:\Users\CYMR90~1\AppData\Local\Temp\ccScBURM.s:25501  .debug_str:0000000000019d54 .LASF3045
C:\Users\CYMR90~1\AppData\Local\Temp\ccScBURM.s:19376  .debug_str:0000000000001169 .LASF3046
C:\Users\CYMR90~1\AppData\Local\Temp\ccScBURM.s:22820  .debug_str:000000000000efe8 .LASF3047
C:\Users\CYMR90~1\AppData\Local\Temp\ccScBURM.s:26083  .debug_str:000000000001c353 .LASF3048
C:\Users\CYMR90~1\AppData\Local\Temp\ccScBURM.s:29405  .debug_str:0000000000029779 .LASF3049
C:\Users\CYMR90~1\AppData\Local\Temp\ccScBURM.s:19508  .debug_str:000000000000199d .LASF3050
C:\Users\CYMR90~1\AppData\Local\Temp\ccScBURM.s:21562  .debug_str:0000000000009de4 .LASF3051
C:\Users\CYMR90~1\AppData\Local\Temp\ccScBURM.s:28835  .debug_str:00000000000271bd .LASF3052
C:\Users\CYMR90~1\AppData\Local\Temp\ccScBURM.s:21124  .debug_str:000000000000824e .LASF3053
C:\Users\CYMR90~1\AppData\Local\Temp\ccScBURM.s:22614  .debug_str:000000000000e370 .LASF3054
C:\Users\CYMR90~1\AppData\Local\Temp\ccScBURM.s:28075  .debug_str:0000000000023e58 .LASF3055
C:\Users\CYMR90~1\AppData\Local\Temp\ccScBURM.s:25429  .debug_str:00000000000198c7 .LASF3056
C:\Users\CYMR90~1\AppData\Local\Temp\ccScBURM.s:21514  .debug_str:0000000000009af4 .LASF3057
C:\Users\CYMR90~1\AppData\Local\Temp\ccScBURM.s:26833  .debug_str:000000000001f33e .LASF3058
C:\Users\CYMR90~1\AppData\Local\Temp\ccScBURM.s:21098  .debug_str:0000000000007ff1 .LASF3059
C:\Users\CYMR90~1\AppData\Local\Temp\ccScBURM.s:29025  .debug_str:0000000000027df6 .LASF3060
C:\Users\CYMR90~1\AppData\Local\Temp\ccScBURM.s:28689  .debug_str:0000000000026825 .LASF3061
C:\Users\CYMR90~1\AppData\Local\Temp\ccScBURM.s:23414  .debug_str:00000000000114ba .LASF3062
C:\Users\CYMR90~1\AppData\Local\Temp\ccScBURM.s:28199  .debug_str:00000000000247e6 .LASF3063
C:\Users\CYMR90~1\AppData\Local\Temp\ccScBURM.s:27295  .debug_str:0000000000020f6a .LASF3064
C:\Users\CYMR90~1\AppData\Local\Temp\ccScBURM.s:23300  .debug_str:0000000000010e34 .LASF3065
C:\Users\CYMR90~1\AppData\Local\Temp\ccScBURM.s:28777  .debug_str:0000000000026da5 .LASF3066
C:\Users\CYMR90~1\AppData\Local\Temp\ccScBURM.s:27953  .debug_str:000000000002376b .LASF3067
C:\Users\CYMR90~1\AppData\Local\Temp\ccScBURM.s:24801  .debug_str:000000000001707c .LASF3068
C:\Users\CYMR90~1\AppData\Local\Temp\ccScBURM.s:24544  .debug_str:0000000000015de4 .LASF3069
C:\Users\CYMR90~1\AppData\Local\Temp\ccScBURM.s:26789  .debug_str:000000000001f096 .LASF3070
C:\Users\CYMR90~1\AppData\Local\Temp\ccScBURM.s:23260  .debug_str:0000000000010b7a .LASF3071
C:\Users\CYMR90~1\AppData\Local\Temp\ccScBURM.s:23390  .debug_str:000000000001136b .LASF3072
C:\Users\CYMR90~1\AppData\Local\Temp\ccScBURM.s:22792  .debug_str:000000000000ee80 .LASF3073
C:\Users\CYMR90~1\AppData\Local\Temp\ccScBURM.s:22926  .debug_str:000000000000f66c .LASF3074
C:\Users\CYMR90~1\AppData\Local\Temp\ccScBURM.s:26519  .debug_str:000000000001e078 .LASF3075
C:\Users\CYMR90~1\AppData\Local\Temp\ccScBURM.s:29151  .debug_str:0000000000028739 .LASF3076
C:\Users\CYMR90~1\AppData\Local\Temp\ccScBURM.s:24662  .debug_str:0000000000016582 .LASF3077
C:\Users\CYMR90~1\AppData\Local\Temp\ccScBURM.s:28069  .debug_str:0000000000023dfd .LASF3078
C:\Users\CYMR90~1\AppData\Local\Temp\ccScBURM.s:19654  .debug_str:00000000000021e8 .LASF3079
C:\Users\CYMR90~1\AppData\Local\Temp\ccScBURM.s:20878  .debug_str:00000000000070d4 .LASF3080
C:\Users\CYMR90~1\AppData\Local\Temp\ccScBURM.s:29201  .debug_str:0000000000028a45 .LASF3081
C:\Users\CYMR90~1\AppData\Local\Temp\ccScBURM.s:21614  .debug_str:000000000000a12a .LASF3082
C:\Users\CYMR90~1\AppData\Local\Temp\ccScBURM.s:24058  .debug_str:0000000000013f5f .LASF3083
C:\Users\CYMR90~1\AppData\Local\Temp\ccScBURM.s:22752  .debug_str:000000000000ec21 .LASF3084
C:\Users\CYMR90~1\AppData\Local\Temp\ccScBURM.s:24394  .debug_str:0000000000015491 .LASF3085
C:\Users\CYMR90~1\AppData\Local\Temp\ccScBURM.s:27237  .debug_str:0000000000020c50 .LASF3086
C:\Users\CYMR90~1\AppData\Local\Temp\ccScBURM.s:25183  .debug_str:000000000001878c .LASF3087
C:\Users\CYMR90~1\AppData\Local\Temp\ccScBURM.s:27095  .debug_str:00000000000202e3 .LASF3088
C:\Users\CYMR90~1\AppData\Local\Temp\ccScBURM.s:29293  .debug_str:0000000000028ff1 .LASF3089
C:\Users\CYMR90~1\AppData\Local\Temp\ccScBURM.s:27733  .debug_str:00000000000229f4 .LASF3090
C:\Users\CYMR90~1\AppData\Local\Temp\ccScBURM.s:22168  .debug_str:000000000000c65a .LASF3091
C:\Users\CYMR90~1\AppData\Local\Temp\ccScBURM.s:30093  .debug_str:000000000002c313 .LASF3092
C:\Users\CYMR90~1\AppData\Local\Temp\ccScBURM.s:26883  .debug_str:000000000001f61c .LASF3093
C:\Users\CYMR90~1\AppData\Local\Temp\ccScBURM.s:28817  .debug_str:0000000000026fed .LASF3094
C:\Users\CYMR90~1\AppData\Local\Temp\ccScBURM.s:28561  .debug_str:000000000002605e .LASF3095
C:\Users\CYMR90~1\AppData\Local\Temp\ccScBURM.s:22070  .debug_str:000000000000c07f .LASF3096
C:\Users\CYMR90~1\AppData\Local\Temp\ccScBURM.s:24442  .debug_str:0000000000015721 .LASF3097
C:\Users\CYMR90~1\AppData\Local\Temp\ccScBURM.s:24348  .debug_str:00000000000151e6 .LASF3098
C:\Users\CYMR90~1\AppData\Local\Temp\ccScBURM.s:25247  .debug_str:0000000000018c7f .LASF3099
C:\Users\CYMR90~1\AppData\Local\Temp\ccScBURM.s:26919  .debug_str:000000000001f84b .LASF3100
C:\Users\CYMR90~1\AppData\Local\Temp\ccScBURM.s:27435  .debug_str:0000000000021842 .LASF3101
C:\Users\CYMR90~1\AppData\Local\Temp\ccScBURM.s:30225  .debug_str:000000000002cb60 .LASF3102
C:\Users\CYMR90~1\AppData\Local\Temp\ccScBURM.s:22982  .debug_str:000000000000fa56 .LASF3103
C:\Users\CYMR90~1\AppData\Local\Temp\ccScBURM.s:19864  .debug_str:0000000000002f69 .LASF3104
C:\Users\CYMR90~1\AppData\Local\Temp\ccScBURM.s:22838  .debug_str:000000000000f0f9 .LASF3105
C:\Users\CYMR90~1\AppData\Local\Temp\ccScBURM.s:27119  .debug_str:00000000000204a2 .LASF3106
C:\Users\CYMR90~1\AppData\Local\Temp\ccScBURM.s:24418  .debug_str:00000000000155cb .LASF3107
C:\Users\CYMR90~1\AppData\Local\Temp\ccScBURM.s:23452  .debug_str:0000000000011740 .LASF3108
C:\Users\CYMR90~1\AppData\Local\Temp\ccScBURM.s:26021  .debug_str:000000000001bf91 .LASF3109
C:\Users\CYMR90~1\AppData\Local\Temp\ccScBURM.s:25063  .debug_str:000000000001804e .LASF3110
C:\Users\CYMR90~1\AppData\Local\Temp\ccScBURM.s:26951  .debug_str:000000000001fa55 .LASF3111
C:\Users\CYMR90~1\AppData\Local\Temp\ccScBURM.s:23262  .debug_str:0000000000010b92 .LASF3112
C:\Users\CYMR90~1\AppData\Local\Temp\ccScBURM.s:29083  .debug_str:0000000000028267 .LASF3113
C:\Users\CYMR90~1\AppData\Local\Temp\ccScBURM.s:21336  .debug_str:0000000000008fc4 .LASF3114
C:\Users\CYMR90~1\AppData\Local\Temp\ccScBURM.s:20434  .debug_str:000000000000552a .LASF3115
C:\Users\CYMR90~1\AppData\Local\Temp\ccScBURM.s:19492  .debug_str:00000000000018b2 .LASF3116
C:\Users\CYMR90~1\AppData\Local\Temp\ccScBURM.s:29779  .debug_str:000000000002adca .LASF3117
C:\Users\CYMR90~1\AppData\Local\Temp\ccScBURM.s:27381  .debug_str:00000000000214fa .LASF3118
C:\Users\CYMR90~1\AppData\Local\Temp\ccScBURM.s:26413  .debug_str:000000000001d97f .LASF3119
C:\Users\CYMR90~1\AppData\Local\Temp\ccScBURM.s:25583  .debug_str:000000000001a1f6 .LASF3120
C:\Users\CYMR90~1\AppData\Local\Temp\ccScBURM.s:24586  .debug_str:00000000000160c5 .LASF3121
C:\Users\CYMR90~1\AppData\Local\Temp\ccScBURM.s:23670  .debug_str:000000000001261f .LASF3122
C:\Users\CYMR90~1\AppData\Local\Temp\ccScBURM.s:22714  .debug_str:000000000000e9b9 .LASF3123
C:\Users\CYMR90~1\AppData\Local\Temp\ccScBURM.s:22854  .debug_str:000000000000f1d9 .LASF3124
C:\Users\CYMR90~1\AppData\Local\Temp\ccScBURM.s:28769  .debug_str:0000000000026d10 .LASF3125
C:\Users\CYMR90~1\AppData\Local\Temp\ccScBURM.s:28557  .debug_str:0000000000026008 .LASF3126
C:\Users\CYMR90~1\AppData\Local\Temp\ccScBURM.s:23166  .debug_str:0000000000010596 .LASF3127
C:\Users\CYMR90~1\AppData\Local\Temp\ccScBURM.s:22024  .debug_str:000000000000bc2e .LASF3128
C:\Users\CYMR90~1\AppData\Local\Temp\ccScBURM.s:20932  .debug_str:000000000000749d .LASF3129
C:\Users\CYMR90~1\AppData\Local\Temp\ccScBURM.s:26251  .debug_str:000000000001cef4 .LASF3130
C:\Users\CYMR90~1\AppData\Local\Temp\ccScBURM.s:27853  .debug_str:00000000000230e7 .LASF3131
C:\Users\CYMR90~1\AppData\Local\Temp\ccScBURM.s:22204  .debug_str:000000000000c906 .LASF3132
C:\Users\CYMR90~1\AppData\Local\Temp\ccScBURM.s:20502  .debug_str:000000000000593e .LASF3133
C:\Users\CYMR90~1\AppData\Local\Temp\ccScBURM.s:20290  .debug_str:0000000000004c5f .LASF3134
C:\Users\CYMR90~1\AppData\Local\Temp\ccScBURM.s:26165  .debug_str:000000000001c8f4 .LASF3135
C:\Users\CYMR90~1\AppData\Local\Temp\ccScBURM.s:24678  .debug_str:0000000000016678 .LASF3136
C:\Users\CYMR90~1\AppData\Local\Temp\ccScBURM.s:19794  .debug_str:0000000000002ae7 .LASF3137
C:\Users\CYMR90~1\AppData\Local\Temp\ccScBURM.s:30165  .debug_str:000000000002c7a8 .LASF3138
C:\Users\CYMR90~1\AppData\Local\Temp\ccScBURM.s:29123  .debug_str:000000000002852c .LASF3139
C:\Users\CYMR90~1\AppData\Local\Temp\ccScBURM.s:20260  .debug_str:0000000000004a74 .LASF3140
C:\Users\CYMR90~1\AppData\Local\Temp\ccScBURM.s:25999  .debug_str:000000000001be20 .LASF3141
C:\Users\CYMR90~1\AppData\Local\Temp\ccScBURM.s:23266  .debug_str:0000000000010bd7 .LASF3142
C:\Users\CYMR90~1\AppData\Local\Temp\ccScBURM.s:26303  .debug_str:000000000001d28f .LASF3143
C:\Users\CYMR90~1\AppData\Local\Temp\ccScBURM.s:19188  .debug_str:000000000000055e .LASF3144
C:\Users\CYMR90~1\AppData\Local\Temp\ccScBURM.s:23844  .debug_str:00000000000131bb .LASF3145
C:\Users\CYMR90~1\AppData\Local\Temp\ccScBURM.s:28505  .debug_str:0000000000025cc1 .LASF3146
C:\Users\CYMR90~1\AppData\Local\Temp\ccScBURM.s:23752  .debug_str:0000000000012bad .LASF3147
C:\Users\CYMR90~1\AppData\Local\Temp\ccScBURM.s:20654  .debug_str:0000000000006281 .LASF3148
C:\Users\CYMR90~1\AppData\Local\Temp\ccScBURM.s:25027  .debug_str:0000000000017e60 .LASF3149
C:\Users\CYMR90~1\AppData\Local\Temp\ccScBURM.s:23514  .debug_str:0000000000011c45 .LASF3150
C:\Users\CYMR90~1\AppData\Local\Temp\ccScBURM.s:22068  .debug_str:000000000000c063 .LASF3151
C:\Users\CYMR90~1\AppData\Local\Temp\ccScBURM.s:25869  .debug_str:000000000001b610 .LASF3152
C:\Users\CYMR90~1\AppData\Local\Temp\ccScBURM.s:22418  .debug_str:000000000000d7e0 .LASF3153
C:\Users\CYMR90~1\AppData\Local\Temp\ccScBURM.s:21404  .debug_str:00000000000093ab .LASF3154
C:\Users\CYMR90~1\AppData\Local\Temp\ccScBURM.s:28209  .debug_str:000000000002485b .LASF3155
C:\Users\CYMR90~1\AppData\Local\Temp\ccScBURM.s:23558  .debug_str:0000000000011eed .LASF3156
C:\Users\CYMR90~1\AppData\Local\Temp\ccScBURM.s:27823  .debug_str:0000000000022f6e .LASF3157
C:\Users\CYMR90~1\AppData\Local\Temp\ccScBURM.s:21730  .debug_str:000000000000a898 .LASF3158
C:\Users\CYMR90~1\AppData\Local\Temp\ccScBURM.s:25443  .debug_str:00000000000199d4 .LASF3159
C:\Users\CYMR90~1\AppData\Local\Temp\ccScBURM.s:28731  .debug_str:0000000000026a95 .LASF3160
C:\Users\CYMR90~1\AppData\Local\Temp\ccScBURM.s:22448  .debug_str:000000000000d97b .LASF3161
C:\Users\CYMR90~1\AppData\Local\Temp\ccScBURM.s:20548  .debug_str:0000000000005c2d .LASF3162
C:\Users\CYMR90~1\AppData\Local\Temp\ccScBURM.s:22052  .debug_str:000000000000bf37 .LASF3163
C:\Users\CYMR90~1\AppData\Local\Temp\ccScBURM.s:20840  .debug_str:0000000000006e5d .LASF3164
C:\Users\CYMR90~1\AppData\Local\Temp\ccScBURM.s:22740  .debug_str:000000000000eb7e .LASF3165
C:\Users\CYMR90~1\AppData\Local\Temp\ccScBURM.s:19334  .debug_str:0000000000000eff .LASF3166
C:\Users\CYMR90~1\AppData\Local\Temp\ccScBURM.s:29913  .debug_str:000000000002b692 .LASF3167
C:\Users\CYMR90~1\AppData\Local\Temp\ccScBURM.s:29513  .debug_str:0000000000029dba .LASF3168
C:\Users\CYMR90~1\AppData\Local\Temp\ccScBURM.s:26963  .debug_str:000000000001fb13 .LASF3169
C:\Users\CYMR90~1\AppData\Local\Temp\ccScBURM.s:28067  .debug_str:0000000000023de5 .LASF3170
C:\Users\CYMR90~1\AppData\Local\Temp\ccScBURM.s:26535  .debug_str:000000000001e161 .LASF3171
C:\Users\CYMR90~1\AppData\Local\Temp\ccScBURM.s:26925  .debug_str:000000000001f895 .LASF3172
C:\Users\CYMR90~1\AppData\Local\Temp\ccScBURM.s:28873  .debug_str:00000000000273e9 .LASF3173
C:\Users\CYMR90~1\AppData\Local\Temp\ccScBURM.s:24134  .debug_str:0000000000014414 .LASF3174
C:\Users\CYMR90~1\AppData\Local\Temp\ccScBURM.s:24684  .debug_str:00000000000166d3 .LASF3175
C:\Users\CYMR90~1\AppData\Local\Temp\ccScBURM.s:19586  .debug_str:0000000000001e69 .LASF3176
C:\Users\CYMR90~1\AppData\Local\Temp\ccScBURM.s:26911  .debug_str:000000000001f7ad .LASF3177
C:\Users\CYMR90~1\AppData\Local\Temp\ccScBURM.s:26859  .debug_str:000000000001f4bf .LASF3178
C:\Users\CYMR90~1\AppData\Local\Temp\ccScBURM.s:25973  .debug_str:000000000001bc51 .LASF3179
C:\Users\CYMR90~1\AppData\Local\Temp\ccScBURM.s:19754  .debug_str:0000000000002869 .LASF3180
C:\Users\CYMR90~1\AppData\Local\Temp\ccScBURM.s:28373  .debug_str:00000000000253c6 .LASF3181
C:\Users\CYMR90~1\AppData\Local\Temp\ccScBURM.s:22338  .debug_str:000000000000d202 .LASF3182
C:\Users\CYMR90~1\AppData\Local\Temp\ccScBURM.s:20112  .debug_str:0000000000003ff6 .LASF3183
C:\Users\CYMR90~1\AppData\Local\Temp\ccScBURM.s:19846  .debug_str:0000000000002e55 .LASF3184
C:\Users\CYMR90~1\AppData\Local\Temp\ccScBURM.s:21232  .debug_str:0000000000008930 .LASF3185
C:\Users\CYMR90~1\AppData\Local\Temp\ccScBURM.s:26525  .debug_str:000000000001e0c3 .LASF3186
C:\Users\CYMR90~1\AppData\Local\Temp\ccScBURM.s:27665  .debug_str:00000000000225fb .LASF3187
C:\Users\CYMR90~1\AppData\Local\Temp\ccScBURM.s:21606  .debug_str:000000000000a0b7 .LASF3188
C:\Users\CYMR90~1\AppData\Local\Temp\ccScBURM.s:22536  .debug_str:000000000000de79 .LASF3189
C:\Users\CYMR90~1\AppData\Local\Temp\ccScBURM.s:24482  .debug_str:000000000001599a .LASF3190
C:\Users\CYMR90~1\AppData\Local\Temp\ccScBURM.s:20666  .debug_str:000000000000632c .LASF3191
C:\Users\CYMR90~1\AppData\Local\Temp\ccScBURM.s:25759  .debug_str:000000000001af2a .LASF3192
C:\Users\CYMR90~1\AppData\Local\Temp\ccScBURM.s:25403  .debug_str:0000000000019691 .LASF3193
C:\Users\CYMR90~1\AppData\Local\Temp\ccScBURM.s:22060  .debug_str:000000000000bfbb .LASF3194
C:\Users\CYMR90~1\AppData\Local\Temp\ccScBURM.s:27123  .debug_str:00000000000204e4 .LASF3195
C:\Users\CYMR90~1\AppData\Local\Temp\ccScBURM.s:24961  .debug_str:0000000000017a65 .LASF3196
C:\Users\CYMR90~1\AppData\Local\Temp\ccScBURM.s:29117  .debug_str:00000000000284ba .LASF3197
C:\Users\CYMR90~1\AppData\Local\Temp\ccScBURM.s:26631  .debug_str:000000000001e706 .LASF3198
C:\Users\CYMR90~1\AppData\Local\Temp\ccScBURM.s:25949  .debug_str:000000000001ba92 .LASF3199
C:\Users\CYMR90~1\AppData\Local\Temp\ccScBURM.s:28995  .debug_str:0000000000027bfd .LASF3200
C:\Users\CYMR90~1\AppData\Local\Temp\ccScBURM.s:19612  .debug_str:0000000000001fc2 .LASF3201
C:\Users\CYMR90~1\AppData\Local\Temp\ccScBURM.s:22766  .debug_str:000000000000ed18 .LASF3202
C:\Users\CYMR90~1\AppData\Local\Temp\ccScBURM.s:22808  .debug_str:000000000000ef41 .LASF3203
C:\Users\CYMR90~1\AppData\Local\Temp\ccScBURM.s:28643  .debug_str:0000000000026547 .LASF3204
C:\Users\CYMR90~1\AppData\Local\Temp\ccScBURM.s:29001  .debug_str:0000000000027c5d .LASF3205
C:\Users\CYMR90~1\AppData\Local\Temp\ccScBURM.s:25053  .debug_str:0000000000017fd2 .LASF3206
C:\Users\CYMR90~1\AppData\Local\Temp\ccScBURM.s:27767  .debug_str:0000000000022c56 .LASF3207
C:\Users\CYMR90~1\AppData\Local\Temp\ccScBURM.s:19448  .debug_str:000000000000154a .LASF3208
C:\Users\CYMR90~1\AppData\Local\Temp\ccScBURM.s:19748  .debug_str:000000000000280d .LASF3209
C:\Users\CYMR90~1\AppData\Local\Temp\ccScBURM.s:29587  .debug_str:000000000002a1e8 .LASF3210
C:\Users\CYMR90~1\AppData\Local\Temp\ccScBURM.s:20638  .debug_str:00000000000061b4 .LASF3211
C:\Users\CYMR90~1\AppData\Local\Temp\ccScBURM.s:23848  .debug_str:00000000000131fd .LASF3212
C:\Users\CYMR90~1\AppData\Local\Temp\ccScBURM.s:22408  .debug_str:000000000000d731 .LASF3213
C:\Users\CYMR90~1\AppData\Local\Temp\ccScBURM.s:27343  .debug_str:00000000000211f7 .LASF3214
C:\Users\CYMR90~1\AppData\Local\Temp\ccScBURM.s:25413  .debug_str:0000000000019776 .LASF3215
C:\Users\CYMR90~1\AppData\Local\Temp\ccScBURM.s:21584  .debug_str:0000000000009f42 .LASF3216
C:\Users\CYMR90~1\AppData\Local\Temp\ccScBURM.s:21340  .debug_str:0000000000009001 .LASF3217
C:\Users\CYMR90~1\AppData\Local\Temp\ccScBURM.s:21926  .debug_str:000000000000b5bb .LASF3218
C:\Users\CYMR90~1\AppData\Local\Temp\ccScBURM.s:20186  .debug_str:00000000000044f9 .LASF3219
C:\Users\CYMR90~1\AppData\Local\Temp\ccScBURM.s:23284  .debug_str:0000000000010d6d .LASF3220
C:\Users\CYMR90~1\AppData\Local\Temp\ccScBURM.s:24943  .debug_str:000000000001795c .LASF3221
C:\Users\CYMR90~1\AppData\Local\Temp\ccScBURM.s:21208  .debug_str:0000000000008771 .LASF3222
C:\Users\CYMR90~1\AppData\Local\Temp\ccScBURM.s:22002  .debug_str:000000000000bac6 .LASF3223
C:\Users\CYMR90~1\AppData\Local\Temp\ccScBURM.s:21952  .debug_str:000000000000b7ad .LASF3224
C:\Users\CYMR90~1\AppData\Local\Temp\ccScBURM.s:24849  .debug_str:000000000001734e .LASF3225
C:\Users\CYMR90~1\AppData\Local\Temp\ccScBURM.s:28727  .debug_str:0000000000026a5c .LASF3226
C:\Users\CYMR90~1\AppData\Local\Temp\ccScBURM.s:21680  .debug_str:000000000000a589 .LASF3227
C:\Users\CYMR90~1\AppData\Local\Temp\ccScBURM.s:19724  .debug_str:0000000000002658 .LASF3228
C:\Users\CYMR90~1\AppData\Local\Temp\ccScBURM.s:26661  .debug_str:000000000001e8f0 .LASF3229
C:\Users\CYMR90~1\AppData\Local\Temp\ccScBURM.s:19416  .debug_str:00000000000013a5 .LASF3230
C:\Users\CYMR90~1\AppData\Local\Temp\ccScBURM.s:25231  .debug_str:0000000000018ae0 .LASF3231
C:\Users\CYMR90~1\AppData\Local\Temp\ccScBURM.s:19520  .debug_str:0000000000001a59 .LASF3232
C:\Users\CYMR90~1\AppData\Local\Temp\ccScBURM.s:30177  .debug_str:000000000002c891 .LASF3233
C:\Users\CYMR90~1\AppData\Local\Temp\ccScBURM.s:24400  .debug_str:00000000000154cf .LASF3234
C:\Users\CYMR90~1\AppData\Local\Temp\ccScBURM.s:28161  .debug_str:000000000002450f .LASF3235
C:\Users\CYMR90~1\AppData\Local\Temp\ccScBURM.s:21620  .debug_str:000000000000a18b .LASF3236
C:\Users\CYMR90~1\AppData\Local\Temp\ccScBURM.s:19544  .debug_str:0000000000001be0 .LASF3237
C:\Users\CYMR90~1\AppData\Local\Temp\ccScBURM.s:20660  .debug_str:00000000000062ef .LASF3238
C:\Users\CYMR90~1\AppData\Local\Temp\ccScBURM.s:25833  .debug_str:000000000001b3f1 .LASF3239
C:\Users\CYMR90~1\AppData\Local\Temp\ccScBURM.s:23960  .debug_str:0000000000013996 .LASF3240
C:\Users\CYMR90~1\AppData\Local\Temp\ccScBURM.s:21346  .debug_str:0000000000009064 .LASF3241
C:\Users\CYMR90~1\AppData\Local\Temp\ccScBURM.s:20414  .debug_str:00000000000053e5 .LASF3242
C:\Users\CYMR90~1\AppData\Local\Temp\ccScBURM.s:29677  .debug_str:000000000002a7cc .LASF3243
C:\Users\CYMR90~1\AppData\Local\Temp\ccScBURM.s:22078  .debug_str:000000000000c0ef .LASF3244
C:\Users\CYMR90~1\AppData\Local\Temp\ccScBURM.s:19762  .debug_str:00000000000028e4 .LASF3245
C:\Users\CYMR90~1\AppData\Local\Temp\ccScBURM.s:27625  .debug_str:00000000000223a8 .LASF3246
C:\Users\CYMR90~1\AppData\Local\Temp\ccScBURM.s:24312  .debug_str:0000000000014fcb .LASF3247
C:\Users\CYMR90~1\AppData\Local\Temp\ccScBURM.s:20928  .debug_str:0000000000007456 .LASF3248
C:\Users\CYMR90~1\AppData\Local\Temp\ccScBURM.s:25813  .debug_str:000000000001b2cb .LASF3249
C:\Users\CYMR90~1\AppData\Local\Temp\ccScBURM.s:20546  .debug_str:0000000000005c0e .LASF3250
C:\Users\CYMR90~1\AppData\Local\Temp\ccScBURM.s:21438  .debug_str:00000000000095fd .LASF3251
C:\Users\CYMR90~1\AppData\Local\Temp\ccScBURM.s:23688  .debug_str:000000000001275e .LASF3252
C:\Users\CYMR90~1\AppData\Local\Temp\ccScBURM.s:27643  .debug_str:0000000000022483 .LASF3253
C:\Users\CYMR90~1\AppData\Local\Temp\ccScBURM.s:28981  .debug_str:0000000000027aeb .LASF3254
C:\Users\CYMR90~1\AppData\Local\Temp\ccScBURM.s:25043  .debug_str:0000000000017f46 .LASF3255
C:\Users\CYMR90~1\AppData\Local\Temp\ccScBURM.s:22924  .debug_str:000000000000f64c .LASF3256
C:\Users\CYMR90~1\AppData\Local\Temp\ccScBURM.s:27641  .debug_str:000000000002246a .LASF3257
C:\Users\CYMR90~1\AppData\Local\Temp\ccScBURM.s:29415  .debug_str:00000000000297ee .LASF3258
C:\Users\CYMR90~1\AppData\Local\Temp\ccScBURM.s:25675  .debug_str:000000000001a994 .LASF3259
C:\Users\CYMR90~1\AppData\Local\Temp\ccScBURM.s:20798  .debug_str:0000000000006b85 .LASF3260
C:\Users\CYMR90~1\AppData\Local\Temp\ccScBURM.s:20420  .debug_str:0000000000005429 .LASF3261
C:\Users\CYMR90~1\AppData\Local\Temp\ccScBURM.s:26575  .debug_str:000000000001e39f .LASF3262
C:\Users\CYMR90~1\AppData\Local\Temp\ccScBURM.s:22634  .debug_str:000000000000e48c .LASF3263
C:\Users\CYMR90~1\AppData\Local\Temp\ccScBURM.s:27841  .debug_str:0000000000023036 .LASF3264
C:\Users\CYMR90~1\AppData\Local\Temp\ccScBURM.s:24901  .debug_str:0000000000017676 .LASF3265
C:\Users\CYMR90~1\AppData\Local\Temp\ccScBURM.s:28273  .debug_str:0000000000024c66 .LASF3266
C:\Users\CYMR90~1\AppData\Local\Temp\ccScBURM.s:27679  .debug_str:00000000000226cd .LASF3267
C:\Users\CYMR90~1\AppData\Local\Temp\ccScBURM.s:24957  .debug_str:0000000000017a3c .LASF3268
C:\Users\CYMR90~1\AppData\Local\Temp\ccScBURM.s:29849  .debug_str:000000000002b23c .LASF3269
C:\Users\CYMR90~1\AppData\Local\Temp\ccScBURM.s:30147  .debug_str:000000000002c65e .LASF3270
C:\Users\CYMR90~1\AppData\Local\Temp\ccScBURM.s:28577  .debug_str:000000000002612b .LASF3271
C:\Users\CYMR90~1\AppData\Local\Temp\ccScBURM.s:20074  .debug_str:0000000000003d49 .LASF3272
C:\Users\CYMR90~1\AppData\Local\Temp\ccScBURM.s:22856  .debug_str:000000000000f208 .LASF3273
C:\Users\CYMR90~1\AppData\Local\Temp\ccScBURM.s:20040  .debug_str:0000000000003b52 .LASF3274
C:\Users\CYMR90~1\AppData\Local\Temp\ccScBURM.s:23402  .debug_str:000000000001140b .LASF3275
C:\Users\CYMR90~1\AppData\Local\Temp\ccScBURM.s:23220  .debug_str:00000000000108da .LASF3276
C:\Users\CYMR90~1\AppData\Local\Temp\ccScBURM.s:20768  .debug_str:000000000000699e .LASF3277
C:\Users\CYMR90~1\AppData\Local\Temp\ccScBURM.s:23606  .debug_str:0000000000012237 .LASF3278
C:\Users\CYMR90~1\AppData\Local\Temp\ccScBURM.s:23264  .debug_str:0000000000010bba .LASF3279
C:\Users\CYMR90~1\AppData\Local\Temp\ccScBURM.s:21012  .debug_str:00000000000079c5 .LASF3280
C:\Users\CYMR90~1\AppData\Local\Temp\ccScBURM.s:21686  .debug_str:000000000000a5d3 .LASF3281
C:\Users\CYMR90~1\AppData\Local\Temp\ccScBURM.s:24078  .debug_str:00000000000140c2 .LASF3282
C:\Users\CYMR90~1\AppData\Local\Temp\ccScBURM.s:26583  .debug_str:000000000001e40e .LASF3283
C:\Users\CYMR90~1\AppData\Local\Temp\ccScBURM.s:20224  .debug_str:000000000000479d .LASF3284
C:\Users\CYMR90~1\AppData\Local\Temp\ccScBURM.s:27121  .debug_str:00000000000204ce .LASF3285
C:\Users\CYMR90~1\AppData\Local\Temp\ccScBURM.s:27479  .debug_str:0000000000021af7 .LASF3286
C:\Users\CYMR90~1\AppData\Local\Temp\ccScBURM.s:21494  .debug_str:0000000000009993 .LASF3287
C:\Users\CYMR90~1\AppData\Local\Temp\ccScBURM.s:20844  .debug_str:0000000000006e8f .LASF3288
C:\Users\CYMR90~1\AppData\Local\Temp\ccScBURM.s:21358  .debug_str:00000000000090ec .LASF3289
C:\Users\CYMR90~1\AppData\Local\Temp\ccScBURM.s:19822  .debug_str:0000000000002cd3 .LASF3290
C:\Users\CYMR90~1\AppData\Local\Temp\ccScBURM.s:30001  .debug_str:000000000002bc69 .LASF3291
C:\Users\CYMR90~1\AppData\Local\Temp\ccScBURM.s:20644  .debug_str:0000000000006207 .LASF3292
C:\Users\CYMR90~1\AppData\Local\Temp\ccScBURM.s:19220  .debug_str:0000000000000746 .LASF3293
C:\Users\CYMR90~1\AppData\Local\Temp\ccScBURM.s:20230  .debug_str:000000000000481a .LASF3294
C:\Users\CYMR90~1\AppData\Local\Temp\ccScBURM.s:20014  .debug_str:0000000000003990 .LASF3295
C:\Users\CYMR90~1\AppData\Local\Temp\ccScBURM.s:23678  .debug_str:00000000000126ac .LASF3296
C:\Users\CYMR90~1\AppData\Local\Temp\ccScBURM.s:27205  .debug_str:0000000000020a19 .LASF3297
C:\Users\CYMR90~1\AppData\Local\Temp\ccScBURM.s:19160  .debug_str:00000000000003d9 .LASF3298
C:\Users\CYMR90~1\AppData\Local\Temp\ccScBURM.s:26797  .debug_str:000000000001f10f .LASF3299
C:\Users\CYMR90~1\AppData\Local\Temp\ccScBURM.s:25663  .debug_str:000000000001a8d2 .LASF3300
C:\Users\CYMR90~1\AppData\Local\Temp\ccScBURM.s:26573  .debug_str:000000000001e37f .LASF3301
C:\Users\CYMR90~1\AppData\Local\Temp\ccScBURM.s:26157  .debug_str:000000000001c85f .LASF3302
C:\Users\CYMR90~1\AppData\Local\Temp\ccScBURM.s:25023  .debug_str:0000000000017e2a .LASF3303
C:\Users\CYMR90~1\AppData\Local\Temp\ccScBURM.s:23568  .debug_str:0000000000011f76 .LASF3304
C:\Users\CYMR90~1\AppData\Local\Temp\ccScBURM.s:21576  .debug_str:0000000000009eaf .LASF3305
C:\Users\CYMR90~1\AppData\Local\Temp\ccScBURM.s:26445  .debug_str:000000000001db31 .LASF3306
C:\Users\CYMR90~1\AppData\Local\Temp\ccScBURM.s:30097  .debug_str:000000000002c374 .LASF3307
C:\Users\CYMR90~1\AppData\Local\Temp\ccScBURM.s:25423  .debug_str:000000000001987c .LASF3308
C:\Users\CYMR90~1\AppData\Local\Temp\ccScBURM.s:25733  .debug_str:000000000001ad20 .LASF3309
C:\Users\CYMR90~1\AppData\Local\Temp\ccScBURM.s:28201  .debug_str:00000000000247f9 .LASF3310
C:\Users\CYMR90~1\AppData\Local\Temp\ccScBURM.s:29583  .debug_str:000000000002a1b5 .LASF3311
C:\Users\CYMR90~1\AppData\Local\Temp\ccScBURM.s:23448  .debug_str:0000000000011704 .LASF3312
C:\Users\CYMR90~1\AppData\Local\Temp\ccScBURM.s:26397  .debug_str:000000000001d8a7 .LASF3313
C:\Users\CYMR90~1\AppData\Local\Temp\ccScBURM.s:22534  .debug_str:000000000000de61 .LASF3314
C:\Users\CYMR90~1\AppData\Local\Temp\ccScBURM.s:29357  .debug_str:0000000000029458 .LASF3315
C:\Users\CYMR90~1\AppData\Local\Temp\ccScBURM.s:20940  .debug_str:000000000000750d .LASF3316
C:\Users\CYMR90~1\AppData\Local\Temp\ccScBURM.s:29629  .debug_str:000000000002a4cf .LASF3317
C:\Users\CYMR90~1\AppData\Local\Temp\ccScBURM.s:28421  .debug_str:0000000000025792 .LASF3318
C:\Users\CYMR90~1\AppData\Local\Temp\ccScBURM.s:19998  .debug_str:000000000000389b .LASF3319
C:\Users\CYMR90~1\AppData\Local\Temp\ccScBURM.s:23160  .debug_str:0000000000010538 .LASF3320
C:\Users\CYMR90~1\AppData\Local\Temp\ccScBURM.s:29087  .debug_str:00000000000282b5 .LASF3321
C:\Users\CYMR90~1\AppData\Local\Temp\ccScBURM.s:23628  .debug_str:000000000001237d .LASF3322
C:\Users\CYMR90~1\AppData\Local\Temp\ccScBURM.s:21744  .debug_str:000000000000a957 .LASF3323
C:\Users\CYMR90~1\AppData\Local\Temp\ccScBURM.s:29905  .debug_str:000000000002b5fe .LASF3324
C:\Users\CYMR90~1\AppData\Local\Temp\ccScBURM.s:21830  .debug_str:000000000000af88 .LASF3325
C:\Users\CYMR90~1\AppData\Local\Temp\ccScBURM.s:25477  .debug_str:0000000000019be5 .LASF3326
C:\Users\CYMR90~1\AppData\Local\Temp\ccScBURM.s:29657  .debug_str:000000000002a698 .LASF3327
C:\Users\CYMR90~1\AppData\Local\Temp\ccScBURM.s:25225  .debug_str:0000000000018a57 .LASF3328
C:\Users\CYMR90~1\AppData\Local\Temp\ccScBURM.s:29697  .debug_str:000000000002a8db .LASF3329
C:\Users\CYMR90~1\AppData\Local\Temp\ccScBURM.s:27309  .debug_str:0000000000020ff8 .LASF3330
C:\Users\CYMR90~1\AppData\Local\Temp\ccScBURM.s:28661  .debug_str:0000000000026686 .LASF3331
C:\Users\CYMR90~1\AppData\Local\Temp\ccScBURM.s:22386  .debug_str:000000000000d590 .LASF3332
C:\Users\CYMR90~1\AppData\Local\Temp\ccScBURM.s:28055  .debug_str:0000000000023d39 .LASF3333
C:\Users\CYMR90~1\AppData\Local\Temp\ccScBURM.s:24200  .debug_str:0000000000014885 .LASF3334
C:\Users\CYMR90~1\AppData\Local\Temp\ccScBURM.s:23056  .debug_str:000000000000fed2 .LASF3335
C:\Users\CYMR90~1\AppData\Local\Temp\ccScBURM.s:26145  .debug_str:000000000001c6f5 .LASF3336
C:\Users\CYMR90~1\AppData\Local\Temp\ccScBURM.s:28917  .debug_str:0000000000027657 .LASF3337
C:\Users\CYMR90~1\AppData\Local\Temp\ccScBURM.s:20020  .debug_str:00000000000039ec .LASF3338
C:\Users\CYMR90~1\AppData\Local\Temp\ccScBURM.s:26377  .debug_str:000000000001d737 .LASF3339
C:\Users\CYMR90~1\AppData\Local\Temp\ccScBURM.s:29097  .debug_str:0000000000028359 .LASF3340
C:\Users\CYMR90~1\AppData\Local\Temp\ccScBURM.s:21252  .debug_str:0000000000008a65 .LASF3341
C:\Users\CYMR90~1\AppData\Local\Temp\ccScBURM.s:27553  .debug_str:0000000000021f71 .LASF3342
C:\Users\CYMR90~1\AppData\Local\Temp\ccScBURM.s:24378  .debug_str:0000000000015394 .LASF3343
C:\Users\CYMR90~1\AppData\Local\Temp\ccScBURM.s:21342  .debug_str:0000000000009025 .LASF3344
C:\Users\CYMR90~1\AppData\Local\Temp\ccScBURM.s:26285  .debug_str:000000000001d190 .LASF3345
C:\Users\CYMR90~1\AppData\Local\Temp\ccScBURM.s:23772  .debug_str:0000000000012cf0 .LASF3346
C:\Users\CYMR90~1\AppData\Local\Temp\ccScBURM.s:21808  .debug_str:000000000000ad4e .LASF3347
C:\Users\CYMR90~1\AppData\Local\Temp\ccScBURM.s:26215  .debug_str:000000000001cc1d .LASF3348
C:\Users\CYMR90~1\AppData\Local\Temp\ccScBURM.s:28295  .debug_str:0000000000024dc7 .LASF3349
C:\Users\CYMR90~1\AppData\Local\Temp\ccScBURM.s:20308  .debug_str:0000000000004d7d .LASF3350
C:\Users\CYMR90~1\AppData\Local\Temp\ccScBURM.s:29597  .debug_str:000000000002a2b2 .LASF3351
C:\Users\CYMR90~1\AppData\Local\Temp\ccScBURM.s:28487  .debug_str:0000000000025b9f .LASF3352
C:\Users\CYMR90~1\AppData\Local\Temp\ccScBURM.s:25521  .debug_str:0000000000019e5f .LASF3353
C:\Users\CYMR90~1\AppData\Local\Temp\ccScBURM.s:25529  .debug_str:0000000000019ee5 .LASF3354
C:\Users\CYMR90~1\AppData\Local\Temp\ccScBURM.s:28773  .debug_str:0000000000026d52 .LASF3355
C:\Users\CYMR90~1\AppData\Local\Temp\ccScBURM.s:23660  .debug_str:0000000000012571 .LASF3356
C:\Users\CYMR90~1\AppData\Local\Temp\ccScBURM.s:29569  .debug_str:000000000002a100 .LASF3357
C:\Users\CYMR90~1\AppData\Local\Temp\ccScBURM.s:25189  .debug_str:000000000001880b .LASF3358
C:\Users\CYMR90~1\AppData\Local\Temp\ccScBURM.s:28851  .debug_str:00000000000272b2 .LASF3359
C:\Users\CYMR90~1\AppData\Local\Temp\ccScBURM.s:20204  .debug_str:000000000000461e .LASF3360
C:\Users\CYMR90~1\AppData\Local\Temp\ccScBURM.s:23254  .debug_str:0000000000010af5 .LASF3361
C:\Users\CYMR90~1\AppData\Local\Temp\ccScBURM.s:26553  .debug_str:000000000001e253 .LASF3362
C:\Users\CYMR90~1\AppData\Local\Temp\ccScBURM.s:23590  .debug_str:0000000000012109 .LASF3363
C:\Users\CYMR90~1\AppData\Local\Temp\ccScBURM.s:23010  .debug_str:000000000000fbf0 .LASF3364
C:\Users\CYMR90~1\AppData\Local\Temp\ccScBURM.s:23770  .debug_str:0000000000012cb7 .LASF3365
C:\Users\CYMR90~1\AppData\Local\Temp\ccScBURM.s:27775  .debug_str:0000000000022cac .LASF3366
C:\Users\CYMR90~1\AppData\Local\Temp\ccScBURM.s:24564  .debug_str:0000000000015f42 .LASF3367
C:\Users\CYMR90~1\AppData\Local\Temp\ccScBURM.s:26125  .debug_str:000000000001c595 .LASF3368
C:\Users\CYMR90~1\AppData\Local\Temp\ccScBURM.s:28933  .debug_str:0000000000027761 .LASF3369
C:\Users\CYMR90~1\AppData\Local\Temp\ccScBURM.s:21042  .debug_str:0000000000007bc8 .LASF3370
C:\Users\CYMR90~1\AppData\Local\Temp\ccScBURM.s:20362  .debug_str:00000000000050aa .LASF3371
C:\Users\CYMR90~1\AppData\Local\Temp\ccScBURM.s:23722  .debug_str:000000000001299f .LASF3372
C:\Users\CYMR90~1\AppData\Local\Temp\ccScBURM.s:19374  .debug_str:0000000000001139 .LASF3373
C:\Users\CYMR90~1\AppData\Local\Temp\ccScBURM.s:19464  .debug_str:0000000000001647 .LASF3374
C:\Users\CYMR90~1\AppData\Local\Temp\ccScBURM.s:29047  .debug_str:0000000000027fa4 .LASF3375
C:\Users\CYMR90~1\AppData\Local\Temp\ccScBURM.s:25799  .debug_str:000000000001b1cd .LASF3376
C:\Users\CYMR90~1\AppData\Local\Temp\ccScBURM.s:22306  .debug_str:000000000000cfd3 .LASF3377
C:\Users\CYMR90~1\AppData\Local\Temp\ccScBURM.s:24162  .debug_str:00000000000145f4 .LASF3378
C:\Users\CYMR90~1\AppData\Local\Temp\ccScBURM.s:25135  .debug_str:00000000000184ee .LASF3379
C:\Users\CYMR90~1\AppData\Local\Temp\ccScBURM.s:23008  .debug_str:000000000000fbd7 .LASF3380
C:\Users\CYMR90~1\AppData\Local\Temp\ccScBURM.s:26609  .debug_str:000000000001e59d .LASF3381
C:\Users\CYMR90~1\AppData\Local\Temp\ccScBURM.s:22118  .debug_str:000000000000c364 .LASF3382
C:\Users\CYMR90~1\AppData\Local\Temp\ccScBURM.s:21684  .debug_str:000000000000a5b0 .LASF3383
C:\Users\CYMR90~1\AppData\Local\Temp\ccScBURM.s:24624  .debug_str:00000000000162f9 .LASF3384
C:\Users\CYMR90~1\AppData\Local\Temp\ccScBURM.s:25579  .debug_str:000000000001a1b4 .LASF3385
C:\Users\CYMR90~1\AppData\Local\Temp\ccScBURM.s:26861  .debug_str:000000000001f4de .LASF3386
C:\Users\CYMR90~1\AppData\Local\Temp\ccScBURM.s:23082  .debug_str:000000000001008f .LASF3387
C:\Users\CYMR90~1\AppData\Local\Temp\ccScBURM.s:30171  .debug_str:000000000002c821 .LASF3388
C:\Users\CYMR90~1\AppData\Local\Temp\ccScBURM.s:24945  .debug_str:0000000000017973 .LASF3389
C:\Users\CYMR90~1\AppData\Local\Temp\ccScBURM.s:27579  .debug_str:0000000000022107 .LASF3390
C:\Users\CYMR90~1\AppData\Local\Temp\ccScBURM.s:21990  .debug_str:000000000000ba22 .LASF3391
C:\Users\CYMR90~1\AppData\Local\Temp\ccScBURM.s:27855  .debug_str:0000000000023114 .LASF3392
C:\Users\CYMR90~1\AppData\Local\Temp\ccScBURM.s:24042  .debug_str:0000000000013e68 .LASF3393
C:\Users\CYMR90~1\AppData\Local\Temp\ccScBURM.s:26753  .debug_str:000000000001ee20 .LASF3394
C:\Users\CYMR90~1\AppData\Local\Temp\ccScBURM.s:22840  .debug_str:000000000000f11b .LASF3395
C:\Users\CYMR90~1\AppData\Local\Temp\ccScBURM.s:29563  .debug_str:000000000002a0a6 .LASF3396
C:\Users\CYMR90~1\AppData\Local\Temp\ccScBURM.s:23158  .debug_str:0000000000010521 .LASF3397
C:\Users\CYMR90~1\AppData\Local\Temp\ccScBURM.s:29175  .debug_str:00000000000288c4 .LASF3398
C:\Users\CYMR90~1\AppData\Local\Temp\ccScBURM.s:27821  .debug_str:0000000000022f58 .LASF3399
C:\Users\CYMR90~1\AppData\Local\Temp\ccScBURM.s:23478  .debug_str:0000000000011998 .LASF3400
C:\Users\CYMR90~1\AppData\Local\Temp\ccScBURM.s:21384  .debug_str:000000000000928f .LASF3401
C:\Users\CYMR90~1\AppData\Local\Temp\ccScBURM.s:20970  .debug_str:0000000000007700 .LASF3402
C:\Users\CYMR90~1\AppData\Local\Temp\ccScBURM.s:30285  .debug_str:000000000002cfb1 .LASF3403
C:\Users\CYMR90~1\AppData\Local\Temp\ccScBURM.s:20160  .debug_str:0000000000004342 .LASF3404
C:\Users\CYMR90~1\AppData\Local\Temp\ccScBURM.s:29823  .debug_str:000000000002b048 .LASF3405
C:\Users\CYMR90~1\AppData\Local\Temp\ccScBURM.s:22456  .debug_str:000000000000d9f1 .LASF3406
C:\Users\CYMR90~1\AppData\Local\Temp\ccScBURM.s:25113  .debug_str:0000000000018373 .LASF3407
C:\Users\CYMR90~1\AppData\Local\Temp\ccScBURM.s:24562  .debug_str:0000000000015f2a .LASF3408
C:\Users\CYMR90~1\AppData\Local\Temp\ccScBURM.s:27867  .debug_str:00000000000231b4 .LASF3409
C:\Users\CYMR90~1\AppData\Local\Temp\ccScBURM.s:19386  .debug_str:00000000000011df .LASF3410
C:\Users\CYMR90~1\AppData\Local\Temp\ccScBURM.s:20322  .debug_str:0000000000004e75 .LASF3411
C:\Users\CYMR90~1\AppData\Local\Temp\ccScBURM.s:27727  .debug_str:0000000000022982 .LASF3412
C:\Users\CYMR90~1\AppData\Local\Temp\ccScBURM.s:20564  .debug_str:0000000000005d33 .LASF3413
C:\Users\CYMR90~1\AppData\Local\Temp\ccScBURM.s:28041  .debug_str:0000000000023c5a .LASF3414
C:\Users\CYMR90~1\AppData\Local\Temp\ccScBURM.s:28449  .debug_str:000000000002596b .LASF3415
C:\Users\CYMR90~1\AppData\Local\Temp\ccScBURM.s:27193  .debug_str:0000000000020992 .LASF3416
C:\Users\CYMR90~1\AppData\Local\Temp\ccScBURM.s:24466  .debug_str:00000000000158b9 .LASF3417
C:\Users\CYMR90~1\AppData\Local\Temp\ccScBURM.s:24218  .debug_str:0000000000014985 .LASF3418
C:\Users\CYMR90~1\AppData\Local\Temp\ccScBURM.s:24935  .debug_str:00000000000178c9 .LASF3419
C:\Users\CYMR90~1\AppData\Local\Temp\ccScBURM.s:27087  .debug_str:000000000002024e .LASF3420
C:\Users\CYMR90~1\AppData\Local\Temp\ccScBURM.s:20936  .debug_str:00000000000074df .LASF3421
C:\Users\CYMR90~1\AppData\Local\Temp\ccScBURM.s:19154  .debug_str:0000000000000380 .LASF3422
C:\Users\CYMR90~1\AppData\Local\Temp\ccScBURM.s:29197  .debug_str:0000000000028a1c .LASF3423
C:\Users\CYMR90~1\AppData\Local\Temp\ccScBURM.s:19282  .debug_str:0000000000000b80 .LASF3424
C:\Users\CYMR90~1\AppData\Local\Temp\ccScBURM.s:27559  .debug_str:0000000000021fe5 .LASF3425
C:\Users\CYMR90~1\AppData\Local\Temp\ccScBURM.s:24362  .debug_str:00000000000152d3 .LASF3426
C:\Users\CYMR90~1\AppData\Local\Temp\ccScBURM.s:24024  .debug_str:0000000000013d50 .LASF3427
C:\Users\CYMR90~1\AppData\Local\Temp\ccScBURM.s:22330  .debug_str:000000000000d17b .LASF3428
C:\Users\CYMR90~1\AppData\Local\Temp\ccScBURM.s:27857  .debug_str:000000000002313a .LASF3429
C:\Users\CYMR90~1\AppData\Local\Temp\ccScBURM.s:25841  .debug_str:000000000001b47c .LASF3430
C:\Users\CYMR90~1\AppData\Local\Temp\ccScBURM.s:24622  .debug_str:00000000000162dc .LASF3431
C:\Users\CYMR90~1\AppData\Local\Temp\ccScBURM.s:28293  .debug_str:0000000000024da9 .LASF3432
C:\Users\CYMR90~1\AppData\Local\Temp\ccScBURM.s:22974  .debug_str:000000000000f9ec .LASF3433
C:\Users\CYMR90~1\AppData\Local\Temp\ccScBURM.s:27773  .debug_str:0000000000022c90 .LASF3434
C:\Users\CYMR90~1\AppData\Local\Temp\ccScBURM.s:23866  .debug_str:0000000000013346 .LASF3435
C:\Users\CYMR90~1\AppData\Local\Temp\ccScBURM.s:26329  .debug_str:000000000001d41d .LASF3436
C:\Users\CYMR90~1\AppData\Local\Temp\ccScBURM.s:28963  .debug_str:00000000000279b7 .LASF3437
C:\Users\CYMR90~1\AppData\Local\Temp\ccScBURM.s:30209  .debug_str:000000000002ca92 .LASF3438
C:\Users\CYMR90~1\AppData\Local\Temp\ccScBURM.s:19526  .debug_str:0000000000001aae .LASF3439
C:\Users\CYMR90~1\AppData\Local\Temp\ccScBURM.s:20090  .debug_str:0000000000003e56 .LASF3440
C:\Users\CYMR90~1\AppData\Local\Temp\ccScBURM.s:29895  .debug_str:000000000002b532 .LASF3441
C:\Users\CYMR90~1\AppData\Local\Temp\ccScBURM.s:21836  .debug_str:000000000000afe9 .LASF3442
C:\Users\CYMR90~1\AppData\Local\Temp\ccScBURM.s:24018  .debug_str:0000000000013d02 .LASF3443
C:\Users\CYMR90~1\AppData\Local\Temp\ccScBURM.s:20354  .debug_str:000000000000504a .LASF3444
C:\Users\CYMR90~1\AppData\Local\Temp\ccScBURM.s:28789  .debug_str:0000000000026e47 .LASF3445
C:\Users\CYMR90~1\AppData\Local\Temp\ccScBURM.s:20544  .debug_str:0000000000005be4 .LASF3446
C:\Users\CYMR90~1\AppData\Local\Temp\ccScBURM.s:21934  .debug_str:000000000000b64b .LASF3447
C:\Users\CYMR90~1\AppData\Local\Temp\ccScBURM.s:20480  .debug_str:00000000000057e4 .LASF3448
C:\Users\CYMR90~1\AppData\Local\Temp\ccScBURM.s:23584  .debug_str:0000000000012098 .LASF3449
C:\Users\CYMR90~1\AppData\Local\Temp\ccScBURM.s:28953  .debug_str:000000000002791a .LASF3450
C:\Users\CYMR90~1\AppData\Local\Temp\ccScBURM.s:25367  .debug_str:000000000001946b .LASF3451
C:\Users\CYMR90~1\AppData\Local\Temp\ccScBURM.s:24160  .debug_str:00000000000145b9 .LASF3452
C:\Users\CYMR90~1\AppData\Local\Temp\ccScBURM.s:30237  .debug_str:000000000002ccc4 .LASF3453
C:\Users\CYMR90~1\AppData\Local\Temp\ccScBURM.s:26831  .debug_str:000000000001f317 .LASF3454
C:\Users\CYMR90~1\AppData\Local\Temp\ccScBURM.s:23516  .debug_str:0000000000011c5f .LASF3455
C:\Users\CYMR90~1\AppData\Local\Temp\ccScBURM.s:20944  .debug_str:0000000000007542 .LASF3456
C:\Users\CYMR90~1\AppData\Local\Temp\ccScBURM.s:27911  .debug_str:000000000002347a .LASF3457
C:\Users\CYMR90~1\AppData\Local\Temp\ccScBURM.s:24516  .debug_str:0000000000015bd5 .LASF3458
C:\Users\CYMR90~1\AppData\Local\Temp\ccScBURM.s:21170  .debug_str:000000000000854c .LASF3459
C:\Users\CYMR90~1\AppData\Local\Temp\ccScBURM.s:25059  .debug_str:0000000000018005 .LASF3460
C:\Users\CYMR90~1\AppData\Local\Temp\ccScBURM.s:29957  .debug_str:000000000002b984 .LASF3461
C:\Users\CYMR90~1\AppData\Local\Temp\ccScBURM.s:28523  .debug_str:0000000000025db7 .LASF3462
C:\Users\CYMR90~1\AppData\Local\Temp\ccScBURM.s:19484  .debug_str:000000000000182c .LASF3463
C:\Users\CYMR90~1\AppData\Local\Temp\ccScBURM.s:20518  .debug_str:0000000000005a0d .LASF3464
C:\Users\CYMR90~1\AppData\Local\Temp\ccScBURM.s:26617  .debug_str:000000000001e5e9 .LASF3465
C:\Users\CYMR90~1\AppData\Local\Temp\ccScBURM.s:26839  .debug_str:000000000001f395 .LASF3466
C:\Users\CYMR90~1\AppData\Local\Temp\ccScBURM.s:27955  .debug_str:0000000000023782 .LASF3467
C:\Users\CYMR90~1\AppData\Local\Temp\ccScBURM.s:19480  .debug_str:00000000000017e5 .LASF3468
C:\Users\CYMR90~1\AppData\Local\Temp\ccScBURM.s:25169  .debug_str:000000000001869a .LASF3469
C:\Users\CYMR90~1\AppData\Local\Temp\ccScBURM.s:30191  .debug_str:000000000002c975 .LASF3470
C:\Users\CYMR90~1\AppData\Local\Temp\ccScBURM.s:21906  .debug_str:000000000000b3fb .LASF3471
C:\Users\CYMR90~1\AppData\Local\Temp\ccScBURM.s:25041  .debug_str:0000000000017f26 .LASF3472
C:\Users\CYMR90~1\AppData\Local\Temp\ccScBURM.s:19418  .debug_str:00000000000013b8 .LASF3473
C:\Users\CYMR90~1\AppData\Local\Temp\ccScBURM.s:23432  .debug_str:00000000000115f6 .LASF3474
C:\Users\CYMR90~1\AppData\Local\Temp\ccScBURM.s:22126  .debug_str:000000000000c3da .LASF3475
C:\Users\CYMR90~1\AppData\Local\Temp\ccScBURM.s:22390  .debug_str:000000000000d5db .LASF3476
C:\Users\CYMR90~1\AppData\Local\Temp\ccScBURM.s:29953  .debug_str:000000000002b939 .LASF3477
C:\Users\CYMR90~1\AppData\Local\Temp\ccScBURM.s:27037  .debug_str:000000000001ffa0 .LASF3478
C:\Users\CYMR90~1\AppData\Local\Temp\ccScBURM.s:22870  .debug_str:000000000000f2ff .LASF3479
C:\Users\CYMR90~1\AppData\Local\Temp\ccScBURM.s:28447  .debug_str:0000000000025943 .LASF3480
C:\Users\CYMR90~1\AppData\Local\Temp\ccScBURM.s:27411  .debug_str:00000000000216bd .LASF3481
C:\Users\CYMR90~1\AppData\Local\Temp\ccScBURM.s:23124  .debug_str:0000000000010334 .LASF3482
C:\Users\CYMR90~1\AppData\Local\Temp\ccScBURM.s:27035  .debug_str:000000000001ff79 .LASF3483
C:\Users\CYMR90~1\AppData\Local\Temp\ccScBURM.s:24170  .debug_str:00000000000146a8 .LASF3484
C:\Users\CYMR90~1\AppData\Local\Temp\ccScBURM.s:29833  .debug_str:000000000002b120 .LASF3485
C:\Users\CYMR90~1\AppData\Local\Temp\ccScBURM.s:21180  .debug_str:00000000000085e3 .LASF3486
C:\Users\CYMR90~1\AppData\Local\Temp\ccScBURM.s:27067  .debug_str:000000000002013a .LASF3487
C:\Users\CYMR90~1\AppData\Local\Temp\ccScBURM.s:28583  .debug_str:000000000002618a .LASF3488
C:\Users\CYMR90~1\AppData\Local\Temp\ccScBURM.s:30239  .debug_str:000000000002cceb .LASF3489
C:\Users\CYMR90~1\AppData\Local\Temp\ccScBURM.s:21556  .debug_str:0000000000009d85 .LASF3490
C:\Users\CYMR90~1\AppData\Local\Temp\ccScBURM.s:25405  .debug_str:00000000000196b4 .LASF3491
C:\Users\CYMR90~1\AppData\Local\Temp\ccScBURM.s:22846  .debug_str:000000000000f161 .LASF3492
C:\Users\CYMR90~1\AppData\Local\Temp\ccScBURM.s:26751  .debug_str:000000000001ee02 .LASF3493
C:\Users\CYMR90~1\AppData\Local\Temp\ccScBURM.s:25223  .debug_str:0000000000018a38 .LASF3494
C:\Users\CYMR90~1\AppData\Local\Temp\ccScBURM.s:29759  .debug_str:000000000002ac8f .LASF3495
C:\Users\CYMR90~1\AppData\Local\Temp\ccScBURM.s:25985  .debug_str:000000000001bd24 .LASF3496
C:\Users\CYMR90~1\AppData\Local\Temp\ccScBURM.s:20078  .debug_str:0000000000003d97 .LASF3497
C:\Users\CYMR90~1\AppData\Local\Temp\ccScBURM.s:21820  .debug_str:000000000000ae44 .LASF3498
C:\Users\CYMR90~1\AppData\Local\Temp\ccScBURM.s:22866  .debug_str:000000000000f2b1 .LASF3499
C:\Users\CYMR90~1\AppData\Local\Temp\ccScBURM.s:27489  .debug_str:0000000000021b8c .LASF3500
C:\Users\CYMR90~1\AppData\Local\Temp\ccScBURM.s:24728  .debug_str:0000000000016a70 .LASF3501
C:\Users\CYMR90~1\AppData\Local\Temp\ccScBURM.s:26515  .debug_str:000000000001e024 .LASF3502
C:\Users\CYMR90~1\AppData\Local\Temp\ccScBURM.s:25751  .debug_str:000000000001ae4c .LASF3503
C:\Users\CYMR90~1\AppData\Local\Temp\ccScBURM.s:27513  .debug_str:0000000000021d2d .LASF3504
C:\Users\CYMR90~1\AppData\Local\Temp\ccScBURM.s:21784  .debug_str:000000000000abe8 .LASF3505
C:\Users\CYMR90~1\AppData\Local\Temp\ccScBURM.s:24136  .debug_str:000000000001442e .LASF3506
C:\Users\CYMR90~1\AppData\Local\Temp\ccScBURM.s:20612  .debug_str:0000000000005fe9 .LASF3507
C:\Users\CYMR90~1\AppData\Local\Temp\ccScBURM.s:27639  .debug_str:000000000002244a .LASF3508
C:\Users\CYMR90~1\AppData\Local\Temp\ccScBURM.s:23758  .debug_str:0000000000012bf1 .LASF3509
C:\Users\CYMR90~1\AppData\Local\Temp\ccScBURM.s:25817  .debug_str:000000000001b305 .LASF3510
C:\Users\CYMR90~1\AppData\Local\Temp\ccScBURM.s:25691  .debug_str:000000000001aaa8 .LASF3511
C:\Users\CYMR90~1\AppData\Local\Temp\ccScBURM.s:20374  .debug_str:0000000000005183 .LASF3512
C:\Users\CYMR90~1\AppData\Local\Temp\ccScBURM.s:27113  .debug_str:0000000000020431 .LASF3513
C:\Users\CYMR90~1\AppData\Local\Temp\ccScBURM.s:23832  .debug_str:00000000000130e0 .LASF3514
C:\Users\CYMR90~1\AppData\Local\Temp\ccScBURM.s:21664  .debug_str:000000000000a46a .LASF3515
C:\Users\CYMR90~1\AppData\Local\Temp\ccScBURM.s:26147  .debug_str:000000000001c71a .LASF3516
C:\Users\CYMR90~1\AppData\Local\Temp\ccScBURM.s:20874  .debug_str:0000000000007073 .LASF3517
C:\Users\CYMR90~1\AppData\Local\Temp\ccScBURM.s:28767  .debug_str:0000000000026cee .LASF3518
C:\Users\CYMR90~1\AppData\Local\Temp\ccScBURM.s:20288  .debug_str:0000000000004c3b .LASF3519
C:\Users\CYMR90~1\AppData\Local\Temp\ccScBURM.s:20610  .debug_str:0000000000005fd8 .LASF3520
C:\Users\CYMR90~1\AppData\Local\Temp\ccScBURM.s:19596  .debug_str:0000000000001efc .LASF3521
C:\Users\CYMR90~1\AppData\Local\Temp\ccScBURM.s:25117  .debug_str:00000000000183aa .LASF3522
C:\Users\CYMR90~1\AppData\Local\Temp\ccScBURM.s:24833  .debug_str:000000000001724a .LASF3523
C:\Users\CYMR90~1\AppData\Local\Temp\ccScBURM.s:25867  .debug_str:000000000001b5ee .LASF3524
C:\Users\CYMR90~1\AppData\Local\Temp\ccScBURM.s:22548  .debug_str:000000000000df88 .LASF3525
C:\Users\CYMR90~1\AppData\Local\Temp\ccScBURM.s:27243  .debug_str:0000000000020ca7 .LASF3526
C:\Users\CYMR90~1\AppData\Local\Temp\ccScBURM.s:28101  .debug_str:00000000000240f2 .LASF3527
C:\Users\CYMR90~1\AppData\Local\Temp\ccScBURM.s:28965  .debug_str:00000000000279ce .LASF3528
C:\Users\CYMR90~1\AppData\Local\Temp\ccScBURM.s:27365  .debug_str:00000000000213f6 .LASF3529
C:\Users\CYMR90~1\AppData\Local\Temp\ccScBURM.s:28607  .debug_str:00000000000262e8 .LASF3530
C:\Users\CYMR90~1\AppData\Local\Temp\ccScBURM.s:20892  .debug_str:00000000000071e1 .LASF3531
C:\Users\CYMR90~1\AppData\Local\Temp\ccScBURM.s:25875  .debug_str:000000000001b67b .LASF3532
C:\Users\CYMR90~1\AppData\Local\Temp\ccScBURM.s:19688  .debug_str:00000000000023d4 .LASF3533
C:\Users\CYMR90~1\AppData\Local\Temp\ccScBURM.s:28363  .debug_str:0000000000025307 .LASF3534
C:\Users\CYMR90~1\AppData\Local\Temp\ccScBURM.s:22130  .debug_str:000000000000c41f .LASF3535
C:\Users\CYMR90~1\AppData\Local\Temp\ccScBURM.s:24596  .debug_str:000000000001614f .LASF3536
C:\Users\CYMR90~1\AppData\Local\Temp\ccScBURM.s:28801  .debug_str:0000000000026ed8 .LASF3537
C:\Users\CYMR90~1\AppData\Local\Temp\ccScBURM.s:21772  .debug_str:000000000000ab18 .LASF3538
C:\Users\CYMR90~1\AppData\Local\Temp\ccScBURM.s:22624  .debug_str:000000000000e406 .LASF3539
C:\Users\CYMR90~1\AppData\Local\Temp\ccScBURM.s:20292  .debug_str:0000000000004c8a .LASF3540
C:\Users\CYMR90~1\AppData\Local\Temp\ccScBURM.s:19276  .debug_str:0000000000000b06 .LASF3541
C:\Users\CYMR90~1\AppData\Local\Temp\ccScBURM.s:27523  .debug_str:0000000000021dd1 .LASF3542
C:\Users\CYMR90~1\AppData\Local\Temp\ccScBURM.s:21790  .debug_str:000000000000ac3d .LASF3543
C:\Users\CYMR90~1\AppData\Local\Temp\ccScBURM.s:19990  .debug_str:00000000000037f4 .LASF3544
C:\Users\CYMR90~1\AppData\Local\Temp\ccScBURM.s:19444  .debug_str:0000000000001510 .LASF3545
C:\Users\CYMR90~1\AppData\Local\Temp\ccScBURM.s:25137  .debug_str:0000000000018507 .LASF3546
C:\Users\CYMR90~1\AppData\Local\Temp\ccScBURM.s:24618  .debug_str:000000000001629c .LASF3547
C:\Users\CYMR90~1\AppData\Local\Temp\ccScBURM.s:23820  .debug_str:0000000000013014 .LASF3548
C:\Users\CYMR90~1\AppData\Local\Temp\ccScBURM.s:25483  .debug_str:0000000000019c4e .LASF3549
C:\Users\CYMR90~1\AppData\Local\Temp\ccScBURM.s:29723  .debug_str:000000000002aa72 .LASF3550
C:\Users\CYMR90~1\AppData\Local\Temp\ccScBURM.s:24680  .debug_str:00000000000166a5 .LASF3551
C:\Users\CYMR90~1\AppData\Local\Temp\ccScBURM.s:23738  .debug_str:0000000000012ad4 .LASF3552
C:\Users\CYMR90~1\AppData\Local\Temp\ccScBURM.s:25775  .debug_str:000000000001b021 .LASF3553
C:\Users\CYMR90~1\AppData\Local\Temp\ccScBURM.s:28637  .debug_str:00000000000264e8 .LASF3554
C:\Users\CYMR90~1\AppData\Local\Temp\ccScBURM.s:21106  .debug_str:00000000000080fd .LASF3555
C:\Users\CYMR90~1\AppData\Local\Temp\ccScBURM.s:19808  .debug_str:0000000000002bd1 .LASF3556
C:\Users\CYMR90~1\AppData\Local\Temp\ccScBURM.s:27451  .debug_str:0000000000021912 .LASF3557
C:\Users\CYMR90~1\AppData\Local\Temp\ccScBURM.s:26787  .debug_str:000000000001f07b .LASF3558
C:\Users\CYMR90~1\AppData\Local\Temp\ccScBURM.s:27079  .debug_str:00000000000201e2 .LASF3559
C:\Users\CYMR90~1\AppData\Local\Temp\ccScBURM.s:27607  .debug_str:00000000000222ac .LASF3560
C:\Users\CYMR90~1\AppData\Local\Temp\ccScBURM.s:23252  .debug_str:0000000000010add .LASF3561
C:\Users\CYMR90~1\AppData\Local\Temp\ccScBURM.s:20822  .debug_str:0000000000006d1c .LASF3562
C:\Users\CYMR90~1\AppData\Local\Temp\ccScBURM.s:29881  .debug_str:000000000002b48e .LASF3563
C:\Users\CYMR90~1\AppData\Local\Temp\ccScBURM.s:29711  .debug_str:000000000002a9b1 .LASF3564
C:\Users\CYMR90~1\AppData\Local\Temp\ccScBURM.s:19458  .debug_str:0000000000001605 .LASF3565
C:\Users\CYMR90~1\AppData\Local\Temp\ccScBURM.s:19258  .debug_str:0000000000000984 .LASF3566
C:\Users\CYMR90~1\AppData\Local\Temp\ccScBURM.s:28733  .debug_str:0000000000026aa6 .LASF3567
C:\Users\CYMR90~1\AppData\Local\Temp\ccScBURM.s:23040  .debug_str:000000000000fdca .LASF3568
C:\Users\CYMR90~1\AppData\Local\Temp\ccScBURM.s:30181  .debug_str:000000000002c8be .LASF3569
C:\Users\CYMR90~1\AppData\Local\Temp\ccScBURM.s:25301  .debug_str:0000000000019084 .LASF3570
C:\Users\CYMR90~1\AppData\Local\Temp\ccScBURM.s:29819  .debug_str:000000000002b005 .LASF3571
C:\Users\CYMR90~1\AppData\Local\Temp\ccScBURM.s:25343  .debug_str:00000000000192e5 .LASF3572
C:\Users\CYMR90~1\AppData\Local\Temp\ccScBURM.s:27593  .debug_str:0000000000022200 .LASF3573
C:\Users\CYMR90~1\AppData\Local\Temp\ccScBURM.s:24072  .debug_str:0000000000014032 .LASF3574
C:\Users\CYMR90~1\AppData\Local\Temp\ccScBURM.s:22226  .debug_str:000000000000cab0 .LASF3575
C:\Users\CYMR90~1\AppData\Local\Temp\ccScBURM.s:19874  .debug_str:0000000000002ff9 .LASF3576
C:\Users\CYMR90~1\AppData\Local\Temp\ccScBURM.s:25657  .debug_str:000000000001a87e .LASF3577
C:\Users\CYMR90~1\AppData\Local\Temp\ccScBURM.s:26865  .debug_str:000000000001f511 .LASF3578
C:\Users\CYMR90~1\AppData\Local\Temp\ccScBURM.s:29517  .debug_str:0000000000029df7 .LASF3579
C:\Users\CYMR90~1\AppData\Local\Temp\ccScBURM.s:28721  .debug_str:0000000000026a13 .LASF3580
C:\Users\CYMR90~1\AppData\Local\Temp\ccScBURM.s:27655  .debug_str:0000000000022553 .LASF3581
C:\Users\CYMR90~1\AppData\Local\Temp\ccScBURM.s:28309  .debug_str:0000000000024e99 .LASF3582
C:\Users\CYMR90~1\AppData\Local\Temp\ccScBURM.s:26465  .debug_str:000000000001dcf9 .LASF3583
C:\Users\CYMR90~1\AppData\Local\Temp\ccScBURM.s:26523  .debug_str:000000000001e0a8 .LASF3584
C:\Users\CYMR90~1\AppData\Local\Temp\ccScBURM.s:25567  .debug_str:000000000001a101 .LASF3585
C:\Users\CYMR90~1\AppData\Local\Temp\ccScBURM.s:19162  .debug_str:00000000000003f6 .LASF3586
C:\Users\CYMR90~1\AppData\Local\Temp\ccScBURM.s:24923  .debug_str:00000000000177d6 .LASF3587
C:\Users\CYMR90~1\AppData\Local\Temp\ccScBURM.s:28493  .debug_str:0000000000025bf5 .LASF3588
C:\Users\CYMR90~1\AppData\Local\Temp\ccScBURM.s:20404  .debug_str:000000000000534d .LASF3589
C:\Users\CYMR90~1\AppData\Local\Temp\ccScBURM.s:19496  .debug_str:0000000000001901 .LASF3590
C:\Users\CYMR90~1\AppData\Local\Temp\ccScBURM.s:24474  .debug_str:0000000000015920 .LASF3591
C:\Users\CYMR90~1\AppData\Local\Temp\ccScBURM.s:22946  .debug_str:000000000000f78a .LASF3592
C:\Users\CYMR90~1\AppData\Local\Temp\ccScBURM.s:21472  .debug_str:0000000000009800 .LASF3593
C:\Users\CYMR90~1\AppData\Local\Temp\ccScBURM.s:26539  .debug_str:000000000001e193 .LASF3594
C:\Users\CYMR90~1\AppData\Local\Temp\ccScBURM.s:19588  .debug_str:0000000000001e86 .LASF3595
C:\Users\CYMR90~1\AppData\Local\Temp\ccScBURM.s:26847  .debug_str:000000000001f429 .LASF3596
C:\Users\CYMR90~1\AppData\Local\Temp\ccScBURM.s:21448  .debug_str:000000000000969e .LASF3597
C:\Users\CYMR90~1\AppData\Local\Temp\ccScBURM.s:25049  .debug_str:0000000000017fa8 .LASF3598
C:\Users\CYMR90~1\AppData\Local\Temp\ccScBURM.s:28595  .debug_str:0000000000026230 .LASF3599
C:\Users\CYMR90~1\AppData\Local\Temp\ccScBURM.s:22586  .debug_str:000000000000e1ba .LASF3600
C:\Users\CYMR90~1\AppData\Local\Temp\ccScBURM.s:26601  .debug_str:000000000001e542 .LASF3601
C:\Users\CYMR90~1\AppData\Local\Temp\ccScBURM.s:30079  .debug_str:000000000002c1cf .LASF3602
C:\Users\CYMR90~1\AppData\Local\Temp\ccScBURM.s:22894  .debug_str:000000000000f496 .LASF3603
C:\Users\CYMR90~1\AppData\Local\Temp\ccScBURM.s:26889  .debug_str:000000000001f67f .LASF3604
C:\Users\CYMR90~1\AppData\Local\Temp\ccScBURM.s:20276  .debug_str:0000000000004b83 .LASF3605
C:\Users\CYMR90~1\AppData\Local\Temp\ccScBURM.s:26783  .debug_str:000000000001f047 .LASF3606
C:\Users\CYMR90~1\AppData\Local\Temp\ccScBURM.s:22596  .debug_str:000000000000e25a .LASF3607
C:\Users\CYMR90~1\AppData\Local\Temp\ccScBURM.s:29835  .debug_str:000000000002b147 .LASF3608
C:\Users\CYMR90~1\AppData\Local\Temp\ccScBURM.s:27441  .debug_str:0000000000021896 .LASF3609
C:\Users\CYMR90~1\AppData\Local\Temp\ccScBURM.s:24815  .debug_str:000000000001712d .LASF3610
C:\Users\CYMR90~1\AppData\Local\Temp\ccScBURM.s:26339  .debug_str:000000000001d4ca .LASF3611
C:\Users\CYMR90~1\AppData\Local\Temp\ccScBURM.s:24867  .debug_str:0000000000017448 .LASF3612
C:\Users\CYMR90~1\AppData\Local\Temp\ccScBURM.s:28327  .debug_str:0000000000025021 .LASF3613
C:\Users\CYMR90~1\AppData\Local\Temp\ccScBURM.s:26489  .debug_str:000000000001deb9 .LASF3614
C:\Users\CYMR90~1\AppData\Local\Temp\ccScBURM.s:27413  .debug_str:00000000000216fc .LASF3615
C:\Users\CYMR90~1\AppData\Local\Temp\ccScBURM.s:23146  .debug_str:000000000001046e .LASF3616
C:\Users\CYMR90~1\AppData\Local\Temp\ccScBURM.s:24266  .debug_str:0000000000014c88 .LASF3617
C:\Users\CYMR90~1\AppData\Local\Temp\ccScBURM.s:30201  .debug_str:000000000002ca34 .LASF3618
C:\Users\CYMR90~1\AppData\Local\Temp\ccScBURM.s:22318  .debug_str:000000000000d0d4 .LASF3619
C:\Users\CYMR90~1\AppData\Local\Temp\ccScBURM.s:25099  .debug_str:00000000000182ad .LASF3620
C:\Users\CYMR90~1\AppData\Local\Temp\ccScBURM.s:21476  .debug_str:0000000000009832 .LASF3621
C:\Users\CYMR90~1\AppData\Local\Temp\ccScBURM.s:28593  .debug_str:0000000000026213 .LASF3622
C:\Users\CYMR90~1\AppData\Local\Temp\ccScBURM.s:29653  .debug_str:000000000002a658 .LASF3623
C:\Users\CYMR90~1\AppData\Local\Temp\ccScBURM.s:22014  .debug_str:000000000000bb78 .LASF3624
C:\Users\CYMR90~1\AppData\Local\Temp\ccScBURM.s:29071  .debug_str:00000000000281ce .LASF3625
C:\Users\CYMR90~1\AppData\Local\Temp\ccScBURM.s:25991  .debug_str:000000000001bd9c .LASF3626
C:\Users\CYMR90~1\AppData\Local\Temp\ccScBURM.s:29527  .debug_str:0000000000029e81 .LASF3627
C:\Users\CYMR90~1\AppData\Local\Temp\ccScBURM.s:19660  .debug_str:000000000000225f .LASF3628
C:\Users\CYMR90~1\AppData\Local\Temp\ccScBURM.s:28649  .debug_str:00000000000265c3 .LASF3629
C:\Users\CYMR90~1\AppData\Local\Temp\ccScBURM.s:25435  .debug_str:0000000000019958 .LASF3630
C:\Users\CYMR90~1\AppData\Local\Temp\ccScBURM.s:25361  .debug_str:0000000000019419 .LASF3631
C:\Users\CYMR90~1\AppData\Local\Temp\ccScBURM.s:25779  .debug_str:000000000001b061 .LASF3632
C:\Users\CYMR90~1\AppData\Local\Temp\ccScBURM.s:19668  .debug_str:00000000000022c9 .LASF3633
C:\Users\CYMR90~1\AppData\Local\Temp\ccScBURM.s:28991  .debug_str:0000000000027bcd .LASF3634
C:\Users\CYMR90~1\AppData\Local\Temp\ccScBURM.s:26425  .debug_str:000000000001da3b .LASF3635
C:\Users\CYMR90~1\AppData\Local\Temp\ccScBURM.s:28345  .debug_str:00000000000251f2 .LASF3636
C:\Users\CYMR90~1\AppData\Local\Temp\ccScBURM.s:27657  .debug_str:000000000002256f .LASF3637
C:\Users\CYMR90~1\AppData\Local\Temp\ccScBURM.s:27203  .debug_str:0000000000020a00 .LASF3638
C:\Users\CYMR90~1\AppData\Local\Temp\ccScBURM.s:30033  .debug_str:000000000002bef2 .LASF3639
C:\Users\CYMR90~1\AppData\Local\Temp\ccScBURM.s:29777  .debug_str:000000000002adae .LASF3640
C:\Users\CYMR90~1\AppData\Local\Temp\ccScBURM.s:19218  .debug_str:000000000000072c .LASF3641
C:\Users\CYMR90~1\AppData\Local\Temp\ccScBURM.s:22812  .debug_str:000000000000ef74 .LASF3642
C:\Users\CYMR90~1\AppData\Local\Temp\ccScBURM.s:28251  .debug_str:0000000000024aff .LASF3643
C:\Users\CYMR90~1\AppData\Local\Temp\ccScBURM.s:27967  .debug_str:000000000002381f .LASF3644
C:\Users\CYMR90~1\AppData\Local\Temp\ccScBURM.s:25611  .debug_str:000000000001a510 .LASF3645
C:\Users\CYMR90~1\AppData\Local\Temp\ccScBURM.s:24763  .debug_str:0000000000016e2a .LASF3646
C:\Users\CYMR90~1\AppData\Local\Temp\ccScBURM.s:25209  .debug_str:0000000000018975 .LASF3647
C:\Users\CYMR90~1\AppData\Local\Temp\ccScBURM.s:29599  .debug_str:000000000002a2d0 .LASF3648
C:\Users\CYMR90~1\AppData\Local\Temp\ccScBURM.s:22366  .debug_str:000000000000d414 .LASF3649
C:\Users\CYMR90~1\AppData\Local\Temp\ccScBURM.s:24813  .debug_str:0000000000017110 .LASF3650
C:\Users\CYMR90~1\AppData\Local\Temp\ccScBURM.s:24150  .debug_str:0000000000014512 .LASF3651
C:\Users\CYMR90~1\AppData\Local\Temp\ccScBURM.s:24240  .debug_str:0000000000014afa .LASF3652
C:\Users\CYMR90~1\AppData\Local\Temp\ccScBURM.s:26567  .debug_str:000000000001e340 .LASF3653
C:\Users\CYMR90~1\AppData\Local\Temp\ccScBURM.s:29397  .debug_str:000000000002971a .LASF3654
C:\Users\CYMR90~1\AppData\Local\Temp\ccScBURM.s:19802  .debug_str:0000000000002b7b .LASF3655
C:\Users\CYMR90~1\AppData\Local\Temp\ccScBURM.s:26765  .debug_str:000000000001eeef .LASF3656
C:\Users\CYMR90~1\AppData\Local\Temp\ccScBURM.s:21598  .debug_str:000000000000a031 .LASF3657
C:\Users\CYMR90~1\AppData\Local\Temp\ccScBURM.s:19926  .debug_str:00000000000033c8 .LASF3658
C:\Users\CYMR90~1\AppData\Local\Temp\ccScBURM.s:21834  .debug_str:000000000000afd0 .LASF3659
C:\Users\CYMR90~1\AppData\Local\Temp\ccScBURM.s:20788  .debug_str:0000000000006aca .LASF3660
C:\Users\CYMR90~1\AppData\Local\Temp\ccScBURM.s:28271  .debug_str:0000000000024c4a .LASF3661
C:\Users\CYMR90~1\AppData\Local\Temp\ccScBURM.s:25677  .debug_str:000000000001a9b3 .LASF3662
C:\Users\CYMR90~1\AppData\Local\Temp\ccScBURM.s:25537  .debug_str:0000000000019f5e .LASF3663
C:\Users\CYMR90~1\AppData\Local\Temp\ccScBURM.s:20746  .debug_str:0000000000006845 .LASF3664
C:\Users\CYMR90~1\AppData\Local\Temp\ccScBURM.s:22690  .debug_str:000000000000e82b .LASF3665
C:\Users\CYMR90~1\AppData\Local\Temp\ccScBURM.s:22532  .debug_str:000000000000de44 .LASF3666
C:\Users\CYMR90~1\AppData\Local\Temp\ccScBURM.s:21172  .debug_str:0000000000008573 .LASF3667
C:\Users\CYMR90~1\AppData\Local\Temp\ccScBURM.s:21360  .debug_str:000000000000910b .LASF3668
C:\Users\CYMR90~1\AppData\Local\Temp\ccScBURM.s:21936  .debug_str:000000000000b66d .LASF3669
C:\Users\CYMR90~1\AppData\Local\Temp\ccScBURM.s:19952  .debug_str:0000000000003573 .LASF3670
C:\Users\CYMR90~1\AppData\Local\Temp\ccScBURM.s:21290  .debug_str:0000000000008ca0 .LASF3671
C:\Users\CYMR90~1\AppData\Local\Temp\ccScBURM.s:19144  .debug_str:00000000000002de .LASF3672
C:\Users\CYMR90~1\AppData\Local\Temp\ccScBURM.s:24809  .debug_str:00000000000170e2 .LASF3673
C:\Users\CYMR90~1\AppData\Local\Temp\ccScBURM.s:22092  .debug_str:000000000000c1cf .LASF3674
C:\Users\CYMR90~1\AppData\Local\Temp\ccScBURM.s:27907  .debug_str:0000000000023440 .LASF3675
C:\Users\CYMR90~1\AppData\Local\Temp\ccScBURM.s:29951  .debug_str:000000000002b91f .LASF3676
C:\Users\CYMR90~1\AppData\Local\Temp\ccScBURM.s:23634  .debug_str:00000000000123d9 .LASF3677
C:\Users\CYMR90~1\AppData\Local\Temp\ccScBURM.s:23492  .debug_str:0000000000011afc .LASF3678
C:\Users\CYMR90~1\AppData\Local\Temp\ccScBURM.s:25793  .debug_str:000000000001b173 .LASF3679
C:\Users\CYMR90~1\AppData\Local\Temp\ccScBURM.s:27919  .debug_str:0000000000023530 .LASF3680
C:\Users\CYMR90~1\AppData\Local\Temp\ccScBURM.s:29333  .debug_str:00000000000292d7 .LASF3681
C:\Users\CYMR90~1\AppData\Local\Temp\ccScBURM.s:25449  .debug_str:0000000000019a31 .LASF3682
C:\Users\CYMR90~1\AppData\Local\Temp\ccScBURM.s:26749  .debug_str:000000000001ede3 .LASF3683
C:\Users\CYMR90~1\AppData\Local\Temp\ccScBURM.s:27845  .debug_str:0000000000023068 .LASF3684
C:\Users\CYMR90~1\AppData\Local\Temp\ccScBURM.s:28677  .debug_str:0000000000026772 .LASF3685
C:\Users\CYMR90~1\AppData\Local\Temp\ccScBURM.s:19318  .debug_str:0000000000000d6a .LASF3686
C:\Users\CYMR90~1\AppData\Local\Temp\ccScBURM.s:22758  .debug_str:000000000000ec9c .LASF3687
C:\Users\CYMR90~1\AppData\Local\Temp\ccScBURM.s:30029  .debug_str:000000000002bec1 .LASF3688
C:\Users\CYMR90~1\AppData\Local\Temp\ccScBURM.s:28815  .debug_str:0000000000026f9d .LASF3689
C:\Users\CYMR90~1\AppData\Local\Temp\ccScBURM.s:19788  .debug_str:0000000000002a77 .LASF3690
C:\Users\CYMR90~1\AppData\Local\Temp\ccScBURM.s:19468  .debug_str:000000000000168c .LASF3691
C:\Users\CYMR90~1\AppData\Local\Temp\ccScBURM.s:20902  .debug_str:00000000000072b5 .LASF3692
C:\Users\CYMR90~1\AppData\Local\Temp\ccScBURM.s:22292  .debug_str:000000000000cef1 .LASF3693
C:\Users\CYMR90~1\AppData\Local\Temp\ccScBURM.s:20650  .debug_str:000000000000625a .LASF3694
C:\Users\CYMR90~1\AppData\Local\Temp\ccScBURM.s:27301  .debug_str:0000000000020fab .LASF3695
C:\Users\CYMR90~1\AppData\Local\Temp\ccScBURM.s:27565  .debug_str:000000000002202f .LASF3696
C:\Users\CYMR90~1\AppData\Local\Temp\ccScBURM.s:21454  .debug_str:00000000000096f5 .LASF3697
C:\Users\CYMR90~1\AppData\Local\Temp\ccScBURM.s:27963  .debug_str:00000000000237f1 .LASF3698
C:\Users\CYMR90~1\AppData\Local\Temp\ccScBURM.s:30151  .debug_str:000000000002c69f .LASF3699
C:\Users\CYMR90~1\AppData\Local\Temp\ccScBURM.s:23080  .debug_str:0000000000010076 .LASF3700
C:\Users\CYMR90~1\AppData\Local\Temp\ccScBURM.s:22584  .debug_str:000000000000e1a1 .LASF3701
C:\Users\CYMR90~1\AppData\Local\Temp\ccScBURM.s:26691  .debug_str:000000000001eaa5 .LASF3702
C:\Users\CYMR90~1\AppData\Local\Temp\ccScBURM.s:20240  .debug_str:00000000000048bc .LASF3703
C:\Users\CYMR90~1\AppData\Local\Temp\ccScBURM.s:19538  .debug_str:0000000000001b7c .LASF3704
C:\Users\CYMR90~1\AppData\Local\Temp\ccScBURM.s:21536  .debug_str:0000000000009c54 .LASF3705
C:\Users\CYMR90~1\AppData\Local\Temp\ccScBURM.s:27819  .debug_str:0000000000022f40 .LASF3706
C:\Users\CYMR90~1\AppData\Local\Temp\ccScBURM.s:23524  .debug_str:0000000000011cf9 .LASF3707
C:\Users\CYMR90~1\AppData\Local\Temp\ccScBURM.s:24052  .debug_str:0000000000013f14 .LASF3708
C:\Users\CYMR90~1\AppData\Local\Temp\ccScBURM.s:21420  .debug_str:0000000000009496 .LASF3709
C:\Users\CYMR90~1\AppData\Local\Temp\ccScBURM.s:25695  .debug_str:000000000001aada .LASF3710
C:\Users\CYMR90~1\AppData\Local\Temp\ccScBURM.s:25283  .debug_str:0000000000018e8a .LASF3711
C:\Users\CYMR90~1\AppData\Local\Temp\ccScBURM.s:29189  .debug_str:000000000002899e .LASF3712
C:\Users\CYMR90~1\AppData\Local\Temp\ccScBURM.s:24969  .debug_str:0000000000017ada .LASF3713
C:\Users\CYMR90~1\AppData\Local\Temp\ccScBURM.s:29111  .debug_str:000000000002845b .LASF3714
C:\Users\CYMR90~1\AppData\Local\Temp\ccScBURM.s:22594  .debug_str:000000000000e23b .LASF3715
C:\Users\CYMR90~1\AppData\Local\Temp\ccScBURM.s:21086  .debug_str:0000000000007f1d .LASF3716
C:\Users\CYMR90~1\AppData\Local\Temp\ccScBURM.s:30087  .debug_str:000000000002c281 .LASF3717
C:\Users\CYMR90~1\AppData\Local\Temp\ccScBURM.s:24364  .debug_str:00000000000152ec .LASF3718
C:\Users\CYMR90~1\AppData\Local\Temp\ccScBURM.s:26069  .debug_str:000000000001c26f .LASF3719
C:\Users\CYMR90~1\AppData\Local\Temp\ccScBURM.s:25511  .debug_str:0000000000019dca .LASF3720
C:\Users\CYMR90~1\AppData\Local\Temp\ccScBURM.s:28099  .debug_str:00000000000240b5 .LASF3721
C:\Users\CYMR90~1\AppData\Local\Temp\ccScBURM.s:27351  .debug_str:000000000002131b .LASF3722
C:\Users\CYMR90~1\AppData\Local\Temp\ccScBURM.s:21964  .debug_str:000000000000b856 .LASF3723
C:\Users\CYMR90~1\AppData\Local\Temp\ccScBURM.s:25559  .debug_str:000000000001a091 .LASF3724
C:\Users\CYMR90~1\AppData\Local\Temp\ccScBURM.s:19112  .debug_str:00000000000000dc .LASF3725
C:\Users\CYMR90~1\AppData\Local\Temp\ccScBURM.s:23486  .debug_str:0000000000011a07 .LASF3726
C:\Users\CYMR90~1\AppData\Local\Temp\ccScBURM.s:27391  .debug_str:0000000000021582 .LASF3727
C:\Users\CYMR90~1\AppData\Local\Temp\ccScBURM.s:27653  .debug_str:000000000002252e .LASF3728
C:\Users\CYMR90~1\AppData\Local\Temp\ccScBURM.s:24550  .debug_str:0000000000015e34 .LASF3729
C:\Users\CYMR90~1\AppData\Local\Temp\ccScBURM.s:29459  .debug_str:0000000000029a99 .LASF3730
C:\Users\CYMR90~1\AppData\Local\Temp\ccScBURM.s:22196  .debug_str:000000000000c836 .LASF3731
C:\Users\CYMR90~1\AppData\Local\Temp\ccScBURM.s:30263  .debug_str:000000000002ce3f .LASF3732
C:\Users\CYMR90~1\AppData\Local\Temp\ccScBURM.s:27941  .debug_str:0000000000023697 .LASF3733
C:\Users\CYMR90~1\AppData\Local\Temp\ccScBURM.s:28361  .debug_str:00000000000252e3 .LASF3734
C:\Users\CYMR90~1\AppData\Local\Temp\ccScBURM.s:23526  .debug_str:0000000000011d0e .LASF3735
C:\Users\CYMR90~1\AppData\Local\Temp\ccScBURM.s:23882  .debug_str:00000000000134b0 .LASF3736
C:\Users\CYMR90~1\AppData\Local\Temp\ccScBURM.s:19562  .debug_str:0000000000001ccc .LASF3737
C:\Users\CYMR90~1\AppData\Local\Temp\ccScBURM.s:20872  .debug_str:000000000000704f .LASF3738
C:\Users\CYMR90~1\AppData\Local\Temp\ccScBURM.s:29907  .debug_str:000000000002b61d .LASF3739
C:\Users\CYMR90~1\AppData\Local\Temp\ccScBURM.s:24580  .debug_str:0000000000016062 .LASF3740
C:\Users\CYMR90~1\AppData\Local\Temp\ccScBURM.s:25371  .debug_str:00000000000194ba .LASF3741
C:\Users\CYMR90~1\AppData\Local\Temp\ccScBURM.s:22470  .debug_str:000000000000da99 .LASF3742
C:\Users\CYMR90~1\AppData\Local\Temp\ccScBURM.s:23730  .debug_str:0000000000012a2d .LASF3743
C:\Users\CYMR90~1\AppData\Local\Temp\ccScBURM.s:19340  .debug_str:0000000000000f49 .LASF3744
C:\Users\CYMR90~1\AppData\Local\Temp\ccScBURM.s:25641  .debug_str:000000000001a721 .LASF3745
C:\Users\CYMR90~1\AppData\Local\Temp\ccScBURM.s:20162  .debug_str:0000000000004361 .LASF3746
C:\Users\CYMR90~1\AppData\Local\Temp\ccScBURM.s:25881  .debug_str:000000000001b6dd .LASF3747
C:\Users\CYMR90~1\AppData\Local\Temp\ccScBURM.s:20424  .debug_str:000000000000546a .LASF3748
C:\Users\CYMR90~1\AppData\Local\Temp\ccScBURM.s:21520  .debug_str:0000000000009b3f .LASF3749
C:\Users\CYMR90~1\AppData\Local\Temp\ccScBURM.s:20694  .debug_str:00000000000064f4 .LASF3750
C:\Users\CYMR90~1\AppData\Local\Temp\ccScBURM.s:26387  .debug_str:000000000001d7dd .LASF3751
C:\Users\CYMR90~1\AppData\Local\Temp\ccScBURM.s:28839  .debug_str:00000000000271f6 .LASF3752
C:\Users\CYMR90~1\AppData\Local\Temp\ccScBURM.s:27587  .debug_str:0000000000022188 .LASF3753
C:\Users\CYMR90~1\AppData\Local\Temp\ccScBURM.s:20730  .debug_str:0000000000006713 .LASF3754
C:\Users\CYMR90~1\AppData\Local\Temp\ccScBURM.s:29469  .debug_str:0000000000029b46 .LASF3755
C:\Users\CYMR90~1\AppData\Local\Temp\ccScBURM.s:26843  .debug_str:000000000001f3ef .LASF3756
C:\Users\CYMR90~1\AppData\Local\Temp\ccScBURM.s:22784  .debug_str:000000000000ee07 .LASF3757
C:\Users\CYMR90~1\AppData\Local\Temp\ccScBURM.s:21786  .debug_str:000000000000ac02 .LASF3758
C:\Users\CYMR90~1\AppData\Local\Temp\ccScBURM.s:19202  .debug_str:000000000000060d .LASF3759
C:\Users\CYMR90~1\AppData\Local\Temp\ccScBURM.s:23026  .debug_str:000000000000fcfe .LASF3760
C:\Users\CYMR90~1\AppData\Local\Temp\ccScBURM.s:21970  .debug_str:000000000000b8ac .LASF3761
C:\Users\CYMR90~1\AppData\Local\Temp\ccScBURM.s:22738  .debug_str:000000000000eb5a .LASF3762
C:\Users\CYMR90~1\AppData\Local\Temp\ccScBURM.s:20908  .debug_str:000000000000731e .LASF3763
C:\Users\CYMR90~1\AppData\Local\Temp\ccScBURM.s:28905  .debug_str:00000000000275ad .LASF3764
C:\Users\CYMR90~1\AppData\Local\Temp\ccScBURM.s:26311  .debug_str:000000000001d2f1 .LASF3765
C:\Users\CYMR90~1\AppData\Local\Temp\ccScBURM.s:23826  .debug_str:0000000000013074 .LASF3766
C:\Users\CYMR90~1\AppData\Local\Temp\ccScBURM.s:25895  .debug_str:000000000001b7d8 .LASF3767
C:\Users\CYMR90~1\AppData\Local\Temp\ccScBURM.s:29869  .debug_str:000000000002b3a5 .LASF3768
C:\Users\CYMR90~1\AppData\Local\Temp\ccScBURM.s:23164  .debug_str:0000000000010572 .LASF3769
C:\Users\CYMR90~1\AppData\Local\Temp\ccScBURM.s:29141  .debug_str:0000000000028696 .LASF3770
C:\Users\CYMR90~1\AppData\Local\Temp\ccScBURM.s:22176  .debug_str:000000000000c701 .LASF3771
C:\Users\CYMR90~1\AppData\Local\Temp\ccScBURM.s:19644  .debug_str:000000000000214c .LASF3772
C:\Users\CYMR90~1\AppData\Local\Temp\ccScBURM.s:23322  .debug_str:0000000000010f5b .LASF3773
C:\Users\CYMR90~1\AppData\Local\Temp\ccScBURM.s:23064  .debug_str:000000000000ff63 .LASF3774
C:\Users\CYMR90~1\AppData\Local\Temp\ccScBURM.s:23272  .debug_str:0000000000010c36 .LASF3775
C:\Users\CYMR90~1\AppData\Local\Temp\ccScBURM.s:27567  .debug_str:0000000000022047 .LASF3776
C:\Users\CYMR90~1\AppData\Local\Temp\ccScBURM.s:23942  .debug_str:0000000000013861 .LASF3777
C:\Users\CYMR90~1\AppData\Local\Temp\ccScBURM.s:21076  .debug_str:0000000000007e88 .LASF3778
C:\Users\CYMR90~1\AppData\Local\Temp\ccScBURM.s:27795  .debug_str:0000000000022dcf .LASF3779
C:\Users\CYMR90~1\AppData\Local\Temp\ccScBURM.s:29909  .debug_str:000000000002b641 .LASF3780
C:\Users\CYMR90~1\AppData\Local\Temp\ccScBURM.s:29443  .debug_str:00000000000299a3 .LASF3781
C:\Users\CYMR90~1\AppData\Local\Temp\ccScBURM.s:25981  .debug_str:000000000001bcd4 .LASF3782
C:\Users\CYMR90~1\AppData\Local\Temp\ccScBURM.s:20876  .debug_str:0000000000007091 .LASF3783
C:\Users\CYMR90~1\AppData\Local\Temp\ccScBURM.s:20470  .debug_str:0000000000005751 .LASF3784
C:\Users\CYMR90~1\AppData\Local\Temp\ccScBURM.s:20962  .debug_str:000000000000767c .LASF3785
C:\Users\CYMR90~1\AppData\Local\Temp\ccScBURM.s:19942  .debug_str:00000000000034d2 .LASF3786
C:\Users\CYMR90~1\AppData\Local\Temp\ccScBURM.s:28179  .debug_str:0000000000024614 .LASF3787
C:\Users\CYMR90~1\AppData\Local\Temp\ccScBURM.s:23090  .debug_str:00000000000100f0 .LASF3788
C:\Users\CYMR90~1\AppData\Local\Temp\ccScBURM.s:21264  .debug_str:0000000000008b18 .LASF3789
C:\Users\CYMR90~1\AppData\Local\Temp\ccScBURM.s:21372  .debug_str:00000000000091db .LASF3790
C:\Users\CYMR90~1\AppData\Local\Temp\ccScBURM.s:27461  .debug_str:00000000000219a4 .LASF3791
C:\Users\CYMR90~1\AppData\Local\Temp\ccScBURM.s:29381  .debug_str:0000000000029605 .LASF3792
C:\Users\CYMR90~1\AppData\Local\Temp\ccScBURM.s:27707  .debug_str:000000000002285e .LASF3793
C:\Users\CYMR90~1\AppData\Local\Temp\ccScBURM.s:29275  .debug_str:0000000000028ebe .LASF3794
C:\Users\CYMR90~1\AppData\Local\Temp\ccScBURM.s:19232  .debug_str:00000000000007ff .LASF3795
C:\Users\CYMR90~1\AppData\Local\Temp\ccScBURM.s:27535  .debug_str:0000000000021e7f .LASF3796
C:\Users\CYMR90~1\AppData\Local\Temp\ccScBURM.s:24765  .debug_str:0000000000016e42 .LASF3797
C:\Users\CYMR90~1\AppData\Local\Temp\ccScBURM.s:21796  .debug_str:000000000000ac8e .LASF3798
C:\Users\CYMR90~1\AppData\Local\Temp\ccScBURM.s:22350  .debug_str:000000000000d2fa .LASF3799
C:\Users\CYMR90~1\AppData\Local\Temp\ccScBURM.s:20862  .debug_str:0000000000006fa0 .LASF3800
C:\Users\CYMR90~1\AppData\Local\Temp\ccScBURM.s:24382  .debug_str:00000000000153d1 .LASF3801
C:\Users\CYMR90~1\AppData\Local\Temp\ccScBURM.s:22222  .debug_str:000000000000ca80 .LASF3802
C:\Users\CYMR90~1\AppData\Local\Temp\ccScBURM.s:27815  .debug_str:0000000000022f01 .LASF3803
C:\Users\CYMR90~1\AppData\Local\Temp\ccScBURM.s:25791  .debug_str:000000000001b130 .LASF3804
C:\Users\CYMR90~1\AppData\Local\Temp\ccScBURM.s:27749  .debug_str:0000000000022b4a .LASF3805
C:\Users\CYMR90~1\AppData\Local\Temp\ccScBURM.s:24909  .debug_str:00000000000176fa .LASF3806
C:\Users\CYMR90~1\AppData\Local\Temp\ccScBURM.s:22656  .debug_str:000000000000e5db .LASF3807
C:\Users\CYMR90~1\AppData\Local\Temp\ccScBURM.s:26813  .debug_str:000000000001f1e5 .LASF3808
C:\Users\CYMR90~1\AppData\Local\Temp\ccScBURM.s:21850  .debug_str:000000000000b0c5 .LASF3809
C:\Users\CYMR90~1\AppData\Local\Temp\ccScBURM.s:24098  .debug_str:0000000000014230 .LASF3810
C:\Users\CYMR90~1\AppData\Local\Temp\ccScBURM.s:25047  .debug_str:0000000000017f86 .LASF3811
C:\Users\CYMR90~1\AppData\Local\Temp\ccScBURM.s:28729  .debug_str:0000000000026a73 .LASF3812
C:\Users\CYMR90~1\AppData\Local\Temp\ccScBURM.s:21644  .debug_str:000000000000a301 .LASF3813
C:\Users\CYMR90~1\AppData\Local\Temp\ccScBURM.s:20394  .debug_str:00000000000052a1 .LASF3814
C:\Users\CYMR90~1\AppData\Local\Temp\ccScBURM.s:25341  .debug_str:00000000000192c3 .LASF3815
C:\Users\CYMR90~1\AppData\Local\Temp\ccScBURM.s:21894  .debug_str:000000000000b33f .LASF3816
C:\Users\CYMR90~1\AppData\Local\Temp\ccScBURM.s:22626  .debug_str:000000000000e42e .LASF3817
C:\Users\CYMR90~1\AppData\Local\Temp\ccScBURM.s:30007  .debug_str:000000000002bcf3 .LASF3818
C:\Users\CYMR90~1\AppData\Local\Temp\ccScBURM.s:29855  .debug_str:000000000002b2a7 .LASF3819
C:\Users\CYMR90~1\AppData\Local\Temp\ccScBURM.s:22490  .debug_str:000000000000dbe1 .LASF3820
C:\Users\CYMR90~1\AppData\Local\Temp\ccScBURM.s:20478  .debug_str:00000000000057c0 .LASF3821
C:\Users\CYMR90~1\AppData\Local\Temp\ccScBURM.s:29501  .debug_str:0000000000029d09 .LASF3822
C:\Users\CYMR90~1\AppData\Local\Temp\ccScBURM.s:27263  .debug_str:0000000000020da4 .LASF3823
C:\Users\CYMR90~1\AppData\Local\Temp\ccScBURM.s:27181  .debug_str:00000000000208b9 .LASF3824
C:\Users\CYMR90~1\AppData\Local\Temp\ccScBURM.s:24498  .debug_str:0000000000015a8f .LASF3825
C:\Users\CYMR90~1\AppData\Local\Temp\ccScBURM.s:20576  .debug_str:0000000000005dc6 .LASF3826
C:\Users\CYMR90~1\AppData\Local\Temp\ccScBURM.s:23986  .debug_str:0000000000013b17 .LASF3827
C:\Users\CYMR90~1\AppData\Local\Temp\ccScBURM.s:27453  .debug_str:000000000002192a .LASF3828
C:\Users\CYMR90~1\AppData\Local\Temp\ccScBURM.s:28541  .debug_str:0000000000025f14 .LASF3829
C:\Users\CYMR90~1\AppData\Local\Temp\ccScBURM.s:20310  .debug_str:0000000000004d99 .LASF3830
C:\Users\CYMR90~1\AppData\Local\Temp\ccScBURM.s:28025  .debug_str:0000000000023b4e .LASF3831
C:\Users\CYMR90~1\AppData\Local\Temp\ccScBURM.s:27185  .debug_str:0000000000020909 .LASF3832
C:\Users\CYMR90~1\AppData\Local\Temp\ccScBURM.s:29651  .debug_str:000000000002a634 .LASF3833
C:\Users\CYMR90~1\AppData\Local\Temp\ccScBURM.s:22760  .debug_str:000000000000ecb4 .LASF3834
C:\Users\CYMR90~1\AppData\Local\Temp\ccScBURM.s:20490  .debug_str:0000000000005862 .LASF3835
C:\Users\CYMR90~1\AppData\Local\Temp\ccScBURM.s:22128  .debug_str:000000000000c3fb .LASF3836
C:\Users\CYMR90~1\AppData\Local\Temp\ccScBURM.s:27275  .debug_str:0000000000020e46 .LASF3837
C:\Users\CYMR90~1\AppData\Local\Temp\ccScBURM.s:25149  .debug_str:0000000000018595 .LASF3838
C:\Users\CYMR90~1\AppData\Local\Temp\ccScBURM.s:26227  .debug_str:000000000001cce0 .LASF3839
C:\Users\CYMR90~1\AppData\Local\Temp\ccScBURM.s:29249  .debug_str:0000000000028d33 .LASF3840
C:\Users\CYMR90~1\AppData\Local\Temp\ccScBURM.s:27099  .debug_str:0000000000020355 .LASF3841
C:\Users\CYMR90~1\AppData\Local\Temp\ccScBURM.s:30175  .debug_str:000000000002c86b .LASF3842
C:\Users\CYMR90~1\AppData\Local\Temp\ccScBURM.s:19986  .debug_str:00000000000037b7 .LASF3843
C:\Users\CYMR90~1\AppData\Local\Temp\ccScBURM.s:28343  .debug_str:00000000000251c8 .LASF3844
C:\Users\CYMR90~1\AppData\Local\Temp\ccScBURM.s:19358  .debug_str:000000000000102b .LASF3845
C:\Users\CYMR90~1\AppData\Local\Temp\ccScBURM.s:26391  .debug_str:000000000001d824 .LASF3846
C:\Users\CYMR90~1\AppData\Local\Temp\ccScBURM.s:23860  .debug_str:0000000000013297 .LASF3847
C:\Users\CYMR90~1\AppData\Local\Temp\ccScBURM.s:30257  .debug_str:000000000002cdf1 .LASF3848
C:\Users\CYMR90~1\AppData\Local\Temp\ccScBURM.s:19778  .debug_str:00000000000029d9 .LASF3849
C:\Users\CYMR90~1\AppData\Local\Temp\ccScBURM.s:28787  .debug_str:0000000000026e1a .LASF3850
C:\Users\CYMR90~1\AppData\Local\Temp\ccScBURM.s:23716  .debug_str:0000000000012929 .LASF3851
C:\Users\CYMR90~1\AppData\Local\Temp\ccScBURM.s:27089  .debug_str:0000000000020265 .LASF3852
C:\Users\CYMR90~1\AppData\Local\Temp\ccScBURM.s:27229  .debug_str:0000000000020bb6 .LASF3853
C:\Users\CYMR90~1\AppData\Local\Temp\ccScBURM.s:19316  .debug_str:0000000000000d48 .LASF3854
C:\Users\CYMR90~1\AppData\Local\Temp\ccScBURM.s:26451  .debug_str:000000000001dba9 .LASF3855
C:\Users\CYMR90~1\AppData\Local\Temp\ccScBURM.s:19414  .debug_str:0000000000001358 .LASF3856
C:\Users\CYMR90~1\AppData\Local\Temp\ccScBURM.s:29041  .debug_str:0000000000027f3c .LASF3857
C:\Users\CYMR90~1\AppData\Local\Temp\ccScBURM.s:23622  .debug_str:00000000000122f2 .LASF3858
C:\Users\CYMR90~1\AppData\Local\Temp\ccScBURM.s:26589  .debug_str:000000000001e463 .LASF3859
C:\Users\CYMR90~1\AppData\Local\Temp\ccScBURM.s:25509  .debug_str:0000000000019d9a .LASF3860
C:\Users\CYMR90~1\AppData\Local\Temp\ccScBURM.s:24274  .debug_str:0000000000014d29 .LASF3861
C:\Users\CYMR90~1\AppData\Local\Temp\ccScBURM.s:23112  .debug_str:000000000001027b .LASF3862
C:\Users\CYMR90~1\AppData\Local\Temp\ccScBURM.s:29897  .debug_str:000000000002b54e .LASF3863
C:\Users\CYMR90~1\AppData\Local\Temp\ccScBURM.s:28259  .debug_str:0000000000024b61 .LASF3864
C:\Users\CYMR90~1\AppData\Local\Temp\ccScBURM.s:19524  .debug_str:0000000000001a7e .LASF3865
C:\Users\CYMR90~1\AppData\Local\Temp\ccScBURM.s:29029  .debug_str:0000000000027e18 .LASF3866
C:\Users\CYMR90~1\AppData\Local\Temp\ccScBURM.s:29267  .debug_str:0000000000028e25 .LASF3867
C:\Users\CYMR90~1\AppData\Local\Temp\ccScBURM.s:22308  .debug_str:000000000000d00c .LASF3868
C:\Users\CYMR90~1\AppData\Local\Temp\ccScBURM.s:30125  .debug_str:000000000002c518 .LASF3869
C:\Users\CYMR90~1\AppData\Local\Temp\ccScBURM.s:21740  .debug_str:000000000000a903 .LASF3870
C:\Users\CYMR90~1\AppData\Local\Temp\ccScBURM.s:28275  .debug_str:0000000000024c84 .LASF3871
C:\Users\CYMR90~1\AppData\Local\Temp\ccScBURM.s:21602  .debug_str:000000000000a05e .LASF3872
C:\Users\CYMR90~1\AppData\Local\Temp\ccScBURM.s:27335  .debug_str:0000000000021182 .LASF3873
C:\Users\CYMR90~1\AppData\Local\Temp\ccScBURM.s:19814  .debug_str:0000000000002c24 .LASF3874
C:\Users\CYMR90~1\AppData\Local\Temp\ccScBURM.s:25527  .debug_str:0000000000019eb3 .LASF3875
C:\Users\CYMR90~1\AppData\Local\Temp\ccScBURM.s:22406  .debug_str:000000000000d6ff .LASF3876
C:\Users\CYMR90~1\AppData\Local\Temp\ccScBURM.s:20528  .debug_str:0000000000005ac8 .LASF3877
C:\Users\CYMR90~1\AppData\Local\Temp\ccScBURM.s:28947  .debug_str:0000000000027868 .LASF3878
C:\Users\CYMR90~1\AppData\Local\Temp\ccScBURM.s:22888  .debug_str:000000000000f428 .LASF3879
C:\Users\CYMR90~1\AppData\Local\Temp\ccScBURM.s:22086  .debug_str:000000000000c154 .LASF3880
C:\Users\CYMR90~1\AppData\Local\Temp\ccScBURM.s:21904  .debug_str:000000000000b3c9 .LASF3881
C:\Users\CYMR90~1\AppData\Local\Temp\ccScBURM.s:19262  .debug_str:00000000000009cf .LASF3882
C:\Users\CYMR90~1\AppData\Local\Temp\ccScBURM.s:23522  .debug_str:0000000000011cc7 .LASF3883
C:\Users\CYMR90~1\AppData\Local\Temp\ccScBURM.s:27745  .debug_str:0000000000022b06 .LASF3884
C:\Users\CYMR90~1\AppData\Local\Temp\ccScBURM.s:20676  .debug_str:00000000000063cc .LASF3885
C:\Users\CYMR90~1\AppData\Local\Temp\ccScBURM.s:22008  .debug_str:000000000000bb2a .LASF3886
C:\Users\CYMR90~1\AppData\Local\Temp\ccScBURM.s:23102  .debug_str:00000000000101d2 .LASF3887
C:\Users\CYMR90~1\AppData\Local\Temp\ccScBURM.s:27311  .debug_str:0000000000021018 .LASF3888
C:\Users\CYMR90~1\AppData\Local\Temp\ccScBURM.s:20320  .debug_str:0000000000004e43 .LASF3889
C:\Users\CYMR90~1\AppData\Local\Temp\ccScBURM.s:24480  .debug_str:0000000000015968 .LASF3890
C:\Users\CYMR90~1\AppData\Local\Temp\ccScBURM.s:28747  .debug_str:0000000000026b83 .LASF3891
C:\Users\CYMR90~1\AppData\Local\Temp\ccScBURM.s:21782  .debug_str:000000000000abb6 .LASF3892
C:\Users\CYMR90~1\AppData\Local\Temp\ccScBURM.s:24074  .debug_str:000000000001404d .LASF3893
C:\Users\CYMR90~1\AppData\Local\Temp\ccScBURM.s:26479  .debug_str:000000000001ddea .LASF3894
C:\Users\CYMR90~1\AppData\Local\Temp\ccScBURM.s:22288  .debug_str:000000000000cea3 .LASF3895
C:\Users\CYMR90~1\AppData\Local\Temp\ccScBURM.s:27497  .debug_str:0000000000021c08 .LASF3896
C:\Users\CYMR90~1\AppData\Local\Temp\ccScBURM.s:20524  .debug_str:0000000000005a70 .LASF3897
C:\Users\CYMR90~1\AppData\Local\Temp\ccScBURM.s:29853  .debug_str:000000000002b275 .LASF3898
C:\Users\CYMR90~1\AppData\Local\Temp\ccScBURM.s:22882  .debug_str:000000000000f3a5 .LASF3899
C:\Users\CYMR90~1\AppData\Local\Temp\ccScBURM.s:26999  .debug_str:000000000001fd41 .LASF3900
C:\Users\CYMR90~1\AppData\Local\Temp\ccScBURM.s:20030  .debug_str:0000000000003ab5 .LASF3901
C:\Users\CYMR90~1\AppData\Local\Temp\ccScBURM.s:22958  .debug_str:000000000000f8ea .LASF3902
C:\Users\CYMR90~1\AppData\Local\Temp\ccScBURM.s:28059  .debug_str:0000000000023d75 .LASF3903
C:\Users\CYMR90~1\AppData\Local\Temp\ccScBURM.s:21488  .debug_str:0000000000009934 .LASF3904
C:\Users\CYMR90~1\AppData\Local\Temp\ccScBURM.s:25749  .debug_str:000000000001ae1a .LASF3905
C:\Users\CYMR90~1\AppData\Local\Temp\ccScBURM.s:20132  .debug_str:0000000000004108 .LASF3906
C:\Users\CYMR90~1\AppData\Local\Temp\ccScBURM.s:28097  .debug_str:0000000000024083 .LASF3907
C:\Users\CYMR90~1\AppData\Local\Temp\ccScBURM.s:21130  .debug_str:0000000000008296 .LASF3908
C:\Users\CYMR90~1\AppData\Local\Temp\ccScBURM.s:22728  .debug_str:000000000000ea86 .LASF3909
C:\Users\CYMR90~1\AppData\Local\Temp\ccScBURM.s:29533  .debug_str:0000000000029ed7 .LASF3910
C:\Users\CYMR90~1\AppData\Local\Temp\ccScBURM.s:20960  .debug_str:000000000000764a .LASF3911
C:\Users\CYMR90~1\AppData\Local\Temp\ccScBURM.s:26873  .debug_str:000000000001f579 .LASF3912
C:\Users\CYMR90~1\AppData\Local\Temp\ccScBURM.s:19738  .debug_str:0000000000002748 .LASF3913
C:\Users\CYMR90~1\AppData\Local\Temp\ccScBURM.s:25081  .debug_str:0000000000018182 .LASF3914
C:\Users\CYMR90~1\AppData\Local\Temp\ccScBURM.s:28227  .debug_str:0000000000024958 .LASF3915
C:\Users\CYMR90~1\AppData\Local\Temp\ccScBURM.s:21138  .debug_str:0000000000008313 .LASF3916
C:\Users\CYMR90~1\AppData\Local\Temp\ccScBURM.s:28497  .debug_str:0000000000025c34 .LASF3917
C:\Users\CYMR90~1\AppData\Local\Temp\ccScBURM.s:23662  .debug_str:00000000000125a5 .LASF3918
C:\Users\CYMR90~1\AppData\Local\Temp\ccScBURM.s:27801  .debug_str:0000000000022e2a .LASF3919
C:\Users\CYMR90~1\AppData\Local\Temp\ccScBURM.s:20814  .debug_str:0000000000006c75 .LASF3920
C:\Users\CYMR90~1\AppData\Local\Temp\ccScBURM.s:23706  .debug_str:0000000000012869 .LASF3921
C:\Users\CYMR90~1\AppData\Local\Temp\ccScBURM.s:27001  .debug_str:000000000001fd73 .LASF3922
C:\Users\CYMR90~1\AppData\Local\Temp\ccScBURM.s:23626  .debug_str:0000000000012359 .LASF3923
C:\Users\CYMR90~1\AppData\Local\Temp\ccScBURM.s:28533  .debug_str:0000000000025e9e .LASF3924
C:\Users\CYMR90~1\AppData\Local\Temp\ccScBURM.s:20018  .debug_str:00000000000039c8 .LASF3925
C:\Users\CYMR90~1\AppData\Local\Temp\ccScBURM.s:28471  .debug_str:0000000000025aac .LASF3926
C:\Users\CYMR90~1\AppData\Local\Temp\ccScBURM.s:22674  .debug_str:000000000000e6f0 .LASF3927
C:\Users\CYMR90~1\AppData\Local\Temp\ccScBURM.s:28105  .debug_str:000000000002412c .LASF3928
C:\Users\CYMR90~1\AppData\Local\Temp\ccScBURM.s:24494  .debug_str:0000000000015a3e .LASF3929
C:\Users\CYMR90~1\AppData\Local\Temp\ccScBURM.s:24921  .debug_str:00000000000177b4 .LASF3930
C:\Users\CYMR90~1\AppData\Local\Temp\ccScBURM.s:21962  .debug_str:000000000000b834 .LASF3931
C:\Users\CYMR90~1\AppData\Local\Temp\ccScBURM.s:24282  .debug_str:0000000000014db2 .LASF3932
C:\Users\CYMR90~1\AppData\Local\Temp\ccScBURM.s:27209  .debug_str:0000000000020a60 .LASF3933
C:\Users\CYMR90~1\AppData\Local\Temp\ccScBURM.s:24306  .debug_str:0000000000014f67 .LASF3934
C:\Users\CYMR90~1\AppData\Local\Temp\ccScBURM.s:28565  .debug_str:000000000002609d .LASF3935
C:\Users\CYMR90~1\AppData\Local\Temp\ccScBURM.s:25365  .debug_str:0000000000019448 .LASF3936
C:\Users\CYMR90~1\AppData\Local\Temp\ccScBURM.s:23378  .debug_str:00000000000112a7 .LASF3937
C:\Users\CYMR90~1\AppData\Local\Temp\ccScBURM.s:21052  .debug_str:0000000000007c50 .LASF3938
C:\Users\CYMR90~1\AppData\Local\Temp\ccScBURM.s:19426  .debug_str:0000000000001425 .LASF3939
C:\Users\CYMR90~1\AppData\Local\Temp\ccScBURM.s:19114  .debug_str:00000000000000ff .LASF3940
C:\Users\CYMR90~1\AppData\Local\Temp\ccScBURM.s:23936  .debug_str:0000000000013820 .LASF3941
C:\Users\CYMR90~1\AppData\Local\Temp\ccScBURM.s:20448  .debug_str:00000000000055ec .LASF3942
C:\Users\CYMR90~1\AppData\Local\Temp\ccScBURM.s:25179  .debug_str:0000000000018745 .LASF3943
C:\Users\CYMR90~1\AppData\Local\Temp\ccScBURM.s:22570  .debug_str:000000000000e0dc .LASF3944
C:\Users\CYMR90~1\AppData\Local\Temp\ccScBURM.s:21610  .debug_str:000000000000a0f8 .LASF3945
C:\Users\CYMR90~1\AppData\Local\Temp\ccScBURM.s:23058  .debug_str:000000000000fef5 .LASF3946
C:\Users\CYMR90~1\AppData\Local\Temp\ccScBURM.s:24887  .debug_str:0000000000017595 .LASF3947
C:\Users\CYMR90~1\AppData\Local\Temp\ccScBURM.s:24342  .debug_str:0000000000015171 .LASF3948
C:\Users\CYMR90~1\AppData\Local\Temp\ccScBURM.s:23744  .debug_str:0000000000012b38 .LASF3949
C:\Users\CYMR90~1\AppData\Local\Temp\ccScBURM.s:26063  .debug_str:000000000001c225 .LASF3950
C:\Users\CYMR90~1\AppData\Local\Temp\ccScBURM.s:22678  .debug_str:000000000000e76f .LASF3951
C:\Users\CYMR90~1\AppData\Local\Temp\ccScBURM.s:19300  .debug_str:0000000000000c6c .LASF3952
C:\Users\CYMR90~1\AppData\Local\Temp\ccScBURM.s:29273  .debug_str:0000000000028e9a .LASF3953
C:\Users\CYMR90~1\AppData\Local\Temp\ccScBURM.s:23808  .debug_str:0000000000012f39 .LASF3954
C:\Users\CYMR90~1\AppData\Local\Temp\ccScBURM.s:26403  .debug_str:000000000001d8de .LASF3955
C:\Users\CYMR90~1\AppData\Local\Temp\ccScBURM.s:19680  .debug_str:0000000000002378 .LASF3956
C:\Users\CYMR90~1\AppData\Local\Temp\ccScBURM.s:19590  .debug_str:0000000000001ea0 .LASF3957
C:\Users\CYMR90~1\AppData\Local\Temp\ccScBURM.s:28337  .debug_str:0000000000025161 .LASF3958
C:\Users\CYMR90~1\AppData\Local\Temp\ccScBURM.s:28119  .debug_str:000000000002423f .LASF3959
C:\Users\CYMR90~1\AppData\Local\Temp\ccScBURM.s:24759  .debug_str:0000000000016def .LASF3960
C:\Users\CYMR90~1\AppData\Local\Temp\ccScBURM.s:24080  .debug_str:00000000000140dc .LASF3961
C:\Users\CYMR90~1\AppData\Local\Temp\ccScBURM.s:29261  .debug_str:0000000000028de0 .LASF3962
C:\Users\CYMR90~1\AppData\Local\Temp\ccScBURM.s:25891  .debug_str:000000000001b777 .LASF3963
C:\Users\CYMR90~1\AppData\Local\Temp\ccScBURM.s:19816  .debug_str:0000000000002c56 .LASF3964
C:\Users\CYMR90~1\AppData\Local\Temp\ccScBURM.s:29635  .debug_str:000000000002a536 .LASF3965
C:\Users\CYMR90~1\AppData\Local\Temp\ccScBURM.s:29941  .debug_str:000000000002b870 .LASF3966
C:\Users\CYMR90~1\AppData\Local\Temp\ccScBURM.s:21766  .debug_str:000000000000aaa8 .LASF3967
C:\Users\CYMR90~1\AppData\Local\Temp\ccScBURM.s:20318  .debug_str:0000000000004e1f .LASF3968
C:\Users\CYMR90~1\AppData\Local\Temp\ccScBURM.s:30159  .debug_str:000000000002c738 .LASF3969
C:\Users\CYMR90~1\AppData\Local\Temp\ccScBURM.s:23506  .debug_str:0000000000011bc3 .LASF3970
C:\Users\CYMR90~1\AppData\Local\Temp\ccScBURM.s:20108  .debug_str:0000000000003fac .LASF3971
C:\Users\CYMR90~1\AppData\Local\Temp\ccScBURM.s:27985  .debug_str:0000000000023936 .LASF3972
C:\Users\CYMR90~1\AppData\Local\Temp\ccScBURM.s:24598  .debug_str:0000000000016175 .LASF3973
C:\Users\CYMR90~1\AppData\Local\Temp\ccScBURM.s:23072  .debug_str:0000000000010008 .LASF3974
C:\Users\CYMR90~1\AppData\Local\Temp\ccScBURM.s:29121  .debug_str:0000000000028508 .LASF3975
C:\Users\CYMR90~1\AppData\Local\Temp\ccScBURM.s:27145  .debug_str:0000000000020697 .LASF3976
C:\Users\CYMR90~1\AppData\Local\Temp\ccScBURM.s:21096  .debug_str:0000000000007fcd .LASF3977
C:\Users\CYMR90~1\AppData\Local\Temp\ccScBURM.s:28961  .debug_str:0000000000027993 .LASF3978
C:\Users\CYMR90~1\AppData\Local\Temp\ccScBURM.s:25617  .debug_str:000000000001a568 .LASF3979
C:\Users\CYMR90~1\AppData\Local\Temp\ccScBURM.s:22258  .debug_str:000000000000cd1c .LASF3980
C:\Users\CYMR90~1\AppData\Local\Temp\ccScBURM.s:30105  .debug_str:000000000002c3f2 .LASF3981
C:\Users\CYMR90~1\AppData\Local\Temp\ccScBURM.s:20218  .debug_str:0000000000004723 .LASF3982
C:\Users\CYMR90~1\AppData\Local\Temp\ccScBURM.s:23382  .debug_str:00000000000112e2 .LASF3983
C:\Users\CYMR90~1\AppData\Local\Temp\ccScBURM.s:26245  .debug_str:000000000001ce85 .LASF3984
C:\Users\CYMR90~1\AppData\Local\Temp\ccScBURM.s:27847  .debug_str:0000000000023087 .LASF3985
C:\Users\CYMR90~1\AppData\Local\Temp\ccScBURM.s:29195  .debug_str:00000000000289f8 .LASF3986
C:\Users\CYMR90~1\AppData\Local\Temp\ccScBURM.s:19820  .debug_str:0000000000002caf .LASF3987
C:\Users\CYMR90~1\AppData\Local\Temp\ccScBURM.s:23968  .debug_str:0000000000013a01 .LASF3988
C:\Users\CYMR90~1\AppData\Local\Temp\ccScBURM.s:24314  .debug_str:0000000000014fe7 .LASF3989
C:\Users\CYMR90~1\AppData\Local\Temp\ccScBURM.s:20954  .debug_str:00000000000075e5 .LASF3990
C:\Users\CYMR90~1\AppData\Local\Temp\ccScBURM.s:21072  .debug_str:0000000000007e25 .LASF3991
C:\Users\CYMR90~1\AppData\Local\Temp\ccScBURM.s:21068  .debug_str:0000000000007de4 .LASF3992
C:\Users\CYMR90~1\AppData\Local\Temp\ccScBURM.s:22106  .debug_str:000000000000c297 .LASF3993
C:\Users\CYMR90~1\AppData\Local\Temp\ccScBURM.s:29969  .debug_str:000000000002ba57 .LASF3994
C:\Users\CYMR90~1\AppData\Local\Temp\ccScBURM.s:19730  .debug_str:00000000000026a9 .LASF3995
C:\Users\CYMR90~1\AppData\Local\Temp\ccScBURM.s:28005  .debug_str:0000000000023a41 .LASF3996
C:\Users\CYMR90~1\AppData\Local\Temp\ccScBURM.s:29903  .debug_str:000000000002b5da .LASF3997
C:\Users\CYMR90~1\AppData\Local\Temp\ccScBURM.s:26405  .debug_str:000000000001d902 .LASF3998
C:\Users\CYMR90~1\AppData\Local\Temp\ccScBURM.s:23094  .debug_str:0000000000010135 .LASF3999
C:\Users\CYMR90~1\AppData\Local\Temp\ccScBURM.s:19528  .debug_str:0000000000001ac8 .LASF4000
C:\Users\CYMR90~1\AppData\Local\Temp\ccScBURM.s:27549  .debug_str:0000000000021f30 .LASF4001
C:\Users\CYMR90~1\AppData\Local\Temp\ccScBURM.s:24182  .debug_str:0000000000014777 .LASF4002
C:\Users\CYMR90~1\AppData\Local\Temp\ccScBURM.s:22892  .debug_str:000000000000f472 .LASF4003
C:\Users\CYMR90~1\AppData\Local\Temp\ccScBURM.s:25445  .debug_str:00000000000199e7 .LASF4004
C:\Users\CYMR90~1\AppData\Local\Temp\ccScBURM.s:25331  .debug_str:0000000000019233 .LASF4005
C:\Users\CYMR90~1\AppData\Local\Temp\ccScBURM.s:26705  .debug_str:000000000001eb53 .LASF4006
C:\Users\CYMR90~1\AppData\Local\Temp\ccScBURM.s:28613  .debug_str:000000000002636a .LASF4007
C:\Users\CYMR90~1\AppData\Local\Temp\ccScBURM.s:26771  .debug_str:000000000001ef60 .LASF4008
C:\Users\CYMR90~1\AppData\Local\Temp\ccScBURM.s:21424  .debug_str:00000000000094d7 .LASF4009
C:\Users\CYMR90~1\AppData\Local\Temp\ccScBURM.s:29753  .debug_str:000000000002ac3c .LASF4010
C:\Users\CYMR90~1\AppData\Local\Temp\ccScBURM.s:26283  .debug_str:000000000001d16c .LASF4011
C:\Users\CYMR90~1\AppData\Local\Temp\ccScBURM.s:27487  .debug_str:0000000000021b68 .LASF4012
C:\Users\CYMR90~1\AppData\Local\Temp\ccScBURM.s:19536  .debug_str:0000000000001b58 .LASF4013
C:\Users\CYMR90~1\AppData\Local\Temp\ccScBURM.s:27405  .debug_str:0000000000021653 .LASF4014
C:\Users\CYMR90~1\AppData\Local\Temp\ccScBURM.s:24036  .debug_str:0000000000013e13 .LASF4015
C:\Users\CYMR90~1\AppData\Local\Temp\ccScBURM.s:29647  .debug_str:000000000002a5f5 .LASF4016
C:\Users\CYMR90~1\AppData\Local\Temp\ccScBURM.s:27345  .debug_str:000000000002121b .LASF4017
C:\Users\CYMR90~1\AppData\Local\Temp\ccScBURM.s:23982  .debug_str:0000000000013adc .LASF4018
C:\Users\CYMR90~1\AppData\Local\Temp\ccScBURM.s:28629  .debug_str:000000000002647a .LASF4019
C:\Users\CYMR90~1\AppData\Local\Temp\ccScBURM.s:28459  .debug_str:0000000000025a03 .LASF4020
C:\Users\CYMR90~1\AppData\Local\Temp\ccScBURM.s:25105  .debug_str:00000000000182fd .LASF4021
C:\Users\CYMR90~1\AppData\Local\Temp\ccScBURM.s:30211  .debug_str:000000000002caac .LASF4022
C:\Users\CYMR90~1\AppData\Local\Temp\ccScBURM.s:29603  .debug_str:000000000002a309 .LASF4023
C:\Users\CYMR90~1\AppData\Local\Temp\ccScBURM.s:27555  .debug_str:0000000000021f9d .LASF4024
C:\Users\CYMR90~1\AppData\Local\Temp\ccScBURM.s:26421  .debug_str:000000000001d9eb .LASF4025
C:\Users\CYMR90~1\AppData\Local\Temp\ccScBURM.s:20864  .debug_str:0000000000006fe1 .LASF4026
C:\Users\CYMR90~1\AppData\Local\Temp\ccScBURM.s:21006  .debug_str:0000000000007950 .LASF4027
C:\Users\CYMR90~1\AppData\Local\Temp\ccScBURM.s:24989  .debug_str:0000000000017bfe .LASF4028
C:\Users\CYMR90~1\AppData\Local\Temp\ccScBURM.s:28899  .debug_str:000000000002754a .LASF4029
C:\Users\CYMR90~1\AppData\Local\Temp\ccScBURM.s:21586  .debug_str:0000000000009f67 .LASF4030
C:\Users\CYMR90~1\AppData\Local\Temp\ccScBURM.s:30039  .debug_str:000000000002bf5a .LASF4031
C:\Users\CYMR90~1\AppData\Local\Temp\ccScBURM.s:21112  .debug_str:000000000000816d .LASF4032
C:\Users\CYMR90~1\AppData\Local\Temp\ccScBURM.s:23442  .debug_str:00000000000116aa .LASF4033
C:\Users\CYMR90~1\AppData\Local\Temp\ccScBURM.s:25941  .debug_str:000000000001ba28 .LASF4034
C:\Users\CYMR90~1\AppData\Local\Temp\ccScBURM.s:29959  .debug_str:000000000002b9bf .LASF4035
C:\Users\CYMR90~1\AppData\Local\Temp\ccScBURM.s:24122  .debug_str:0000000000014378 .LASF4036
C:\Users\CYMR90~1\AppData\Local\Temp\ccScBURM.s:26533  .debug_str:000000000001e13b .LASF4037
C:\Users\CYMR90~1\AppData\Local\Temp\ccScBURM.s:28831  .debug_str:000000000002716b .LASF4038
C:\Users\CYMR90~1\AppData\Local\Temp\ccScBURM.s:19966  .debug_str:0000000000003650 .LASF4039
C:\Users\CYMR90~1\AppData\Local\Temp\ccScBURM.s:27241  .debug_str:0000000000020c81 .LASF4040
C:\Users\CYMR90~1\AppData\Local\Temp\ccScBURM.s:19876  .debug_str:0000000000003014 .LASF4041
C:\Users\CYMR90~1\AppData\Local\Temp\ccScBURM.s:26879  .debug_str:000000000001f5dd .LASF4042
C:\Users\CYMR90~1\AppData\Local\Temp\ccScBURM.s:29227  .debug_str:0000000000028ba1 .LASF4043
C:\Users\CYMR90~1\AppData\Local\Temp\ccScBURM.s:23762  .debug_str:0000000000012c20 .LASF4044
C:\Users\CYMR90~1\AppData\Local\Temp\ccScBURM.s:22568  .debug_str:000000000000e0b6 .LASF4045
C:\Users\CYMR90~1\AppData\Local\Temp\ccScBURM.s:19628  .debug_str:0000000000002075 .LASF4046
C:\Users\CYMR90~1\AppData\Local\Temp\ccScBURM.s:21136  .debug_str:00000000000082ed .LASF4047
C:\Users\CYMR90~1\AppData\Local\Temp\ccScBURM.s:23468  .debug_str:0000000000011904 .LASF4048
C:\Users\CYMR90~1\AppData\Local\Temp\ccScBURM.s:25357  .debug_str:00000000000193d7 .LASF4049
C:\Users\CYMR90~1\AppData\Local\Temp\ccScBURM.s:23434  .debug_str:0000000000011617 .LASF4050
C:\Users\CYMR90~1\AppData\Local\Temp\ccScBURM.s:19186  .debug_str:0000000000000538 .LASF4051
C:\Users\CYMR90~1\AppData\Local\Temp\ccScBURM.s:25827  .debug_str:000000000001b395 .LASF4052
C:\Users\CYMR90~1\AppData\Local\Temp\ccScBURM.s:29817  .debug_str:000000000002afdf .LASF4053
C:\Users\CYMR90~1\AppData\Local\Temp\ccScBURM.s:22498  .debug_str:000000000000dc44 .LASF4054
C:\Users\CYMR90~1\AppData\Local\Temp\ccScBURM.s:21516  .debug_str:0000000000009b08 .LASF4055
C:\Users\CYMR90~1\AppData\Local\Temp\ccScBURM.s:25393  .debug_str:00000000000195e6 .LASF4056
C:\Users\CYMR90~1\AppData\Local\Temp\ccScBURM.s:21392  .debug_str:0000000000009309 .LASF4057
C:\Users\CYMR90~1\AppData\Local\Temp\ccScBURM.s:25293  .debug_str:0000000000018f35 .LASF4058
C:\Users\CYMR90~1\AppData\Local\Temp\ccScBURM.s:29185  .debug_str:0000000000028964 .LASF4059
C:\Users\CYMR90~1\AppData\Local\Temp\ccScBURM.s:24248  .debug_str:0000000000014b55 .LASF4060
C:\Users\CYMR90~1\AppData\Local\Temp\ccScBURM.s:25783  .debug_str:000000000001b0a0 .LASF4061
C:\Users\CYMR90~1\AppData\Local\Temp\ccScBURM.s:29751  .debug_str:000000000002ac16 .LASF4062
C:\Users\CYMR90~1\AppData\Local\Temp\ccScBURM.s:22436  .debug_str:000000000000d8b1 .LASF4063
C:\Users\CYMR90~1\AppData\Local\Temp\ccScBURM.s:21572  .debug_str:0000000000009e70 .LASF4064
C:\Users\CYMR90~1\AppData\Local\Temp\ccScBURM.s:23894  .debug_str:000000000001356f .LASF4065
C:\Users\CYMR90~1\AppData\Local\Temp\ccScBURM.s:19948  .debug_str:0000000000003534 .LASF4066
C:\Users\CYMR90~1\AppData\Local\Temp\ccScBURM.s:29033  .debug_str:0000000000027ea1 .LASF4067
C:\Users\CYMR90~1\AppData\Local\Temp\ccScBURM.s:19806  .debug_str:0000000000002bab .LASF4068
C:\Users\CYMR90~1\AppData\Local\Temp\ccScBURM.s:21802  .debug_str:000000000000ace6 .LASF4069
C:\Users\CYMR90~1\AppData\Local\Temp\ccScBURM.s:25721  .debug_str:000000000001ac63 .LASF4070
C:\Users\CYMR90~1\AppData\Local\Temp\ccScBURM.s:29679  .debug_str:000000000002a7e7 .LASF4071
C:\Users\CYMR90~1\AppData\Local\Temp\ccScBURM.s:25045  .debug_str:0000000000017f60 .LASF4072
C:\Users\CYMR90~1\AppData\Local\Temp\ccScBURM.s:23864  .debug_str:0000000000013320 .LASF4073
C:\Users\CYMR90~1\AppData\Local\Temp\ccScBURM.s:30161  .debug_str:000000000002c75c .LASF4074
C:\Users\CYMR90~1\AppData\Local\Temp\ccScBURM.s:25321  .debug_str:00000000000191ac .LASF4075
C:\Users\CYMR90~1\AppData\Local\Temp\ccScBURM.s:19912  .debug_str:00000000000032d5 .LASF4076
C:\Users\CYMR90~1\AppData\Local\Temp\ccScBURM.s:29057  .debug_str:0000000000028050 .LASF4077
C:\Users\CYMR90~1\AppData\Local\Temp\ccScBURM.s:29623  .debug_str:000000000002a489 .LASF4078
C:\Users\CYMR90~1\AppData\Local\Temp\ccScBURM.s:27009  .debug_str:000000000001fdfd .LASF4079
C:\Users\CYMR90~1\AppData\Local\Temp\ccScBURM.s:29613  .debug_str:000000000002a3b2 .LASF4080
C:\Users\CYMR90~1\AppData\Local\Temp\ccScBURM.s:22310  .debug_str:000000000000d03e .LASF4081
C:\Users\CYMR90~1\AppData\Local\Temp\ccScBURM.s:26179  .debug_str:000000000001c9d4 .LASF4082
C:\Users\CYMR90~1\AppData\Local\Temp\ccScBURM.s:30101  .debug_str:000000000002c3a5 .LASF4083
C:\Users\CYMR90~1\AppData\Local\Temp\ccScBURM.s:21114  .debug_str:0000000000008193 .LASF4084
C:\Users\CYMR90~1\AppData\Local\Temp\ccScBURM.s:24238  .debug_str:0000000000014ad4 .LASF4085
C:\Users\CYMR90~1\AppData\Local\Temp\ccScBURM.s:23776  .debug_str:0000000000012d27 .LASF4086
C:\Users\CYMR90~1\AppData\Local\Temp\ccScBURM.s:21672  .debug_str:000000000000a503 .LASF4087
C:\Users\CYMR90~1\AppData\Local\Temp\ccScBURM.s:25577  .debug_str:000000000001a18e .LASF4088
C:\Users\CYMR90~1\AppData\Local\Temp\ccScBURM.s:23104  .debug_str:0000000000010204 .LASF4089
C:\Users\CYMR90~1\AppData\Local\Temp\ccScBURM.s:25953  .debug_str:000000000001bb10 .LASF4090
C:\Users\CYMR90~1\AppData\Local\Temp\ccScBURM.s:26109  .debug_str:000000000001c494 .LASF4091
C:\Users\CYMR90~1\AppData\Local\Temp\ccScBURM.s:27407  .debug_str:0000000000021677 .LASF4092
C:\Users\CYMR90~1\AppData\Local\Temp\ccScBURM.s:22710  .debug_str:000000000000e967 .LASF4093
C:\Users\CYMR90~1\AppData\Local\Temp\ccScBURM.s:26559  .debug_str:000000000001e2a1 .LASF4094
C:\Users\CYMR90~1\AppData\Local\Temp\ccScBURM.s:19274  .debug_str:0000000000000ae0 .LASF4095
C:\Users\CYMR90~1\AppData\Local\Temp\ccScBURM.s:26115  .debug_str:000000000001c4f2 .LASF4096
C:\Users\CYMR90~1\AppData\Local\Temp\ccScBURM.s:27675  .debug_str:0000000000022686 .LASF4097
C:\Users\CYMR90~1\AppData\Local\Temp\ccScBURM.s:29483  .debug_str:0000000000029c10 .LASF4098
C:\Users\CYMR90~1\AppData\Local\Temp\ccScBURM.s:22172  .debug_str:000000000000c6bf .LASF4099
C:\Users\CYMR90~1\AppData\Local\Temp\ccScBURM.s:24258  .debug_str:0000000000014bfb .LASF4100
C:\Users\CYMR90~1\AppData\Local\Temp\ccScBURM.s:29973  .debug_str:000000000002ba93 .LASF4101
C:\Users\CYMR90~1\AppData\Local\Temp\ccScBURM.s:26587  .debug_str:000000000001e43d .LASF4102
C:\Users\CYMR90~1\AppData\Local\Temp\ccScBURM.s:26495  .debug_str:000000000001df06 .LASF4103
C:\Users\CYMR90~1\AppData\Local\Temp\ccScBURM.s:19216  .debug_str:0000000000000706 .LASF4104
C:\Users\CYMR90~1\AppData\Local\Temp\ccScBURM.s:30149  .debug_str:000000000002c679 .LASF4105
C:\Users\CYMR90~1\AppData\Local\Temp\ccScBURM.s:20184  .debug_str:00000000000044d3 .LASF4106
C:\Users\CYMR90~1\AppData\Local\Temp\ccScBURM.s:29419  .debug_str:0000000000029835 .LASF4107
C:\Users\CYMR90~1\AppData\Local\Temp\ccScBURM.s:25455  .debug_str:0000000000019a77 .LASF4108
C:\Users\CYMR90~1\AppData\Local\Temp\ccScBURM.s:27757  .debug_str:0000000000022ba8 .LASF4109
C:\Users\CYMR90~1\AppData\Local\Temp\ccScBURM.s:29917  .debug_str:000000000002b6c3 .LASF4110
C:\Users\CYMR90~1\AppData\Local\Temp\ccScBURM.s:22590  .debug_str:000000000000e1e9 .LASF4111
C:\Users\CYMR90~1\AppData\Local\Temp\ccScBURM.s:20472  .debug_str:0000000000005773 .LASF4112
C:\Users\CYMR90~1\AppData\Local\Temp\ccScBURM.s:19148  .debug_str:0000000000000321 .LASF4113
C:\Users\CYMR90~1\AppData\Local\Temp\ccScBURM.s:23642  .debug_str:000000000001244e .LASF4114
C:\Users\CYMR90~1\AppData\Local\Temp\ccScBURM.s:20060  .debug_str:0000000000003c59 .LASF4115
C:\Users\CYMR90~1\AppData\Local\Temp\ccScBURM.s:24110  .debug_str:00000000000142c5 .LASF4116
C:\Users\CYMR90~1\AppData\Local\Temp\ccScBURM.s:22044  .debug_str:000000000000beb3 .LASF4117
C:\Users\CYMR90~1\AppData\Local\Temp\ccScBURM.s:19428  .debug_str:0000000000001449 .LASF4118
C:\Users\CYMR90~1\AppData\Local\Temp\ccScBURM.s:29841  .debug_str:000000000002b1c0 .LASF4119
C:\Users\CYMR90~1\AppData\Local\Temp\ccScBURM.s:26757  .debug_str:000000000001ee74 .LASF4120
C:\Users\CYMR90~1\AppData\Local\Temp\ccScBURM.s:26939  .debug_str:000000000001f97f .LASF4121
C:\Users\CYMR90~1\AppData\Local\Temp\ccScBURM.s:30299  .debug_str:000000000002d078 .LASF4122
C:\Users\CYMR90~1\AppData\Local\Temp\ccScBURM.s:19422  .debug_str:00000000000013ed .LASF4123
C:\Users\CYMR90~1\AppData\Local\Temp\ccScBURM.s:23574  .debug_str:0000000000011fd7 .LASF4124
C:\Users\CYMR90~1\AppData\Local\Temp\ccScBURM.s:25877  .debug_str:000000000001b69f .LASF4125
C:\Users\CYMR90~1\AppData\Local\Temp\ccScBURM.s:28519  .debug_str:0000000000025d84 .LASF4126
C:\Users\CYMR90~1\AppData\Local\Temp\ccScBURM.s:24284  .debug_str:0000000000014dd4 .LASF4127
C:\Users\CYMR90~1\AppData\Local\Temp\ccScBURM.s:27483  .debug_str:0000000000021b28 .LASF4128
C:\Users\CYMR90~1\AppData\Local\Temp\ccScBURM.s:19868  .debug_str:0000000000002faa .LASF4129
C:\Users\CYMR90~1\AppData\Local\Temp\ccScBURM.s:21178  .debug_str:00000000000085bd .LASF4130
C:\Users\CYMR90~1\AppData\Local\Temp\ccScBURM.s:25075  .debug_str:0000000000018125 .LASF4131
C:\Users\CYMR90~1\AppData\Local\Temp\ccScBURM.s:28979  .debug_str:0000000000027ac5 .LASF4132
C:\Users\CYMR90~1\AppData\Local\Temp\ccScBURM.s:28971  .debug_str:0000000000027a3b .LASF4133
C:\Users\CYMR90~1\AppData\Local\Temp\ccScBURM.s:30163  .debug_str:000000000002c782 .LASF4134
C:\Users\CYMR90~1\AppData\Local\Temp\ccScBURM.s:29537  .debug_str:0000000000029f20 .LASF4135
C:\Users\CYMR90~1\AppData\Local\Temp\ccScBURM.s:25279  .debug_str:0000000000018e57 .LASF4136
C:\Users\CYMR90~1\AppData\Local\Temp\ccScBURM.s:19744  .debug_str:00000000000027cd .LASF4137
C:\Users\CYMR90~1\AppData\Local\Temp\ccScBURM.s:28425  .debug_str:00000000000257f0 .LASF4138
C:\Users\CYMR90~1\AppData\Local\Temp\ccScBURM.s:21118  .debug_str:00000000000081cf .LASF4139
C:\Users\CYMR90~1\AppData\Local\Temp\ccScBURM.s:25001  .debug_str:0000000000017cac .LASF4140
C:\Users\CYMR90~1\AppData\Local\Temp\ccScBURM.s:29743  .debug_str:000000000002ab7b .LASF4141
C:\Users\CYMR90~1\AppData\Local\Temp\ccScBURM.s:20084  .debug_str:0000000000003df8 .LASF4142
C:\Users\CYMR90~1\AppData\Local\Temp\ccScBURM.s:25497  .debug_str:0000000000019d1b .LASF4143
C:\Users\CYMR90~1\AppData\Local\Temp\ccScBURM.s:29477  .debug_str:0000000000029bb6 .LASF4144
C:\Users\CYMR90~1\AppData\Local\Temp\ccScBURM.s:27917  .debug_str:000000000002350a .LASF4145
C:\Users\CYMR90~1\AppData\Local\Temp\ccScBURM.s:26973  .debug_str:000000000001fba3 .LASF4146
C:\Users\CYMR90~1\AppData\Local\Temp\ccScBURM.s:28255  .debug_str:0000000000024b28 .LASF4147
C:\Users\CYMR90~1\AppData\Local\Temp\ccScBURM.s:23456  .debug_str:0000000000011798 .LASF4148
C:\Users\CYMR90~1\AppData\Local\Temp\ccScBURM.s:24941  .debug_str:0000000000017936 .LASF4149
C:\Users\CYMR90~1\AppData\Local\Temp\ccScBURM.s:21270  .debug_str:0000000000008b8a .LASF4150
C:\Users\CYMR90~1\AppData\Local\Temp\ccScBURM.s:25665  .debug_str:000000000001a8f2 .LASF4151
C:\Users\CYMR90~1\AppData\Local\Temp\ccScBURM.s:25897  .debug_str:000000000001b7fc .LASF4152
C:\Users\CYMR90~1\AppData\Local\Temp\ccScBURM.s:29409  .debug_str:00000000000297ab .LASF4153
C:\Users\CYMR90~1\AppData\Local\Temp\ccScBURM.s:22100  .debug_str:000000000000c244 .LASF4154
C:\Users\CYMR90~1\AppData\Local\Temp\ccScBURM.s:22512  .debug_str:000000000000dceb .LASF4155
C:\Users\CYMR90~1\AppData\Local\Temp\ccScBURM.s:22970  .debug_str:000000000000f9ad .LASF4156
C:\Users\CYMR90~1\AppData\Local\Temp\ccScBURM.s:20982  .debug_str:00000000000077c1 .LASF4157
C:\Users\CYMR90~1\AppData\Local\Temp\ccScBURM.s:24877  .debug_str:0000000000017501 .LASF4158
C:\Users\CYMR90~1\AppData\Local\Temp\ccScBURM.s:27899  .debug_str:000000000002339e .LASF4159
C:\Users\CYMR90~1\AppData\Local\Temp\ccScBURM.s:21452  .debug_str:00000000000096cf .LASF4160
C:\Users\CYMR90~1\AppData\Local\Temp\ccScBURM.s:30217  .debug_str:000000000002cb04 .LASF4161
C:\Users\CYMR90~1\AppData\Local\Temp\ccScBURM.s:29351  .debug_str:0000000000029405 .LASF4162
C:\Users\CYMR90~1\AppData\Local\Temp\ccScBURM.s:22038  .debug_str:000000000000be3a .LASF4163
C:\Users\CYMR90~1\AppData\Local\Temp\ccScBURM.s:25971  .debug_str:000000000001bc2b .LASF4164
C:\Users\CYMR90~1\AppData\Local\Temp\ccScBURM.s:28277  .debug_str:0000000000024cb6 .LASF4165
C:\Users\CYMR90~1\AppData\Local\Temp\ccScBURM.s:24344  .debug_str:0000000000015195 .LASF4166
C:\Users\CYMR90~1\AppData\Local\Temp\ccScBURM.s:24817  .debug_str:0000000000017149 .LASF4167
C:\Users\CYMR90~1\AppData\Local\Temp\ccScBURM.s:27731  .debug_str:00000000000229ce .LASF4168
C:\Users\CYMR90~1\AppData\Local\Temp\ccScBURM.s:19328  .debug_str:0000000000000e0d .LASF4169
C:\Users\CYMR90~1\AppData\Local\Temp\ccScBURM.s:25309  .debug_str:00000000000190e6 .LASF4170
C:\Users\CYMR90~1\AppData\Local\Temp\ccScBURM.s:24823  .debug_str:00000000000171b5 .LASF4171
C:\Users\CYMR90~1\AppData\Local\Temp\ccScBURM.s:27141  .debug_str:000000000002065a .LASF4172
C:\Users\CYMR90~1\AppData\Local\Temp\ccScBURM.s:29457  .debug_str:0000000000029a73 .LASF4173
C:\Users\CYMR90~1\AppData\Local\Temp\ccScBURM.s:29763  .debug_str:000000000002acd0 .LASF4174
C:\Users\CYMR90~1\AppData\Local\Temp\ccScBURM.s:22886  .debug_str:000000000000f402 .LASF4175
C:\Users\CYMR90~1\AppData\Local\Temp\ccScBURM.s:30169  .debug_str:000000000002c7fb .LASF4176
C:\Users\CYMR90~1\AppData\Local\Temp\ccScBURM.s:28651  .debug_str:00000000000265dd .LASF4177
C:\Users\CYMR90~1\AppData\Local\Temp\ccScBURM.s:22836  .debug_str:000000000000f0d3 .LASF4178
C:\Users\CYMR90~1\AppData\Local\Temp\ccScBURM.s:25243  .debug_str:0000000000018c33 .LASF4179
C:\Users\CYMR90~1\AppData\Local\Temp\ccScBURM.s:29223  .debug_str:0000000000028b67 .LASF4180
C:\Users\CYMR90~1\AppData\Local\Temp\ccScBURM.s:28133  .debug_str:0000000000024336 .LASF4181
C:\Users\CYMR90~1\AppData\Local\Temp\ccScBURM.s:25809  .debug_str:000000000001b28b .LASF4182
C:\Users\CYMR90~1\AppData\Local\Temp\ccScBURM.s:29693  .debug_str:000000000002a895 .LASF4183
C:\Users\CYMR90~1\AppData\Local\Temp\ccScBURM.s:22388  .debug_str:000000000000d5b5 .LASF4184
C:\Users\CYMR90~1\AppData\Local\Temp\ccScBURM.s:28653  .debug_str:0000000000026603 .LASF4185
C:\Users\CYMR90~1\AppData\Local\Temp\ccScBURM.s:24720  .debug_str:0000000000016948 .LASF4186
C:\Users\CYMR90~1\AppData\Local\Temp\ccScBURM.s:21274  .debug_str:0000000000008bc4 .LASF4187
C:\Users\CYMR90~1\AppData\Local\Temp\ccScBURM.s:25167  .debug_str:0000000000018674 .LASF4188
C:\Users\CYMR90~1\AppData\Local\Temp\ccScBURM.s:23236  .debug_str:00000000000109be .LASF4189
C:\Users\CYMR90~1\AppData\Local\Temp\ccScBURM.s:21840  .debug_str:000000000000b02f .LASF4190
C:\Users\CYMR90~1\AppData\Local\Temp\ccScBURM.s:25203  .debug_str:0000000000018918 .LASF4191
C:\Users\CYMR90~1\AppData\Local\Temp\ccScBURM.s:25415  .debug_str:000000000001979b .LASF4192
C:\Users\CYMR90~1\AppData\Local\Temp\ccScBURM.s:29847  .debug_str:000000000002b216 .LASF4193
C:\Users\CYMR90~1\AppData\Local\Temp\ccScBURM.s:20904  .debug_str:00000000000072dd .LASF4194
C:\Users\CYMR90~1\AppData\Local\Temp\ccScBURM.s:30115  .debug_str:000000000002c486 .LASF4195
C:\Users\CYMR90~1\AppData\Local\Temp\ccScBURM.s:27191  .debug_str:000000000002096c .LASF4196
C:\Users\CYMR90~1\AppData\Local\Temp\ccScBURM.s:20848  .debug_str:0000000000006eca .LASF4197
C:\Users\CYMR90~1\AppData\Local\Temp\ccScBURM.s:29093  .debug_str:0000000000028315 .LASF4198
C:\Users\CYMR90~1\AppData\Local\Temp\ccScBURM.s:21770  .debug_str:000000000000aaf2 .LASF4199
C:\Users\CYMR90~1\AppData\Local\Temp\ccScBURM.s:20462  .debug_str:000000000000569b .LASF4200
C:\Users\CYMR90~1\AppData\Local\Temp\ccScBURM.s:21216  .debug_str:00000000000087fb .LASF4201
C:\Users\CYMR90~1\AppData\Local\Temp\ccScBURM.s:22266  .debug_str:000000000000cd96 .LASF4202
C:\Users\CYMR90~1\AppData\Local\Temp\ccScBURM.s:26127  .debug_str:000000000001c5cf .LASF4203
C:\Users\CYMR90~1\AppData\Local\Temp\ccScBURM.s:30049  .debug_str:000000000002bfe2 .LASF4204
C:\Users\CYMR90~1\AppData\Local\Temp\ccScBURM.s:22824  .debug_str:000000000000f02e .LASF4205
C:\Users\CYMR90~1\AppData\Local\Temp\ccScBURM.s:26915  .debug_str:000000000001f7fa .LASF4206
C:\Users\CYMR90~1\AppData\Local\Temp\ccScBURM.s:26047  .debug_str:000000000001c146 .LASF4207
C:\Users\CYMR90~1\AppData\Local\Temp\ccScBURM.s:29875  .debug_str:000000000002b40f .LASF4208
C:\Users\CYMR90~1\AppData\Local\Temp\ccScBURM.s:25623  .debug_str:000000000001a5bd .LASF4209
C:\Users\CYMR90~1\AppData\Local\Temp\ccScBURM.s:28235  .debug_str:00000000000249f9 .LASF4210
C:\Users\CYMR90~1\AppData\Local\Temp\ccScBURM.s:25595  .debug_str:000000000001a45a .LASF4211
C:\Users\CYMR90~1\AppData\Local\Temp\ccScBURM.s:26057  .debug_str:000000000001c1d1 .LASF4212
C:\Users\CYMR90~1\AppData\Local\Temp\ccScBURM.s:19222  .debug_str:0000000000000765 .LASF4213
C:\Users\CYMR90~1\AppData\Local\Temp\ccScBURM.s:22186  .debug_str:000000000000c788 .LASF4214
C:\Users\CYMR90~1\AppData\Local\Temp\ccScBURM.s:22360  .debug_str:000000000000d3ae .LASF4215
C:\Users\CYMR90~1\AppData\Local\Temp\ccScBURM.s:20532  .debug_str:0000000000005b36 .LASF4216
C:\Users\CYMR90~1\AppData\Local\Temp\ccScBURM.s:21646  .debug_str:000000000000a323 .LASF4217
C:\Users\CYMR90~1\AppData\Local\Temp\ccScBURM.s:25541  .debug_str:0000000000019f90 .LASF4218
C:\Users\CYMR90~1\AppData\Local\Temp\ccScBURM.s:29431  .debug_str:00000000000298f2 .LASF4219
C:\Users\CYMR90~1\AppData\Local\Temp\ccScBURM.s:22124  .debug_str:000000000000c3b4 .LASF4220
C:\Users\CYMR90~1\AppData\Local\Temp\ccScBURM.s:25997  .debug_str:000000000001bdfa .LASF4221
C:\Users\CYMR90~1\AppData\Local\Temp\ccScBURM.s:26239  .debug_str:000000000001ce34 .LASF4222
C:\Users\CYMR90~1\AppData\Local\Temp\ccScBURM.s:25685  .debug_str:000000000001aa4c .LASF4223
C:\Users\CYMR90~1\AppData\Local\Temp\ccScBURM.s:26529  .debug_str:000000000001e105 .LASF4224
C:\Users\CYMR90~1\AppData\Local\Temp\ccScBURM.s:30117  .debug_str:000000000002c4ac .LASF4225
C:\Users\CYMR90~1\AppData\Local\Temp\ccScBURM.s:21728  .debug_str:000000000000a872 .LASF4226
C:\Users\CYMR90~1\AppData\Local\Temp\ccScBURM.s:20210  .debug_str:00000000000046a0 .LASF4227
C:\Users\CYMR90~1\AppData\Local\Temp\ccScBURM.s:24206  .debug_str:00000000000148ec .LASF4228
C:\Users\CYMR90~1\AppData\Local\Temp\ccScBURM.s:28109  .debug_str:0000000000024172 .LASF4229
C:\Users\CYMR90~1\AppData\Local\Temp\ccScBURM.s:20776  .debug_str:0000000000006a29 .LASF4230
C:\Users\CYMR90~1\AppData\Local\Temp\ccScBURM.s:27615  .debug_str:0000000000022325 .LASF4231
C:\Users\CYMR90~1\AppData\Local\Temp\ccScBURM.s:29955  .debug_str:000000000002b95e .LASF4232
C:\Users\CYMR90~1\AppData\Local\Temp\ccScBURM.s:20760  .debug_str:000000000000691e .LASF4233
C:\Users\CYMR90~1\AppData\Local\Temp\ccScBURM.s:25161  .debug_str:0000000000018628 .LASF4234
C:\Users\CYMR90~1\AppData\Local\Temp\ccScBURM.s:29155  .debug_str:0000000000028777 .LASF4235
C:\Users\CYMR90~1\AppData\Local\Temp\ccScBURM.s:28495  .debug_str:0000000000025c0e .LASF4236
C:\Users\CYMR90~1\AppData\Local\Temp\ccScBURM.s:24146  .debug_str:00000000000144b3 .LASF4237
C:\Users\CYMR90~1\AppData\Local\Temp\ccScBURM.s:28047  .debug_str:0000000000023ca8 .LASF4238
C:\Users\CYMR90~1\AppData\Local\Temp\ccScBURM.s:28783  .debug_str:0000000000026de0 .LASF4239
C:\Users\CYMR90~1\AppData\Local\Temp\ccScBURM.s:26337  .debug_str:000000000001d4a4 .LASF4240
C:\Users\CYMR90~1\AppData\Local\Temp\ccScBURM.s:27069  .debug_str:0000000000020159 .LASF4241
C:\Users\CYMR90~1\AppData\Local\Temp\ccScBURM.s:23218  .debug_str:00000000000108b4 .LASF4242
C:\Users\CYMR90~1\AppData\Local\Temp\ccScBURM.s:26773  .debug_str:000000000001ef84 .LASF4243
C:\Users\CYMR90~1\AppData\Local\Temp\ccScBURM.s:22520  .debug_str:000000000000dd72 .LASF4244
C:\Users\CYMR90~1\AppData\Local\Temp\ccScBURM.s:21092  .debug_str:0000000000007f92 .LASF4245
C:\Users\CYMR90~1\AppData\Local\Temp\ccScBURM.s:28383  .debug_str:000000000002547c .LASF4246
C:\Users\CYMR90~1\AppData\Local\Temp\ccScBURM.s:29975  .debug_str:000000000002bab9 .LASF4247
C:\Users\CYMR90~1\AppData\Local\Temp\ccScBURM.s:21444  .debug_str:0000000000009656 .LASF4248
C:\Users\CYMR90~1\AppData\Local\Temp\ccScBURM.s:24536  .debug_str:0000000000015d2a .LASF4249
C:\Users\CYMR90~1\AppData\Local\Temp\ccScBURM.s:28441  .debug_str:00000000000258dd .LASF4250
C:\Users\CYMR90~1\AppData\Local\Temp\ccScBURM.s:23636  .debug_str:00000000000123f3 .LASF4251
C:\Users\CYMR90~1\AppData\Local\Temp\ccScBURM.s:23680  .debug_str:00000000000126cc .LASF4252
C:\Users\CYMR90~1\AppData\Local\Temp\ccScBURM.s:22294  .debug_str:000000000000cf09 .LASF4253
C:\Users\CYMR90~1\AppData\Local\Temp\ccScBURM.s:21700  .debug_str:000000000000a68d .LASF4254
C:\Users\CYMR90~1\AppData\Local\Temp\ccScBURM.s:25613  .debug_str:000000000001a52a .LASF4255
C:\Users\CYMR90~1\AppData\Local\Temp\ccScBURM.s:22706  .debug_str:000000000000e931 .LASF4256
C:\Users\CYMR90~1\AppData\Local\Temp\ccScBURM.s:20574  .debug_str:0000000000005da0 .LASF4257
C:\Users\CYMR90~1\AppData\Local\Temp\ccScBURM.s:26803  .debug_str:000000000001f158 .LASF4258
C:\Users\CYMR90~1\AppData\Local\Temp\ccScBURM.s:28379  .debug_str:000000000002542a .LASF4259
C:\Users\CYMR90~1\AppData\Local\Temp\ccScBURM.s:28171  .debug_str:0000000000024599 .LASF4260
C:\Users\CYMR90~1\AppData\Local\Temp\ccScBURM.s:20142  .debug_str:000000000000423f .LASF4261
C:\Users\CYMR90~1\AppData\Local\Temp\ccScBURM.s:25781  .debug_str:000000000001b07a .LASF4262
C:\Users\CYMR90~1\AppData\Local\Temp\ccScBURM.s:23302  .debug_str:0000000000010e49 .LASF4263
C:\Users\CYMR90~1\AppData\Local\Temp\ccScBURM.s:25533  .debug_str:0000000000019f19 .LASF4264
C:\Users\CYMR90~1\AppData\Local\Temp\ccScBURM.s:29425  .debug_str:0000000000029888 .LASF4265
C:\Users\CYMR90~1\AppData\Local\Temp\ccScBURM.s:28765  .debug_str:0000000000026cc8 .LASF4266
C:\Users\CYMR90~1\AppData\Local\Temp\ccScBURM.s:24412  .debug_str:0000000000015568 .LASF4267
C:\Users\CYMR90~1\AppData\Local\Temp\ccScBURM.s:30061  .debug_str:000000000002c0c6 .LASF4268
C:\Users\CYMR90~1\AppData\Local\Temp\ccScBURM.s:20990  .debug_str:0000000000007853 .LASF4269
C:\Users\CYMR90~1\AppData\Local\Temp\ccScBURM.s:28323  .debug_str:0000000000024fe5 .LASF4270
C:\Users\CYMR90~1\AppData\Local\Temp\ccScBURM.s:30293  .debug_str:000000000002d014 .LASF4271
C:\Users\CYMR90~1\AppData\Local\Temp\ccScBURM.s:20304  .debug_str:0000000000004d3e .LASF4272
C:\Users\CYMR90~1\AppData\Local\Temp\ccScBURM.s:25471  .debug_str:0000000000019b87 .LASF4273
C:\Users\CYMR90~1\AppData\Local\Temp\ccScBURM.s:20526  .debug_str:0000000000005aa2 .LASF4274
C:\Users\CYMR90~1\AppData\Local\Temp\ccScBURM.s:22050  .debug_str:000000000000bf11 .LASF4275
C:\Users\CYMR90~1\AppData\Local\Temp\ccScBURM.s:23368  .debug_str:0000000000011208 .LASF4276
C:\Users\CYMR90~1\AppData\Local\Temp\ccScBURM.s:21544  .debug_str:0000000000009cca .LASF4277
C:\Users\CYMR90~1\AppData\Local\Temp\ccScBURM.s:28537  .debug_str:0000000000025edb .LASF4278
C:\Users\CYMR90~1\AppData\Local\Temp\ccScBURM.s:24913  .debug_str:0000000000017739 .LASF4279
C:\Users\CYMR90~1\AppData\Local\Temp\ccScBURM.s:25407  .debug_str:00000000000196f1 .LASF4280
C:\Users\CYMR90~1\AppData\Local\Temp\ccScBURM.s:26117  .debug_str:000000000001c518 .LASF4281
C:\Users\CYMR90~1\AppData\Local\Temp\ccScBURM.s:25411  .debug_str:0000000000019750 .LASF4282
C:\Users\CYMR90~1\AppData\Local\Temp\ccScBURM.s:29305  .debug_str:00000000000290a9 .LASF4283
C:\Users\CYMR90~1\AppData\Local\Temp\ccScBURM.s:19518  .debug_str:0000000000001a33 .LASF4284
C:\Users\CYMR90~1\AppData\Local\Temp\ccScBURM.s:21854  .debug_str:000000000000b11e .LASF4285
C:\Users\CYMR90~1\AppData\Local\Temp\ccScBURM.s:23000  .debug_str:000000000000fb51 .LASF4286
C:\Users\CYMR90~1\AppData\Local\Temp\ccScBURM.s:20858  .debug_str:0000000000006f53 .LASF4287
C:\Users\CYMR90~1\AppData\Local\Temp\ccScBURM.s:24855  .debug_str:00000000000173ad .LASF4288
C:\Users\CYMR90~1\AppData\Local\Temp\ccScBURM.s:28757  .debug_str:0000000000026c50 .LASF4289
C:\Users\CYMR90~1\AppData\Local\Temp\ccScBURM.s:27283  .debug_str:0000000000020eb5 .LASF4290
C:\Users\CYMR90~1\AppData\Local\Temp\ccScBURM.s:25345  .debug_str:0000000000019300 .LASF4291
C:\Users\CYMR90~1\AppData\Local\Temp\ccScBURM.s:20686  .debug_str:000000000000648a .LASF4292
C:\Users\CYMR90~1\AppData\Local\Temp\ccScBURM.s:21920  .debug_str:000000000000b565 .LASF4293
C:\Users\CYMR90~1\AppData\Local\Temp\ccScBURM.s:25337  .debug_str:000000000001928a .LASF4294
C:\Users\CYMR90~1\AppData\Local\Temp\ccScBURM.s:23534  .debug_str:0000000000011d59 .LASF4295
C:\Users\CYMR90~1\AppData\Local\Temp\ccScBURM.s:20604  .debug_str:0000000000005f67 .LASF4296
C:\Users\CYMR90~1\AppData\Local\Temp\ccScBURM.s:24791  .debug_str:0000000000016fe2 .LASF4297
C:\Users\CYMR90~1\AppData\Local\Temp\ccScBURM.s:28687  .debug_str:00000000000267ff .LASF4298
C:\Users\CYMR90~1\AppData\Local\Temp\ccScBURM.s:21378  .debug_str:0000000000009224 .LASF4299
C:\Users\CYMR90~1\AppData\Local\Temp\ccScBURM.s:19482  .debug_str:0000000000001806 .LASF4300
C:\Users\CYMR90~1\AppData\Local\Temp\ccScBURM.s:25447  .debug_str:0000000000019a0b .LASF4301
C:\Users\CYMR90~1\AppData\Local\Temp\ccScBURM.s:26471  .debug_str:000000000001dd72 .LASF4302
C:\Users\CYMR90~1\AppData\Local\Temp\ccScBURM.s:25771  .debug_str:000000000001afe1 .LASF4303
C:\Users\CYMR90~1\AppData\Local\Temp\ccScBURM.s:29641  .debug_str:000000000002a5a0 .LASF4304
C:\Users\CYMR90~1\AppData\Local\Temp\ccScBURM.s:22426  .debug_str:000000000000d83b .LASF4305
C:\Users\CYMR90~1\AppData\Local\Temp\ccScBURM.s:19488  .debug_str:000000000000186c .LASF4306
C:\Users\CYMR90~1\AppData\Local\Temp\ccScBURM.s:28627  .debug_str:0000000000026454 .LASF4307
C:\Users\CYMR90~1\AppData\Local\Temp\ccScBURM.s:23070  .debug_str:000000000000ffe2 .LASF4308
C:\Users\CYMR90~1\AppData\Local\Temp\ccScBURM.s:25515  .debug_str:0000000000019e0d .LASF4309
C:\Users\CYMR90~1\AppData\Local\Temp\ccScBURM.s:27669  .debug_str:0000000000022637 .LASF4310
C:\Users\CYMR90~1\AppData\Local\Temp\ccScBURM.s:30003  .debug_str:000000000002bc86 .LASF4311
C:\Users\CYMR90~1\AppData\Local\Temp\ccScBURM.s:25711  .debug_str:000000000001abc5 .LASF4312
C:\Users\CYMR90~1\AppData\Local\Temp\ccScBURM.s:29581  .debug_str:000000000002a18f .LASF4313
C:\Users\CYMR90~1\AppData\Local\Temp\ccScBURM.s:26545  .debug_str:000000000001e1da .LASF4314
C:\Users\CYMR90~1\AppData\Local\Temp\ccScBURM.s:23016  .debug_str:000000000000fc47 .LASF4315
C:\Users\CYMR90~1\AppData\Local\Temp\ccScBURM.s:23354  .debug_str:0000000000011128 .LASF4316
C:\Users\CYMR90~1\AppData\Local\Temp\ccScBURM.s:21244  .debug_str:00000000000089ef .LASF4317
C:\Users\CYMR90~1\AppData\Local\Temp\ccScBURM.s:21320  .debug_str:0000000000008ee3 .LASF4318
C:\Users\CYMR90~1\AppData\Local\Temp\ccScBURM.s:26271  .debug_str:000000000001d0a7 .LASF4319
C:\Users\CYMR90~1\AppData\Local\Temp\ccScBURM.s:23332  .debug_str:0000000000010fcf .LASF4320
C:\Users\CYMR90~1\AppData\Local\Temp\ccScBURM.s:25639  .debug_str:000000000001a6fb .LASF4321
C:\Users\CYMR90~1\AppData\Local\Temp\ccScBURM.s:24030  .debug_str:0000000000013daf .LASF4322
C:\Users\CYMR90~1\AppData\Local\Temp\ccScBURM.s:26591  .debug_str:000000000001e493 .LASF4323
C:\Users\CYMR90~1\AppData\Local\Temp\ccScBURM.s:27347  .debug_str:000000000002123f .LASF4324
C:\Users\CYMR90~1\AppData\Local\Temp\ccScBURM.s:23480  .debug_str:00000000000119b0 .LASF4325
C:\Users\CYMR90~1\AppData\Local\Temp\ccScBURM.s:21768  .debug_str:000000000000aacc .LASF4326
C:\Users\CYMR90~1\AppData\Local\Temp\ccScBURM.s:19916  .debug_str:0000000000003313 .LASF4327
C:\Users\CYMR90~1\AppData\Local\Temp\ccScBURM.s:23836  .debug_str:000000000001311f .LASF4328
C:\Users\CYMR90~1\AppData\Local\Temp\ccScBURM.s:27379  .debug_str:00000000000214d4 .LASF4329
C:\Users\CYMR90~1\AppData\Local\Temp\ccScBURM.s:20372  .debug_str:000000000000515d .LASF4330
C:\Users\CYMR90~1\AppData\Local\Temp\ccScBURM.s:24280  .debug_str:0000000000014d8c .LASF4331
C:\Users\CYMR90~1\AppData\Local\Temp\ccScBURM.s:28181  .debug_str:0000000000024636 .LASF4332
C:\Users\CYMR90~1\AppData\Local\Temp\ccScBURM.s:20850  .debug_str:0000000000006ef0 .LASF4333
C:\Users\CYMR90~1\AppData\Local\Temp\ccScBURM.s:20156  .debug_str:0000000000004315 .LASF4334
C:\Users\CYMR90~1\AppData\Local\Temp\ccScBURM.s:28749  .debug_str:0000000000026bb5 .LASF4335
C:\Users\CYMR90~1\AppData\Local\Temp\ccScBURM.s:26991  .debug_str:000000000001fc9b .LASF4336
C:\Users\CYMR90~1\AppData\Local\Temp\ccScBURM.s:23784  .debug_str:0000000000012dc2 .LASF4337
C:\Users\CYMR90~1\AppData\Local\Temp\ccScBURM.s:27661  .debug_str:00000000000225a2 .LASF4338
C:\Users\CYMR90~1\AppData\Local\Temp\ccScBURM.s:20314  .debug_str:0000000000004dd1 .LASF4339
C:\Users\CYMR90~1\AppData\Local\Temp\ccScBURM.s:24324  .debug_str:0000000000015088 .LASF4340
C:\Users\CYMR90~1\AppData\Local\Temp\ccScBURM.s:30167  .debug_str:000000000002c7d5 .LASF4341
C:\Users\CYMR90~1\AppData\Local\Temp\ccScBURM.s:28907  .debug_str:00000000000275d1 .LASF4342
C:\Users\CYMR90~1\AppData\Local\Temp\ccScBURM.s:19992  .debug_str:0000000000003815 .LASF4343
C:\Users\CYMR90~1\AppData\Local\Temp\ccScBURM.s:23210  .debug_str:0000000000010837 .LASF4344
C:\Users\CYMR90~1\AppData\Local\Temp\ccScBURM.s:21370  .debug_str:00000000000091b5 .LASF4345
C:\Users\CYMR90~1\AppData\Local\Temp\ccScBURM.s:29691  .debug_str:000000000002a86f .LASF4346
C:\Users\CYMR90~1\AppData\Local\Temp\ccScBURM.s:27589  .debug_str:00000000000221ab .LASF4347
C:\Users\CYMR90~1\AppData\Local\Temp\ccScBURM.s:24574  .debug_str:0000000000015ffd .LASF4348
C:\Users\CYMR90~1\AppData\Local\Temp\ccScBURM.s:27765  .debug_str:0000000000022c30 .LASF4349
C:\Users\CYMR90~1\AppData\Local\Temp\ccScBURM.s:22920  .debug_str:000000000000f60e .LASF4350
C:\Users\CYMR90~1\AppData\Local\Temp\ccScBURM.s:20722  .debug_str:0000000000006682 .LASF4351
C:\Users\CYMR90~1\AppData\Local\Temp\ccScBURM.s:24620  .debug_str:00000000000162b6 .LASF4352
C:\Users\CYMR90~1\AppData\Local\Temp\ccScBURM.s:28619  .debug_str:00000000000263bc .LASF4353
C:\Users\CYMR90~1\AppData\Local\Temp\ccScBURM.s:21310  .debug_str:0000000000008e58 .LASF4354
C:\Users\CYMR90~1\AppData\Local\Temp\ccScBURM.s:25199  .debug_str:00000000000188b8 .LASF4355
C:\Users\CYMR90~1\AppData\Local\Temp\ccScBURM.s:22322  .debug_str:000000000000d10d .LASF4356
C:\Users\CYMR90~1\AppData\Local\Temp\ccScBURM.s:20188  .debug_str:000000000000451d .LASF4357
C:\Users\CYMR90~1\AppData\Local\Temp\ccScBURM.s:24092  .debug_str:00000000000141b4 .LASF4358
C:\Users\CYMR90~1\AppData\Local\Temp\ccScBURM.s:22166  .debug_str:000000000000c634 .LASF4359
C:\Users\CYMR90~1\AppData\Local\Temp\ccScBURM.s:20658  .debug_str:00000000000062c9 .LASF4360
C:\Users\CYMR90~1\AppData\Local\Temp\ccScBURM.s:19796  .debug_str:0000000000002b14 .LASF4361
C:\Users\CYMR90~1\AppData\Local\Temp\ccScBURM.s:30173  .debug_str:000000000002c845 .LASF4362
C:\Users\CYMR90~1\AppData\Local\Temp\ccScBURM.s:21258  .debug_str:0000000000008ac4 .LASF4363
C:\Users\CYMR90~1\AppData\Local\Temp\ccScBURM.s:25129  .debug_str:0000000000018480 .LASF4364
C:\Users\CYMR90~1\AppData\Local\Temp\ccScBURM.s:19554  .debug_str:0000000000001c64 .LASF4365
C:\Users\CYMR90~1\AppData\Local\Temp\ccScBURM.s:26123  .debug_str:000000000001c56f .LASF4366
C:\Users\CYMR90~1\AppData\Local\Temp\ccScBURM.s:24026  .debug_str:0000000000013d6c .LASF4367
C:\Users\CYMR90~1\AppData\Local\Temp\ccScBURM.s:27935  .debug_str:0000000000023628 .LASF4368
C:\Users\CYMR90~1\AppData\Local\Temp\ccScBURM.s:24422  .debug_str:000000000001561a .LASF4369
C:\Users\CYMR90~1\AppData\Local\Temp\ccScBURM.s:29085  .debug_str:000000000002828f .LASF4370
C:\Users\CYMR90~1\AppData\Local\Temp\ccScBURM.s:22442  .debug_str:000000000000d91d .LASF4371
C:\Users\CYMR90~1\AppData\Local\Temp\ccScBURM.s:21166  .debug_str:0000000000008515 .LASF4372
C:\Users\CYMR90~1\AppData\Local\Temp\ccScBURM.s:27039  .debug_str:000000000001ffc7 .LASF4373
C:\Users\CYMR90~1\AppData\Local\Temp\ccScBURM.s:28967  .debug_str:00000000000279f3 .LASF4374
C:\Users\CYMR90~1\AppData\Local\Temp\ccScBURM.s:21650  .debug_str:000000000000a361 .LASF4375
C:\Users\CYMR90~1\AppData\Local\Temp\ccScBURM.s:29985  .debug_str:000000000002bb40 .LASF4376
C:\Users\CYMR90~1\AppData\Local\Temp\ccScBURM.s:20956  .debug_str:0000000000007609 .LASF4377
C:\Users\CYMR90~1\AppData\Local\Temp\ccScBURM.s:20522  .debug_str:0000000000005a4a .LASF4378
C:\Users\CYMR90~1\AppData\Local\Temp\ccScBURM.s:23604  .debug_str:0000000000012211 .LASF4379
C:\Users\CYMR90~1\AppData\Local\Temp\ccScBURM.s:24470  .debug_str:00000000000158e5 .LASF4380
C:\Users\CYMR90~1\AppData\Local\Temp\ccScBURM.s:21104  .debug_str:00000000000080d7 .LASF4381
C:\Users\CYMR90~1\AppData\Local\Temp\ccScBURM.s:24656  .debug_str:0000000000016526 .LASF4382
C:\Users\CYMR90~1\AppData\Local\Temp\ccScBURM.s:21638  .debug_str:000000000000a29c .LASF4383
C:\Users\CYMR90~1\AppData\Local\Temp\ccScBURM.s:19780  .debug_str:0000000000002a05 .LASF4384
C:\Users\CYMR90~1\AppData\Local\Temp\ccScBURM.s:27013  .debug_str:000000000001fe54 .LASF4385
C:\Users\CYMR90~1\AppData\Local\Temp\ccScBURM.s:21838  .debug_str:000000000000b009 .LASF4386
C:\Users\CYMR90~1\AppData\Local\Temp\ccScBURM.s:20456  .debug_str:000000000000564f .LASF4387
C:\Users\CYMR90~1\AppData\Local\Temp\ccScBURM.s:21056  .debug_str:0000000000007c8e .LASF4388
C:\Users\CYMR90~1\AppData\Local\Temp\ccScBURM.s:29389  .debug_str:00000000000296b0 .LASF4389
C:\Users\CYMR90~1\AppData\Local\Temp\ccScBURM.s:21028  .debug_str:0000000000007afb .LASF4390
C:\Users\CYMR90~1\AppData\Local\Temp\ccScBURM.s:20620  .debug_str:000000000000605a .LASF4391
C:\Users\CYMR90~1\AppData\Local\Temp\ccScBURM.s:21386  .debug_str:00000000000092aa .LASF4392
C:\Users\CYMR90~1\AppData\Local\Temp\ccScBURM.s:28009  .debug_str:0000000000023a7b .LASF4393
C:\Users\CYMR90~1\AppData\Local\Temp\ccScBURM.s:20234  .debug_str:000000000000484d .LASF4394
C:\Users\CYMR90~1\AppData\Local\Temp\ccScBURM.s:20810  .debug_str:0000000000006c22 .LASF4395
C:\Users\CYMR90~1\AppData\Local\Temp\ccScBURM.s:29857  .debug_str:000000000002b2ca .LASF4396
C:\Users\CYMR90~1\AppData\Local\Temp\ccScBURM.s:20400  .debug_str:000000000000530f .LASF4397
C:\Users\CYMR90~1\AppData\Local\Temp\ccScBURM.s:21658  .debug_str:000000000000a411 .LASF4398
C:\Users\CYMR90~1\AppData\Local\Temp\ccScBURM.s:20966  .debug_str:00000000000076c7 .LASF4399
C:\Users\CYMR90~1\AppData\Local\Temp\ccScBURM.s:26277  .debug_str:000000000001d10c .LASF4400
C:\Users\CYMR90~1\AppData\Local\Temp\ccScBURM.s:28585  .debug_str:00000000000261ab .LASF4401
C:\Users\CYMR90~1\AppData\Local\Temp\ccScBURM.s:25629  .debug_str:000000000001a62f .LASF4402
C:\Users\CYMR90~1\AppData\Local\Temp\ccScBURM.s:22006  .debug_str:000000000000bb04 .LASF4403
C:\Users\CYMR90~1\AppData\Local\Temp\ccScBURM.s:29337  .debug_str:000000000002930c .LASF4404
C:\Users\CYMR90~1\AppData\Local\Temp\ccScBURM.s:21776  .debug_str:000000000000ab6a .LASF4405
C:\Users\CYMR90~1\AppData\Local\Temp\ccScBURM.s:19122  .debug_str:0000000000000174 .LASF4406
C:\Users\CYMR90~1\AppData\Local\Temp\ccScBURM.s:28225  .debug_str:0000000000024932 .LASF4407
C:\Users\CYMR90~1\AppData\Local\Temp\ccScBURM.s:27437  .debug_str:000000000002185f .LASF4408
C:\Users\CYMR90~1\AppData\Local\Temp\ccScBURM.s:24807  .debug_str:00000000000170bc .LASF4409
C:\Users\CYMR90~1\AppData\Local\Temp\ccScBURM.s:28703  .debug_str:000000000002690a .LASF4410
C:\Users\CYMR90~1\AppData\Local\Temp\ccScBURM.s:24937  .debug_str:00000000000178df .LASF4411
C:\Users\CYMR90~1\AppData\Local\Temp\ccScBURM.s:25713  .debug_str:000000000001abeb .LASF4412
C:\Users\CYMR90~1\AppData\Local\Temp\ccScBURM.s:28665  .debug_str:00000000000266c1 .LASF4413
C:\Users\CYMR90~1\AppData\Local\Temp\ccScBURM.s:21954  .debug_str:000000000000b7c3 .LASF4414
C:\Users\CYMR90~1\AppData\Local\Temp\ccScBURM.s:25847  .debug_str:000000000001b4cc .LASF4415
C:\Users\CYMR90~1\AppData\Local\Temp\ccScBURM.s:27871  .debug_str:0000000000023205 .LASF4416
C:\Users\CYMR90~1\AppData\Local\Temp\ccScBURM.s:20828  .debug_str:0000000000006d82 .LASF4417
C:\Users\CYMR90~1\AppData\Local\Temp\ccScBURM.s:24734  .debug_str:0000000000016ab5 .LASF4418
C:\Users\CYMR90~1\AppData\Local\Temp\ccScBURM.s:28641  .debug_str:0000000000026521 .LASF4419
C:\Users\CYMR90~1\AppData\Local\Temp\ccScBURM.s:20178  .debug_str:0000000000004475 .LASF4420
C:\Users\CYMR90~1\AppData\Local\Temp\ccScBURM.s:25245  .debug_str:0000000000018c59 .LASF4421
C:\Users\CYMR90~1\AppData\Local\Temp\ccScBURM.s:23898  .debug_str:00000000000135cf .LASF4422
C:\Users\CYMR90~1\AppData\Local\Temp\ccScBURM.s:25979  .debug_str:000000000001bcae .LASF4423
C:\Users\CYMR90~1\AppData\Local\Temp\ccScBURM.s:25801  .debug_str:000000000001b1ff .LASF4424
C:\Users\CYMR90~1\AppData\Local\Temp\ccScBURM.s:24252  .debug_str:0000000000014b8f .LASF4425
C:\Users\CYMR90~1\AppData\Local\Temp\ccScBURM.s:20180  .debug_str:000000000000449b .LASF4426
C:\Users\CYMR90~1\AppData\Local\Temp\ccScBURM.s:28609  .debug_str:000000000002630d .LASF4427
C:\Users\CYMR90~1\AppData\Local\Temp\ccScBURM.s:23444  .debug_str:00000000000116d0 .LASF4428
C:\Users\CYMR90~1\AppData\Local\Temp\ccScBURM.s:27323  .debug_str:00000000000210d8 .LASF4429
C:\Users\CYMR90~1\AppData\Local\Temp\ccScBURM.s:19996  .debug_str:0000000000003875 .LASF4430
C:\Users\CYMR90~1\AppData\Local\Temp\ccScBURM.s:23916  .debug_str:00000000000136fa .LASF4431
C:\Users\CYMR90~1\AppData\Local\Temp\ccScBURM.s:27231  .debug_str:0000000000020bd7 .LASF4432
C:\Users\CYMR90~1\AppData\Local\Temp\ccScBURM.s:26097  .debug_str:000000000001c3fe .LASF4433
C:\Users\CYMR90~1\AppData\Local\Temp\ccScBURM.s:25263  .debug_str:0000000000018d79 .LASF4434
C:\Users\CYMR90~1\AppData\Local\Temp\ccScBURM.s:26815  .debug_str:000000000001f20c .LASF4435
C:\Users\CYMR90~1\AppData\Local\Temp\ccScBURM.s:20176  .debug_str:000000000000444f .LASF4436
C:\Users\CYMR90~1\AppData\Local\Temp\ccScBURM.s:20110  .debug_str:0000000000003fd0 .LASF4437
C:\Users\CYMR90~1\AppData\Local\Temp\ccScBURM.s:27257  .debug_str:0000000000020d4e .LASF4438
C:\Users\CYMR90~1\AppData\Local\Temp\ccScBURM.s:25227  .debug_str:0000000000018a73 .LASF4439
C:\Users\CYMR90~1\AppData\Local\Temp\ccScBURM.s:23948  .debug_str:00000000000138d6 .LASF4440
C:\Users\CYMR90~1\AppData\Local\Temp\ccScBURM.s:27759  .debug_str:0000000000022bce .LASF4441
C:\Users\CYMR90~1\AppData\Local\Temp\ccScBURM.s:30271  .debug_str:000000000002ceb3 .LASF4442
C:\Users\CYMR90~1\AppData\Local\Temp\ccScBURM.s:21752  .debug_str:000000000000a9c0 .LASF4443
C:\Users\CYMR90~1\AppData\Local\Temp\ccScBURM.s:22424  .debug_str:000000000000d82e .LASF4444
C:\Users\CYMR90~1\AppData\Local\Temp\ccScBURM.s:27891  .debug_str:000000000002332b .LASF4445
C:\Users\CYMR90~1\AppData\Local\Temp\ccScBURM.s:26447  .debug_str:000000000001db67 .LASF4446
C:\Users\CYMR90~1\AppData\Local\Temp\ccScBURM.s:19178  .debug_str:00000000000004ba .LASF4447
C:\Users\CYMR90~1\AppData\Local\Temp\ccScBURM.s:20226  .debug_str:00000000000047b3 .LASF4448
C:\Users\CYMR90~1\AppData\Local\Temp\ccScBURM.s:22604  .debug_str:000000000000e2c2 .LASF4449
C:\Users\CYMR90~1\AppData\Local\Temp\ccScBURM.s:20782  .debug_str:0000000000006a83 .LASF4450
C:\Users\CYMR90~1\AppData\Local\Temp\ccScBURM.s:29485  .debug_str:0000000000029c36 .LASF4451
C:\Users\CYMR90~1\AppData\Local\Temp\ccScBURM.s:23602  .debug_str:00000000000121ea .LASF4452
C:\Users\CYMR90~1\AppData\Local\Temp\ccScBURM.s:19858  .debug_str:0000000000002f07 .LASF4453
C:\Users\CYMR90~1\AppData\Local\Temp\ccScBURM.s:20422  .debug_str:0000000000005447 .LASF4454
C:\Users\CYMR90~1\AppData\Local\Temp\ccScBURM.s:19946  .debug_str:0000000000003512 .LASF4455
C:\Users\CYMR90~1\AppData\Local\Temp\ccScBURM.s:19140  .debug_str:0000000000000275 .LASF4456
C:\Users\CYMR90~1\AppData\Local\Temp\ccScBURM.s:21380  .debug_str:000000000000924a .LASF4457
C:\Users\CYMR90~1\AppData\Local\Temp\ccScBURM.s:24708  .debug_str:0000000000016899 .LASF4458
C:\Users\CYMR90~1\AppData\Local\Temp\ccScBURM.s:19848  .debug_str:0000000000002e7c .LASF4459
C:\Users\CYMR90~1\AppData\Local\Temp\ccScBURM.s:28723  .debug_str:0000000000026a2f .LASF4460
C:\Users\CYMR90~1\AppData\Local\Temp\ccScBURM.s:24578  .debug_str:000000000001603e .LASF4461
C:\Users\CYMR90~1\AppData\Local\Temp\ccScBURM.s:25239  .debug_str:0000000000018bcc .LASF4462
C:\Users\CYMR90~1\AppData\Local\Temp\ccScBURM.s:27903  .debug_str:00000000000233fb .LASF4463
C:\Users\CYMR90~1\AppData\Local\Temp\ccScBURM.s:27687  .debug_str:0000000000022755 .LASF4464
C:\Users\CYMR90~1\AppData\Local\Temp\ccScBURM.s:23802  .debug_str:0000000000012ed6 .LASF4465
C:\Users\CYMR90~1\AppData\Local\Temp\ccScBURM.s:26371  .debug_str:000000000001d6df .LASF4466
C:\Users\CYMR90~1\AppData\Local\Temp\ccScBURM.s:29609  .debug_str:000000000002a380 .LASF4467
C:\Users\CYMR90~1\AppData\Local\Temp\ccScBURM.s:26345  .debug_str:000000000001d521 .LASF4468
C:\Users\CYMR90~1\AppData\Local\Temp\ccScBURM.s:28491  .debug_str:0000000000025bd1 .LASF4469
C:\Users\CYMR90~1\AppData\Local\Temp\ccScBURM.s:23340  .debug_str:0000000000011056 .LASF4470
C:\Users\CYMR90~1\AppData\Local\Temp\ccScBURM.s:26497  .debug_str:000000000001df2c .LASF4471
C:\Users\CYMR90~1\AppData\Local\Temp\ccScBURM.s:21548  .debug_str:0000000000009d07 .LASF4472
C:\Users\CYMR90~1\AppData\Local\Temp\ccScBURM.s:25767  .debug_str:000000000001afaa .LASF4473
C:\Users\CYMR90~1\AppData\Local\Temp\ccScBURM.s:26343  .debug_str:000000000001d4fc .LASF4474
C:\Users\CYMR90~1\AppData\Local\Temp\ccScBURM.s:21932  .debug_str:000000000000b626 .LASF4475
C:\Users\CYMR90~1\AppData\Local\Temp\ccScBURM.s:24917  .debug_str:0000000000017777 .LASF4476
C:\Users\CYMR90~1\AppData\Local\Temp\ccScBURM.s:26043  .debug_str:000000000001c0e5 .LASF4477
C:\Users\CYMR90~1\AppData\Local\Temp\ccScBURM.s:23734  .debug_str:0000000000012a8c .LASF4478
C:\Users\CYMR90~1\AppData\Local\Temp\ccScBURM.s:27213  .debug_str:0000000000020aad .LASF4479
C:\Users\CYMR90~1\AppData\Local\Temp\ccScBURM.s:21864  .debug_str:000000000000b1a2 .LASF4480
C:\Users\CYMR90~1\AppData\Local\Temp\ccScBURM.s:25735  .debug_str:000000000001ad38 .LASF4481
C:\Users\CYMR90~1\AppData\Local\Temp\ccScBURM.s:24420  .debug_str:00000000000155f5 .LASF4482
C:\Users\CYMR90~1\AppData\Local\Temp\ccScBURM.s:23782  .debug_str:0000000000012d9d .LASF4483
C:\Users\CYMR90~1\AppData\Local\Temp\ccScBURM.s:29983  .debug_str:000000000002bb29 .LASF4484
C:\Users\CYMR90~1\AppData\Local\Temp\ccScBURM.s:25363  .debug_str:0000000000019431 .LASF4485
C:\Users\CYMR90~1\AppData\Local\Temp\ccScBURM.s:24915  .debug_str:000000000001775f .LASF4486
C:\Users\CYMR90~1\AppData\Local\Temp\ccScBURM.s:26367  .debug_str:000000000001d6be .LASF4487
C:\Users\CYMR90~1\AppData\Local\Temp\ccScBURM.s:28017  .debug_str:0000000000023aed .LASF4488
C:\Users\CYMR90~1\AppData\Local\Temp\ccScBURM.s:20454  .debug_str:0000000000005636 .LASF4489
C:\Users\CYMR90~1\AppData\Local\Temp\ccScBURM.s:19420  .debug_str:00000000000013d9 .LASF4490
C:\Users\CYMR90~1\AppData\Local\Temp\ccScBURM.s:26681  .debug_str:000000000001ea0b .LASF4491
C:\Users\CYMR90~1\AppData\Local\Temp\ccScBURM.s:27395  .debug_str:00000000000215bd .LASF4492
C:\Users\CYMR90~1\AppData\Local\Temp\ccScBURM.s:29555  .debug_str:000000000002a03d .LASF4493
C:\Users\CYMR90~1\AppData\Local\Temp\ccScBURM.s:23460  .debug_str:00000000000117d5 .LASF4494
C:\Users\CYMR90~1\AppData\Local\Temp\ccScBURM.s:29215  .debug_str:0000000000028b06 .LASF4495
C:\Users\CYMR90~1\AppData\Local\Temp\ccScBURM.s:24214  .debug_str:0000000000014959 .LASF4496
C:\Users\CYMR90~1\AppData\Local\Temp\ccScBURM.s:21826  .debug_str:000000000000af56 .LASF4497
C:\Users\CYMR90~1\AppData\Local\Temp\ccScBURM.s:27175  .debug_str:0000000000020864 .LASF4498
C:\Users\CYMR90~1\AppData\Local\Temp\ccScBURM.s:21272  .debug_str:0000000000008bb0 .LASF4499
C:\Users\CYMR90~1\AppData\Local\Temp\ccScBURM.s:24829  .debug_str:0000000000017211 .LASF4500
C:\Users\CYMR90~1\AppData\Local\Temp\ccScBURM.s:27981  .debug_str:0000000000023907 .LASF4501
C:\Users\CYMR90~1\AppData\Local\Temp\ccScBURM.s:28795  .debug_str:0000000000026e96 .LASF4502
C:\Users\CYMR90~1\AppData\Local\Temp\ccScBURM.s:24250  .debug_str:0000000000014b7b .LASF4503
C:\Users\CYMR90~1\AppData\Local\Temp\ccScBURM.s:26585  .debug_str:000000000001e426 .LASF4504
C:\Users\CYMR90~1\AppData\Local\Temp\ccScBURM.s:22246  .debug_str:000000000000cc93 .LASF4505
C:\Users\CYMR90~1\AppData\Local\Temp\ccScBURM.s:24032  .debug_str:0000000000013dd5 .LASF4506
C:\Users\CYMR90~1\AppData\Local\Temp\ccScBURM.s:26415  .debug_str:000000000001d9a8 .LASF4507
C:\Users\CYMR90~1\AppData\Local\Temp\ccScBURM.s:23810  .debug_str:0000000000012f5d .LASF4508
C:\Users\CYMR90~1\AppData\Local\Temp\ccScBURM.s:27245  .debug_str:0000000000020ccc .LASF4509
C:\Users\CYMR90~1\AppData\Local\Temp\ccScBURM.s:22794  .debug_str:000000000000ee9c .LASF4510
C:\Users\CYMR90~1\AppData\Local\Temp\ccScBURM.s:26365  .debug_str:000000000001d6a9 .LASF4511
C:\Users\CYMR90~1\AppData\Local\Temp\ccScBURM.s:20232  .debug_str:0000000000004839 .LASF4512
C:\Users\CYMR90~1\AppData\Local\Temp\ccScBURM.s:19606  .debug_str:0000000000001f82 .LASF4513
C:\Users\CYMR90~1\AppData\Local\Temp\ccScBURM.s:26085  .debug_str:000000000001c36e .LASF4514
C:\Users\CYMR90~1\AppData\Local\Temp\ccScBURM.s:21188  .debug_str:000000000000866a .LASF4515
C:\Users\CYMR90~1\AppData\Local\Temp\ccScBURM.s:29683  .debug_str:000000000002a81e .LASF4516
C:\Users\CYMR90~1\AppData\Local\Temp\ccScBURM.s:21040  .debug_str:0000000000007bb1 .LASF4517
C:\Users\CYMR90~1\AppData\Local\Temp\ccScBURM.s:19190  .debug_str:0000000000000576 .LASF4518
C:\Users\CYMR90~1\AppData\Local\Temp\ccScBURM.s:28217  .debug_str:00000000000248c9 .LASF4519
C:\Users\CYMR90~1\AppData\Local\Temp\ccScBURM.s:25147  .debug_str:000000000001857d .LASF4520
C:\Users\CYMR90~1\AppData\Local\Temp\ccScBURM.s:22900  .debug_str:000000000000f4f1 .LASF4521
C:\Users\CYMR90~1\AppData\Local\Temp\ccScBURM.s:27831  .debug_str:0000000000022fca .LASF4522
C:\Users\CYMR90~1\AppData\Local\Temp\ccScBURM.s:29507  .debug_str:0000000000029d6f .LASF4523
C:\Users\CYMR90~1\AppData\Local\Temp\ccScBURM.s:22098  .debug_str:000000000000c230 .LASF4524
C:\Users\CYMR90~1\AppData\Local\Temp\ccScBURM.s:20642  .debug_str:00000000000061f1 .LASF4525
C:\Users\CYMR90~1\AppData\Local\Temp\ccScBURM.s:20282  .debug_str:0000000000004bd3 .LASF4526
C:\Users\CYMR90~1\AppData\Local\Temp\ccScBURM.s:28563  .debug_str:0000000000026087 .LASF4527
C:\Users\CYMR90~1\AppData\Local\Temp\ccScBURM.s:22496  .debug_str:000000000000dc2d .LASF4528
C:\Users\CYMR90~1\AppData\Local\Temp\ccScBURM.s:23890  .debug_str:0000000000013539 .LASF4529
C:\Users\CYMR90~1\AppData\Local\Temp\ccScBURM.s:21250  .debug_str:0000000000008a50 .LASF4530
C:\Users\CYMR90~1\AppData\Local\Temp\ccScBURM.s:24428  .debug_str:000000000001566b .LASF4531
C:\Users\CYMR90~1\AppData\Local\Temp\ccScBURM.s:28351  .debug_str:0000000000025248 .LASF4532
C:\Users\CYMR90~1\AppData\Local\Temp\ccScBURM.s:19708  .debug_str:0000000000002520 .LASF4533
C:\Users\CYMR90~1\AppData\Local\Temp\ccScBURM.s:22842  .debug_str:000000000000f140 .LASF4534
C:\Users\CYMR90~1\AppData\Local\Temp\ccScBURM.s:19330  .debug_str:0000000000000e33 .LASF4535
C:\Users\CYMR90~1\AppData\Local\Temp\ccScBURM.s:23290  .debug_str:0000000000010db1 .LASF4536
C:\Users\CYMR90~1\AppData\Local\Temp\ccScBURM.s:21974  .debug_str:000000000000b8e6 .LASF4537
C:\Users\CYMR90~1\AppData\Local\Temp\ccScBURM.s:26941  .debug_str:000000000001f9a5 .LASF4538
C:\Users\CYMR90~1\AppData\Local\Temp\ccScBURM.s:25915  .debug_str:000000000001b8d2 .LASF4539
C:\Users\CYMR90~1\AppData\Local\Temp\ccScBURM.s:23700  .debug_str:000000000001282b .LASF4540
C:\Users\CYMR90~1\AppData\Local\Temp\ccScBURM.s:19702  .debug_str:00000000000024d3 .LASF4541
C:\Users\CYMR90~1\AppData\Local\Temp\ccScBURM.s:26317  .debug_str:000000000001d355 .LASF4542
C:\Users\CYMR90~1\AppData\Local\Temp\ccScBURM.s:22220  .debug_str:000000000000ca68 .LASF4543
C:\Users\CYMR90~1\AppData\Local\Temp\ccScBURM.s:29667  .debug_str:000000000002a739 .LASF4544
C:\Users\CYMR90~1\AppData\Local\Temp\ccScBURM.s:25597  .debug_str:000000000001a480 .LASF4545
C:\Users\CYMR90~1\AppData\Local\Temp\ccScBURM.s:27797  .debug_str:0000000000022df5 .LASF4546
C:\Users\CYMR90~1\AppData\Local\Temp\ccScBURM.s:29345  .debug_str:0000000000029393 .LASF4547
C:\Users\CYMR90~1\AppData\Local\Temp\ccScBURM.s:24672  .debug_str:0000000000016617 .LASF4548
C:\Users\CYMR90~1\AppData\Local\Temp\ccScBURM.s:25333  .debug_str:0000000000019257 .LASF4549
C:\Users\CYMR90~1\AppData\Local\Temp\ccScBURM.s:20452  .debug_str:000000000000561d .LASF4550
C:\Users\CYMR90~1\AppData\Local\Temp\ccScBURM.s:29479  .debug_str:0000000000029bdc .LASF4551
C:\Users\CYMR90~1\AppData\Local\Temp\ccScBURM.s:21364  .debug_str:0000000000009138 .LASF4552
C:\Users\CYMR90~1\AppData\Local\Temp\ccScBURM.s:26219  .debug_str:000000000001cc5d .LASF4553
C:\Users\CYMR90~1\AppData\Local\Temp\ccScBURM.s:27515  .debug_str:0000000000021d47 .LASF4554
C:\Users\CYMR90~1\AppData\Local\Temp\ccScBURM.s:22454  .debug_str:000000000000d9db .LASF4555
C:\Users\CYMR90~1\AppData\Local\Temp\ccScBURM.s:29829  .debug_str:000000000002b0e1 .LASF4556
C:\Users\CYMR90~1\AppData\Local\Temp\ccScBURM.s:21994  .debug_str:000000000000ba57 .LASF4557
C:\Users\CYMR90~1\AppData\Local\Temp\ccScBURM.s:27127  .debug_str:0000000000020594 .LASF4558
C:\Users\CYMR90~1\AppData\Local\Temp\ccScBURM.s:24534  .debug_str:0000000000015d14 .LASF4559
C:\Users\CYMR90~1\AppData\Local\Temp\ccScBURM.s:27969  .debug_str:000000000002383a .LASF4560
C:\Users\CYMR90~1\AppData\Local\Temp\ccScBURM.s:29799  .debug_str:000000000002aed8 .LASF4561
C:\Users\CYMR90~1\AppData\Local\Temp\ccScBURM.s:27319  .debug_str:0000000000021095 .LASF4562
C:\Users\CYMR90~1\AppData\Local\Temp\ccScBURM.s:27659  .debug_str:000000000002258a .LASF4563
C:\Users\CYMR90~1\AppData\Local\Temp\ccScBURM.s:24660  .debug_str:000000000001656a .LASF4564
C:\Users\CYMR90~1\AppData\Local\Temp\ccScBURM.s:21234  .debug_str:0000000000008957 .LASF4565
C:\Users\CYMR90~1\AppData\Local\Temp\ccScBURM.s:28389  .debug_str:0000000000025517 .LASF4566
C:\Users\CYMR90~1\AppData\Local\Temp\ccScBURM.s:25651  .debug_str:000000000001a837 .LASF4567
C:\Users\CYMR90~1\AppData\Local\Temp\ccScBURM.s:19326  .debug_str:0000000000000df5 .LASF4568
C:\Users\CYMR90~1\AppData\Local\Temp\ccScBURM.s:27633  .debug_str:0000000000022404 .LASF4569
C:\Users\CYMR90~1\AppData\Local\Temp\ccScBURM.s:29329  .debug_str:000000000002929f .LASF4570
C:\Users\CYMR90~1\AppData\Local\Temp\ccScBURM.s:19786  .debug_str:0000000000002a5f .LASF4571
C:\Users\CYMR90~1\AppData\Local\Temp\ccScBURM.s:22772  .debug_str:000000000000ed7e .LASF4572
C:\Users\CYMR90~1\AppData\Local\Temp\ccScBURM.s:26659  .debug_str:000000000001e8d8 .LASF4573
C:\Users\CYMR90~1\AppData\Local\Temp\ccScBURM.s:22254  .debug_str:000000000000ccee .LASF4574
C:\Users\CYMR90~1\AppData\Local\Temp\ccScBURM.s:24010  .debug_str:0000000000013ca9 .LASF4575
C:\Users\CYMR90~1\AppData\Local\Temp\ccScBURM.s:28303  .debug_str:0000000000024e42 .LASF4576
C:\Users\CYMR90~1\AppData\Local\Temp\ccScBURM.s:29295  .debug_str:0000000000029022 .LASF4577
C:\Users\CYMR90~1\AppData\Local\Temp\ccScBURM.s:24016  .debug_str:0000000000013ced .LASF4578
C:\Users\CYMR90~1\AppData\Local\Temp\ccScBURM.s:20572  .debug_str:0000000000005d8a .LASF4579
C:\Users\CYMR90~1\AppData\Local\Temp\ccScBURM.s:20168  .debug_str:00000000000043bb .LASF4580
C:\Users\CYMR90~1\AppData\Local\Temp\ccScBURM.s:27433  .debug_str:000000000002182d .LASF4581
C:\Users\CYMR90~1\AppData\Local\Temp\ccScBURM.s:26957  .debug_str:000000000001faa3 .LASF4582
C:\Users\CYMR90~1\AppData\Local\Temp\ccScBURM.s:20256  .debug_str:0000000000004a3e .LASF4583
C:\Users\CYMR90~1\AppData\Local\Temp\ccScBURM.s:27225  .debug_str:0000000000020b7d .LASF4584
C:\Users\CYMR90~1\AppData\Local\Temp\ccScBURM.s:28617  .debug_str:00000000000263a5 .LASF4585
C:\Users\CYMR90~1\AppData\Local\Temp\ccScBURM.s:29787  .debug_str:000000000002ae2e .LASF4586
C:\Users\CYMR90~1\AppData\Local\Temp\ccScBURM.s:28535  .debug_str:0000000000025ec2 .LASF4587
C:\Users\CYMR90~1\AppData\Local\Temp\ccScBURM.s:19470  .debug_str:00000000000016b7 .LASF4588
C:\Users\CYMR90~1\AppData\Local\Temp\ccScBURM.s:26547  .debug_str:000000000001e200 .LASF4589
C:\Users\CYMR90~1\AppData\Local\Temp\ccScBURM.s:28837  .debug_str:00000000000271db .LASF4590
C:\Users\CYMR90~1\AppData\Local\Temp\ccScBURM.s:21676  .debug_str:000000000000a557 .LASF4591
C:\Users\CYMR90~1\AppData\Local\Temp\ccScBURM.s:30133  .debug_str:000000000002c592 .LASF4592
C:\Users\CYMR90~1\AppData\Local\Temp\ccScBURM.s:29495  .debug_str:0000000000029ccc .LASF4593
C:\Users\CYMR90~1\AppData\Local\Temp\ccScBURM.s:21046  .debug_str:0000000000007c0b .LASF4594
C:\Users\CYMR90~1\AppData\Local\Temp\ccScBURM.s:20152  .debug_str:00000000000042e2 .LASF4595
C:\Users\CYMR90~1\AppData\Local\Temp\ccScBURM.s:28699  .debug_str:00000000000268c2 .LASF4596
C:\Users\CYMR90~1\AppData\Local\Temp\ccScBURM.s:26101  .debug_str:000000000001c447 .LASF4597
C:\Users\CYMR90~1\AppData\Local\Temp\ccScBURM.s:28673  .debug_str:000000000002673f .LASF4598
C:\Users\CYMR90~1\AppData\Local\Temp\ccScBURM.s:24044  .debug_str:0000000000013e91 .LASF4599
C:\Users\CYMR90~1\AppData\Local\Temp\ccScBURM.s:22972  .debug_str:000000000000f9d3 .LASF4600
C:\Users\CYMR90~1\AppData\Local\Temp\ccScBURM.s:26651  .debug_str:000000000001e864 .LASF4601
C:\Users\CYMR90~1\AppData\Local\Temp\ccScBURM.s:20506  .debug_str:000000000000597e .LASF4602
C:\Users\CYMR90~1\AppData\Local\Temp\ccScBURM.s:27851  .debug_str:00000000000230cd .LASF4603
C:\Users\CYMR90~1\AppData\Local\Temp\ccScBURM.s:25265  .debug_str:0000000000018d9f .LASF4604
C:\Users\CYMR90~1\AppData\Local\Temp\ccScBURM.s:19670  .debug_str:00000000000022e2 .LASF4605
C:\Users\CYMR90~1\AppData\Local\Temp\ccScBURM.s:19878  .debug_str:000000000000303a .LASF4606
C:\Users\CYMR90~1\AppData\Local\Temp\ccScBURM.s:28499  .debug_str:0000000000025c66 .LASF4607
C:\Users\CYMR90~1\AppData\Local\Temp\ccScBURM.s:24436  .debug_str:00000000000156d7 .LASF4608
C:\Users\CYMR90~1\AppData\Local\Temp\ccScBURM.s:30277  .debug_str:000000000002cf35 .LASF4609
C:\Users\CYMR90~1\AppData\Local\Temp\ccScBURM.s:21354  .debug_str:00000000000090ba .LASF4610
C:\Users\CYMR90~1\AppData\Local\Temp\ccScBURM.s:29091  .debug_str:00000000000282fb .LASF4611
C:\Users\CYMR90~1\AppData\Local\Temp\ccScBURM.s:30275  .debug_str:000000000002cefc .LASF4612
C:\Users\CYMR90~1\AppData\Local\Temp\ccScBURM.s:26481  .debug_str:000000000001de1c .LASF4613
C:\Users\CYMR90~1\AppData\Local\Temp\ccScBURM.s:20818  .debug_str:0000000000006ccb .LASF4614
C:\Users\CYMR90~1\AppData\Local\Temp\ccScBURM.s:20296  .debug_str:0000000000004cce .LASF4615
C:\Users\CYMR90~1\AppData\Local\Temp\ccScBURM.s:24783  .debug_str:0000000000016f59 .LASF4616
C:\Users\CYMR90~1\AppData\Local\Temp\ccScBURM.s:29927  .debug_str:000000000002b7ad .LASF4617
C:\Users\CYMR90~1\AppData\Local\Temp\ccScBURM.s:23834  .debug_str:0000000000013100 .LASF4618
C:\Users\CYMR90~1\AppData\Local\Temp\ccScBURM.s:29557  .debug_str:000000000002a056 .LASF4619
C:\Users\CYMR90~1\AppData\Local\Temp\ccScBURM.s:28647  .debug_str:0000000000026589 .LASF4620
C:\Users\CYMR90~1\AppData\Local\Temp\ccScBURM.s:23044  .debug_str:000000000000fe04 .LASF4621
C:\Users\CYMR90~1\AppData\Local\Temp\ccScBURM.s:29387  .debug_str:0000000000029675 .LASF4622
C:\Users\CYMR90~1\AppData\Local\Temp\ccScBURM.s:26005  .debug_str:000000000001be7a .LASF4623
C:\Users\CYMR90~1\AppData\Local\Temp\ccScBURM.s:25479  .debug_str:0000000000019c04 .LASF4624
C:\Users\CYMR90~1\AppData\Local\Temp\ccScBURM.s:21102  .debug_str:00000000000080be .LASF4625
C:\Users\CYMR90~1\AppData\Local\Temp\ccScBURM.s:26185  .debug_str:000000000001ca26 .LASF4626
C:\Users\CYMR90~1\AppData\Local\Temp\ccScBURM.s:25785  .debug_str:000000000001b0c6 .LASF4627
C:\Users\CYMR90~1\AppData\Local\Temp\ccScBURM.s:27697  .debug_str:00000000000227d0 .LASF4628
C:\Users\CYMR90~1\AppData\Local\Temp\ccScBURM.s:28603  .debug_str:00000000000262b4 .LASF4629
C:\Users\CYMR90~1\AppData\Local\Temp\ccScBURM.s:19580  .debug_str:0000000000001df9 .LASF4630
C:\Users\CYMR90~1\AppData\Local\Temp\ccScBURM.s:24610  .debug_str:0000000000016208 .LASF4631
C:\Users\CYMR90~1\AppData\Local\Temp\ccScBURM.s:19890  .debug_str:0000000000003135 .LASF4632
C:\Users\CYMR90~1\AppData\Local\Temp\ccScBURM.s:22066  .debug_str:000000000000c04a .LASF4633
C:\Users\CYMR90~1\AppData\Local\Temp\ccScBURM.s:26663  .debug_str:000000000001e90a .LASF4634
C:\Users\CYMR90~1\AppData\Local\Temp\ccScBURM.s:19380  .debug_str:000000000000119f .LASF4635
C:\Users\CYMR90~1\AppData\Local\Temp\ccScBURM.s:28331  .debug_str:000000000002505d .LASF4636
C:\Users\CYMR90~1\AppData\Local\Temp\ccScBURM.s:21210  .debug_str:0000000000008787 .LASF4637
C:\Users\CYMR90~1\AppData\Local\Temp\ccScBURM.s:26289  .debug_str:000000000001d1c7 .LASF4638
C:\Users\CYMR90~1\AppData\Local\Temp\ccScBURM.s:26307  .debug_str:000000000001d2be .LASF4639
C:\Users\CYMR90~1\AppData\Local\Temp\ccScBURM.s:27265  .debug_str:0000000000020dc8 .LASF4640
C:\Users\CYMR90~1\AppData\Local\Temp\ccScBURM.s:25725  .debug_str:000000000001aca4 .LASF4641
C:\Users\CYMR90~1\AppData\Local\Temp\ccScBURM.s:20542  .debug_str:0000000000005bc9 .LASF4642
C:\Users\CYMR90~1\AppData\Local\Temp\ccScBURM.s:29053  .debug_str:000000000002800d .LASF4643
C:\Users\CYMR90~1\AppData\Local\Temp\ccScBURM.s:27975  .debug_str:00000000000238b6 .LASF4644
C:\Users\CYMR90~1\AppData\Local\Temp\ccScBURM.s:24332  .debug_str:00000000000150db .LASF4645
C:\Users\CYMR90~1\AppData\Local\Temp\ccScBURM.s:30235  .debug_str:000000000002cc97 .LASF4646
C:\Users\CYMR90~1\AppData\Local\Temp\ccScBURM.s:19854  .debug_str:0000000000002ecb .LASF4647
C:\Users\CYMR90~1\AppData\Local\Temp\ccScBURM.s:19126  .debug_str:00000000000001c8 .LASF4648
C:\Users\CYMR90~1\AppData\Local\Temp\ccScBURM.s:25431  .debug_str:00000000000198e2 .LASF4649
C:\Users\CYMR90~1\AppData\Local\Temp\ccScBURM.s:23238  .debug_str:00000000000109e4 .LASF4650
C:\Users\CYMR90~1\AppData\Local\Temp\ccScBURM.s:20166  .debug_str:00000000000043a3 .LASF4651
C:\Users\CYMR90~1\AppData\Local\Temp\ccScBURM.s:22164  .debug_str:000000000000c61c .LASF4652
C:\Users\CYMR90~1\AppData\Local\Temp\ccScBURM.s:28659  .debug_str:000000000002666e .LASF4653
C:\Users\CYMR90~1\AppData\Local\Temp\ccScBURM.s:19152  .debug_str:000000000000035d .LASF4654
C:\Users\CYMR90~1\AppData\Local\Temp\ccScBURM.s:19198  .debug_str:00000000000005c4 .LASF4655
C:\Users\CYMR90~1\AppData\Local\Temp\ccScBURM.s:29311  .debug_str:0000000000029110 .LASF4656
C:\Users\CYMR90~1\AppData\Local\Temp\ccScBURM.s:20196  .debug_str:00000000000045ad .LASF4657
C:\Users\CYMR90~1\AppData\Local\Temp\ccScBURM.s:21818  .debug_str:000000000000ae26 .LASF4658
C:\Users\CYMR90~1\AppData\Local\Temp\ccScBURM.s:19170  .debug_str:0000000000000459 .LASF4659
C:\Users\CYMR90~1\AppData\Local\Temp\ccScBURM.s:26639  .debug_str:000000000001e7a2 .LASF4660
C:\Users\CYMR90~1\AppData\Local\Temp\ccScBURM.s:24793  .debug_str:0000000000017008 .LASF4661
C:\Users\CYMR90~1\AppData\Local\Temp\ccScBURM.s:19720  .debug_str:00000000000025fc .LASF4662
C:\Users\CYMR90~1\AppData\Local\Temp\ccScBURM.s:28763  .debug_str:0000000000026cb2 .LASF4663
C:\Users\CYMR90~1\AppData\Local\Temp\ccScBURM.s:30089  .debug_str:000000000002c2bc .LASF4664
C:\Users\CYMR90~1\AppData\Local\Temp\ccScBURM.s:27091  .debug_str:0000000000020285 .LASF4665
C:\Users\CYMR90~1\AppData\Local\Temp\ccScBURM.s:22160  .debug_str:000000000000c5d2 .LASF4666
C:\Users\CYMR90~1\AppData\Local\Temp\ccScBURM.s:27705  .debug_str:000000000002283f .LASF4667
C:\Users\CYMR90~1\AppData\Local\Temp\ccScBURM.s:22062  .debug_str:000000000000bfe6 .LASF4668
C:\Users\CYMR90~1\AppData\Local\Temp\ccScBURM.s:27695  .debug_str:00000000000227b2 .LASF4669
C:\Users\CYMR90~1\AppData\Local\Temp\ccScBURM.s:29205  .debug_str:0000000000028a6f .LASF4670
C:\Users\CYMR90~1\AppData\Local\Temp\ccScBURM.s:20586  .debug_str:0000000000005e66 .LASF4671
C:\Users\CYMR90~1\AppData\Local\Temp\ccScBURM.s:23358  .debug_str:0000000000011169 .LASF4672
C:\Users\CYMR90~1\AppData\Local\Temp\ccScBURM.s:22540  .debug_str:000000000000ded5 .LASF4673
C:\Users\CYMR90~1\AppData\Local\Temp\ccScBURM.s:20246  .debug_str:00000000000049a4 .LASF4674
C:\Users\CYMR90~1\AppData\Local\Temp\ccScBURM.s:21498  .debug_str:00000000000099da .LASF4675
C:\Users\CYMR90~1\AppData\Local\Temp\ccScBURM.s:24006  .debug_str:0000000000013c49 .LASF4676
C:\Users\CYMR90~1\AppData\Local\Temp\ccScBURM.s:20072  .debug_str:0000000000003d0f .LASF4677
C:\Users\CYMR90~1\AppData\Local\Temp\ccScBURM.s:20812  .debug_str:0000000000006c48 .LASF4678
C:\Users\CYMR90~1\AppData\Local\Temp\ccScBURM.s:19102  .debug_str:000000000000002e .LASF4679
C:\Users\CYMR90~1\AppData\Local\Temp\ccScBURM.s:23342  .debug_str:000000000001107a .LASF4680
C:\Users\CYMR90~1\AppData\Local\Temp\ccScBURM.s:25683  .debug_str:000000000001aa0e .LASF4681
C:\Users\CYMR90~1\AppData\Local\Temp\ccScBURM.s:24736  .debug_str:0000000000016adb .LASF4682
C:\Users\CYMR90~1\AppData\Local\Temp\ccScBURM.s:30027  .debug_str:000000000002be82 .LASF4683
C:\Users\CYMR90~1\AppData\Local\Temp\ccScBURM.s:28111  .debug_str:0000000000024198 .LASF4684
C:\Users\CYMR90~1\AppData\Local\Temp\ccScBURM.s:22640  .debug_str:000000000000e4dc .LASF4685
C:\Users\CYMR90~1\AppData\Local\Temp\ccScBURM.s:26761  .debug_str:000000000001eeb1 .LASF4686
C:\Users\CYMR90~1\AppData\Local\Temp\ccScBURM.s:24264  .debug_str:0000000000014c63 .LASF4687
C:\Users\CYMR90~1\AppData\Local\Temp\ccScBURM.s:29379  .debug_str:00000000000295de .LASF4688
C:\Users\CYMR90~1\AppData\Local\Temp\ccScBURM.s:25289  .debug_str:0000000000018ecd .LASF4689
C:\Users\CYMR90~1\AppData\Local\Temp\ccScBURM.s:23862  .debug_str:00000000000132c7 .LASF4690
C:\Users\CYMR90~1\AppData\Local\Temp\ccScBURM.s:19714  .debug_str:0000000000002566 .LASF4691
C:\Users\CYMR90~1\AppData\Local\Temp\ccScBURM.s:26743  .debug_str:000000000001ed8e .LASF4692
C:\Users\CYMR90~1\AppData\Local\Temp\ccScBURM.s:21670  .debug_str:000000000000a4ca .LASF4693
C:\Users\CYMR90~1\AppData\Local\Temp\ccScBURM.s:19226  .debug_str:00000000000007a6 .LASF4694
C:\Users\CYMR90~1\AppData\Local\Temp\ccScBURM.s:25699  .debug_str:000000000001ab0d .LASF4695
C:\Users\CYMR90~1\AppData\Local\Temp\ccScBURM.s:28973  .debug_str:0000000000027a61 .LASF4696
C:\Users\CYMR90~1\AppData\Local\Temp\ccScBURM.s:24404  .debug_str:00000000000154f7 .LASF4697
C:\Users\CYMR90~1\AppData\Local\Temp\ccScBURM.s:25353  .debug_str:0000000000019364 .LASF4698
C:\Users\CYMR90~1\AppData\Local\Temp\ccScBURM.s:22054  .debug_str:000000000000bf5e .LASF4699
C:\Users\CYMR90~1\AppData\Local\Temp\ccScBURM.s:25409  .debug_str:0000000000019717 .LASF4700
C:\Users\CYMR90~1\AppData\Local\Temp\ccScBURM.s:27321  .debug_str:00000000000210ad .LASF4701
C:\Users\CYMR90~1\AppData\Local\Temp\ccScBURM.s:25433  .debug_str:000000000001991d .LASF4702
C:\Users\CYMR90~1\AppData\Local\Temp\ccScBURM.s:20148  .debug_str:0000000000004299 .LASF4703
C:\Users\CYMR90~1\AppData\Local\Temp\ccScBURM.s:21716  .debug_str:000000000000a774 .LASF4704
C:\Users\CYMR90~1\AppData\Local\Temp\ccScBURM.s:22410  .debug_str:000000000000d755 .LASF4705
C:\Users\CYMR90~1\AppData\Local\Temp\ccScBURM.s:27163  .debug_str:00000000000207a1 .LASF4706
C:\Users\CYMR90~1\AppData\Local\Temp\ccScBURM.s:26755  .debug_str:000000000001ee48 .LASF4707
C:\Users\CYMR90~1\AppData\Local\Temp\ccScBURM.s:22538  .debug_str:000000000000de99 .LASF4708
C:\Users\CYMR90~1\AppData\Local\Temp\ccScBURM.s:25803  .debug_str:000000000001b225 .LASF4709
C:\Users\CYMR90~1\AppData\Local\Temp\ccScBURM.s:29605  .debug_str:000000000002a32d .LASF4710
C:\Users\CYMR90~1\AppData\Local\Temp\ccScBURM.s:23258  .debug_str:0000000000010b3f .LASF4711
C:\Users\CYMR90~1\AppData\Local\Temp\ccScBURM.s:23974  .debug_str:0000000000013a4e .LASF4712
C:\Users\CYMR90~1\AppData\Local\Temp\ccScBURM.s:27599  .debug_str:0000000000022246 .LASF4713
C:\Users\CYMR90~1\AppData\Local\Temp\ccScBURM.s:29709  .debug_str:000000000002a988 .LASF4714
C:\Users\CYMR90~1\AppData\Local\Temp\ccScBURM.s:23046  .debug_str:000000000000fe30 .LASF4715
C:\Users\CYMR90~1\AppData\Local\Temp\ccScBURM.s:27663  .debug_str:00000000000225c8 .LASF4716
C:\Users\CYMR90~1\AppData\Local\Temp\ccScBURM.s:29945  .debug_str:000000000002b8ab .LASF4717
C:\Users\CYMR90~1\AppData\Local\Temp\ccScBURM.s:28153  .debug_str:0000000000024475 .LASF4718
C:\Users\CYMR90~1\AppData\Local\Temp\ccScBURM.s:24676  .debug_str:0000000000016654 .LASF4719
C:\Users\CYMR90~1\AppData\Local\Temp\ccScBURM.s:26151  .debug_str:000000000001c7f0 .LASF4720
C:\Users\CYMR90~1\AppData\Local\Temp\ccScBURM.s:25459  .debug_str:0000000000019aba .LASF4721
C:\Users\CYMR90~1\AppData\Local\Temp\ccScBURM.s:23180  .debug_str:000000000001065f .LASF4722
C:\Users\CYMR90~1\AppData\Local\Temp\ccScBURM.s:23612  .debug_str:000000000001227c .LASF4723
C:\Users\CYMR90~1\AppData\Local\Temp\ccScBURM.s:19950  .debug_str:000000000000355a .LASF4724
C:\Users\CYMR90~1\AppData\Local\Temp\ccScBURM.s:20804  .debug_str:0000000000006bdc .LASF4725
C:\Users\CYMR90~1\AppData\Local\Temp\ccScBURM.s:23666  .debug_str:00000000000125ee .LASF4726
C:\Users\CYMR90~1\AppData\Local\Temp\ccScBURM.s:29749  .debug_str:000000000002abd9 .LASF4727
C:\Users\CYMR90~1\AppData\Local\Temp\ccScBURM.s:22658  .debug_str:000000000000e601 .LASF4728
C:\Users\CYMR90~1\AppData\Local\Temp\ccScBURM.s:25561  .debug_str:000000000001a0b3 .LASF4729
C:\Users\CYMR90~1\AppData\Local\Temp\ccScBURM.s:19312  .debug_str:0000000000000d1e .LASF4730
C:\Users\CYMR90~1\AppData\Local\Temp\ccScBURM.s:28977  .debug_str:0000000000027aae .LASF4731
C:\Users\CYMR90~1\AppData\Local\Temp\ccScBURM.s:30195  .debug_str:000000000002c9b3 .LASF4732
C:\Users\CYMR90~1\AppData\Local\Temp\ccScBURM.s:22440  .debug_str:000000000000d8fe .LASF4733
C:\Users\CYMR90~1\AppData\Local\Temp\ccScBURM.s:25083  .debug_str:00000000000181b4 .LASF4734
C:\Users\CYMR90~1\AppData\Local\Temp\ccScBURM.s:19460  .debug_str:0000000000001621 .LASF4735
C:\Users\CYMR90~1\AppData\Local\Temp\ccScBURM.s:28033  .debug_str:0000000000023be0 .LASF4736
C:\Users\CYMR90~1\AppData\Local\Temp\ccScBURM.s:24548  .debug_str:0000000000015e16 .LASF4737
C:\Users\CYMR90~1\AppData\Local\Temp\ccScBURM.s:29673  .debug_str:000000000002a791 .LASF4738
C:\Users\CYMR90~1\AppData\Local\Temp\ccScBURM.s:28633  .debug_str:00000000000264b0 .LASF4739
C:\Users\CYMR90~1\AppData\Local\Temp\ccScBURM.s:29675  .debug_str:000000000002a7af .LASF4740
C:\Users\CYMR90~1\AppData\Local\Temp\ccScBURM.s:26089  .debug_str:000000000001c39c .LASF4741
C:\Users\CYMR90~1\AppData\Local\Temp\ccScBURM.s:19408  .debug_str:0000000000001306 .LASF4742
C:\Users\CYMR90~1\AppData\Local\Temp\ccScBURM.s:28407  .debug_str:000000000002563b .LASF4743
C:\Users\CYMR90~1\AppData\Local\Temp\ccScBURM.s:25989  .debug_str:000000000001bd6d .LASF4744
C:\Users\CYMR90~1\AppData\Local\Temp\ccScBURM.s:20580  .debug_str:0000000000005dfe .LASF4745
C:\Users\CYMR90~1\AppData\Local\Temp\ccScBURM.s:22664  .debug_str:000000000000e64f .LASF4746
C:\Users\CYMR90~1\AppData\Local\Temp\ccScBURM.s:27103  .debug_str:0000000000020392 .LASF4747
C:\Users\CYMR90~1\AppData\Local\Temp\ccScBURM.s:23798  .debug_str:0000000000012e95 .LASF4748
C:\Users\CYMR90~1\AppData\Local\Temp\ccScBURM.s:28775  .debug_str:0000000000026d84 .LASF4749
C:\Users\CYMR90~1\AppData\Local\Temp\ccScBURM.s:24318  .debug_str:000000000001501f .LASF4750
C:\Users\CYMR90~1\AppData\Local\Temp\ccScBURM.s:24076  .debug_str:000000000001407f .LASF4751
C:\Users\CYMR90~1\AppData\Local\Temp\ccScBURM.s:22150  .debug_str:000000000000c533 .LASF4752
C:\Users\CYMR90~1\AppData\Local\Temp\ccScBURM.s:26969  .debug_str:000000000001fb69 .LASF4753
C:\Users\CYMR90~1\AppData\Local\Temp\ccScBURM.s:22762  .debug_str:000000000000ecd8 .LASF4754
C:\Users\CYMR90~1\AppData\Local\Temp\ccScBURM.s:20492  .debug_str:0000000000005886 .LASF4755
C:\Users\CYMR90~1\AppData\Local\Temp\ccScBURM.s:29515  .debug_str:0000000000029dd5 .LASF4756
C:\Users\CYMR90~1\AppData\Local\Temp\ccScBURM.s:27277  .debug_str:0000000000020e6a .LASF4757
C:\Users\CYMR90~1\AppData\Local\Temp\ccScBURM.s:30023  .debug_str:000000000002be4d .LASF4758
C:\Users\CYMR90~1\AppData\Local\Temp\ccScBURM.s:22964  .debug_str:000000000000f95e .LASF4759
C:\Users\CYMR90~1\AppData\Local\Temp\ccScBURM.s:21390  .debug_str:00000000000092e7 .LASF4760
C:\Users\CYMR90~1\AppData\Local\Temp\ccScBURM.s:29707  .debug_str:000000000002a966 .LASF4761
C:\Users\CYMR90~1\AppData\Local\Temp\ccScBURM.s:27367  .debug_str:000000000002141b .LASF4762
C:\Users\CYMR90~1\AppData\Local\Temp\ccScBURM.s:29179  .debug_str:0000000000028902 .LASF4763
C:\Users\CYMR90~1\AppData\Local\Temp\ccScBURM.s:20794  .debug_str:0000000000006b3e .LASF4764
C:\Users\CYMR90~1\AppData\Local\Temp\ccScBURM.s:27517  .debug_str:0000000000021d60 .LASF4765
C:\Users\CYMR90~1\AppData\Local\Temp\ccScBURM.s:29341  .debug_str:0000000000029349 .LASF4766
C:\Users\CYMR90~1\AppData\Local\Temp\ccScBURM.s:29077  .debug_str:000000000002821b .LASF4767
C:\Users\CYMR90~1\AppData\Local\Temp\ccScBURM.s:28371  .debug_str:00000000000253a7 .LASF4768
C:\Users\CYMR90~1\AppData\Local\Temp\ccScBURM.s:25535  .debug_str:0000000000019f3f .LASF4769
C:\Users\CYMR90~1\AppData\Local\Temp\ccScBURM.s:21558  .debug_str:0000000000009da7 .LASF4770
C:\Users\CYMR90~1\AppData\Local\Temp\ccScBURM.s:22966  .debug_str:000000000000f980 .LASF4771
C:\Users\CYMR90~1\AppData\Local\Temp\ccScBURM.s:19674  .debug_str:0000000000002315 .LASF4772
C:\Users\CYMR90~1\AppData\Local\Temp\ccScBURM.s:21702  .debug_str:000000000000a6b3 .LASF4773
C:\Users\CYMR90~1\AppData\Local\Temp\ccScBURM.s:26607  .debug_str:000000000001e57c .LASF4774
C:\Users\CYMR90~1\AppData\Local\Temp\ccScBURM.s:24861  .debug_str:0000000000017407 .LASF4775
C:\Users\CYMR90~1\AppData\Local\Temp\ccScBURM.s:22362  .debug_str:000000000000d3d4 .LASF4776
C:\Users\CYMR90~1\AppData\Local\Temp\ccScBURM.s:30077  .debug_str:000000000002c1a8 .LASF4777
C:\Users\CYMR90~1\AppData\Local\Temp\ccScBURM.s:24694  .debug_str:000000000001673b .LASF4778
C:\Users\CYMR90~1\AppData\Local\Temp\ccScBURM.s:29737  .debug_str:000000000002ab1b .LASF4779
C:\Users\CYMR90~1\AppData\Local\Temp\ccScBURM.s:19882  .debug_str:00000000000030b7 .LASF4780
C:\Users\CYMR90~1\AppData\Local\Temp\ccScBURM.s:28129  .debug_str:00000000000242f7 .LASF4781
C:\Users\CYMR90~1\AppData\Local\Temp\ccScBURM.s:24704  .debug_str:0000000000016841 .LASF4782
C:\Users\CYMR90~1\AppData\Local\Temp\ccScBURM.s:21278  .debug_str:0000000000008bfe .LASF4783
C:\Users\CYMR90~1\AppData\Local\Temp\ccScBURM.s:28855  .debug_str:0000000000027302 .LASF4784
C:\Users\CYMR90~1\AppData\Local\Temp\ccScBURM.s:27803  .debug_str:0000000000022e5c .LASF4785
C:\Users\CYMR90~1\AppData\Local\Temp\ccScBURM.s:19646  .debug_str:0000000000002170 .LASF4786
C:\Users\CYMR90~1\AppData\Local\Temp\ccScBURM.s:20754  .debug_str:00000000000068d1 .LASF4787
C:\Users\CYMR90~1\AppData\Local\Temp\ccScBURM.s:28997  .debug_str:0000000000027c21 .LASF4788
C:\Users\CYMR90~1\AppData\Local\Temp\ccScBURM.s:26537  .debug_str:000000000001e179 .LASF4789
C:\Users\CYMR90~1\AppData\Local\Temp\ccScBURM.s:21108  .debug_str:0000000000008115 .LASF4790
C:\Users\CYMR90~1\AppData\Local\Temp\ccScBURM.s:28911  .debug_str:0000000000027611 .LASF4791
C:\Users\CYMR90~1\AppData\Local\Temp\ccScBURM.s:22826  .debug_str:000000000000f054 .LASF4792
C:\Users\CYMR90~1\AppData\Local\Temp\ccScBURM.s:26225  .debug_str:000000000001ccc0 .LASF4793
C:\Users\CYMR90~1\AppData\Local\Temp\ccScBURM.s:26357  .debug_str:000000000001d5c0 .LASF4794
C:\Users\CYMR90~1\AppData\Local\Temp\ccScBURM.s:19630  .debug_str:000000000000209b .LASF4795
C:\Users\CYMR90~1\AppData\Local\Temp\ccScBURM.s:22992  .debug_str:000000000000fad9 .LASF4796
C:\Users\CYMR90~1\AppData\Local\Temp\ccScBURM.s:29493  .debug_str:0000000000029cad .LASF4797
C:\Users\CYMR90~1\AppData\Local\Temp\ccScBURM.s:22804  .debug_str:000000000000ef0d .LASF4798
C:\Users\CYMR90~1\AppData\Local\Temp\ccScBURM.s:26143  .debug_str:000000000001c6da .LASF4799
C:\Users\CYMR90~1\AppData\Local\Temp\ccScBURM.s:21880  .debug_str:000000000000b298 .LASF4800
C:\Users\CYMR90~1\AppData\Local\Temp\ccScBURM.s:25009  .debug_str:0000000000017d30 .LASF4801
C:\Users\CYMR90~1\AppData\Local\Temp\ccScBURM.s:23208  .debug_str:0000000000010815 .LASF4802
C:\Users\CYMR90~1\AppData\Local\Temp\ccScBURM.s:19718  .debug_str:00000000000025da .LASF4803
C:\Users\CYMR90~1\AppData\Local\Temp\ccScBURM.s:27787  .debug_str:0000000000022d6f .LASF4804
C:\Users\CYMR90~1\AppData\Local\Temp\ccScBURM.s:19446  .debug_str:0000000000001528 .LASF4805
C:\Users\CYMR90~1\AppData\Local\Temp\ccScBURM.s:19280  .debug_str:0000000000000b5b .LASF4806
C:\Users\CYMR90~1\AppData\Local\Temp\ccScBURM.s:20344  .debug_str:0000000000004fad .LASF4807
C:\Users\CYMR90~1\AppData\Local\Temp\ccScBURM.s:20972  .debug_str:0000000000007717 .LASF4808
C:\Users\CYMR90~1\AppData\Local\Temp\ccScBURM.s:28587  .debug_str:00000000000261d1 .LASF4809
C:\Users\CYMR90~1\AppData\Local\Temp\ccScBURM.s:19634  .debug_str:00000000000020d0 .LASF4810
C:\Users\CYMR90~1\AppData\Local\Temp\ccScBURM.s:27337  .debug_str:00000000000211b4 .LASF4811
C:\Users\CYMR90~1\AppData\Local\Temp\ccScBURM.s:21956  .debug_str:000000000000b7e9 .LASF4812
C:\Users\CYMR90~1\AppData\Local\Temp\ccScBURM.s:24777  .debug_str:0000000000016f1c .LASF4813
C:\Users\CYMR90~1\AppData\Local\Temp\ccScBURM.s:21316  .debug_str:0000000000008eb3 .LASF4814
C:\Users\CYMR90~1\AppData\Local\Temp\ccScBURM.s:26955  .debug_str:000000000001fa8d .LASF4815
C:\Users\CYMR90~1\AppData\Local\Temp\ccScBURM.s:27577  .debug_str:00000000000220ef .LASF4816
C:\Users\CYMR90~1\AppData\Local\Temp\ccScBURM.s:25151  .debug_str:00000000000185b9 .LASF4817
C:\Users\CYMR90~1\AppData\Local\Temp\ccScBURM.s:27667  .debug_str:0000000000022621 .LASF4818
C:\Users\CYMR90~1\AppData\Local\Temp\ccScBURM.s:24626  .debug_str:000000000001631d .LASF4819
C:\Users\CYMR90~1\AppData\Local\Temp\ccScBURM.s:24530  .debug_str:0000000000015cdb .LASF4820
C:\Users\CYMR90~1\AppData\Local\Temp\ccScBURM.s:24124  .debug_str:000000000001439e .LASF4821
C:\Users\CYMR90~1\AppData\Local\Temp\ccScBURM.s:26677  .debug_str:000000000001e9dc .LASF4822
C:\Users\CYMR90~1\AppData\Local\Temp\ccScBURM.s:23380  .debug_str:00000000000112cb .LASF4823
C:\Users\CYMR90~1\AppData\Local\Temp\ccScBURM.s:26399  .debug_str:000000000001d8bf .LASF4824
C:\Users\CYMR90~1\AppData\Local\Temp\ccScBURM.s:30251  .debug_str:000000000002cdbb .LASF4825
C:\Users\CYMR90~1\AppData\Local\Temp\ccScBURM.s:22650  .debug_str:000000000000e57f .LASF4826
C:\Users\CYMR90~1\AppData\Local\Temp\ccScBURM.s:25111  .debug_str:000000000001835d .LASF4827
C:\Users\CYMR90~1\AppData\Local\Temp\ccScBURM.s:19498  .debug_str:000000000000191c .LASF4828
C:\Users\CYMR90~1\AppData\Local\Temp\ccScBURM.s:20134  .debug_str:000000000000413a .LASF4829
C:\Users\CYMR90~1\AppData\Local\Temp\ccScBURM.s:20138  .debug_str:000000000000420a .LASF4830
C:\Users\CYMR90~1\AppData\Local\Temp\ccScBURM.s:23288  .debug_str:0000000000010d9d .LASF4831
C:\Users\CYMR90~1\AppData\Local\Temp\ccScBURM.s:28053  .debug_str:0000000000023d22 .LASF4832
C:\Users\CYMR90~1\AppData\Local\Temp\ccScBURM.s:21982  .debug_str:000000000000b9c5 .LASF4833
C:\Users\CYMR90~1\AppData\Local\Temp\ccScBURM.s:21698  .debug_str:000000000000a675 .LASF4834
C:\Users\CYMR90~1\AppData\Local\Temp\ccScBURM.s:27217  .debug_str:0000000000020b0c .LASF4835
C:\Users\CYMR90~1\AppData\Local\Temp\ccScBURM.s:21050  .debug_str:0000000000007c3b .LASF4836
C:\Users\CYMR90~1\AppData\Local\Temp\ccScBURM.s:28465  .debug_str:0000000000025a52 .LASF4837
C:\Users\CYMR90~1\AppData\Local\Temp\ccScBURM.s:28113  .debug_str:00000000000241c8 .LASF4838
C:\Users\CYMR90~1\AppData\Local\Temp\ccScBURM.s:23122  .debug_str:000000000001031b .LASF4839
C:\Users\CYMR90~1\AppData\Local\Temp\ccScBURM.s:24410  .debug_str:000000000001554f .LASF4840
C:\Users\CYMR90~1\AppData\Local\Temp\ccScBURM.s:29877  .debug_str:000000000002b435 .LASF4841
C:\Users\CYMR90~1\AppData\Local\Temp\ccScBURM.s:28159  .debug_str:00000000000244ed .LASF4842
C:\Users\CYMR90~1\AppData\Local\Temp\ccScBURM.s:25397  .debug_str:0000000000019623 .LASF4843
C:\Users\CYMR90~1\AppData\Local\Temp\ccScBURM.s:26423  .debug_str:000000000001da0f .LASF4844
C:\Users\CYMR90~1\AppData\Local\Temp\ccScBURM.s:24614  .debug_str:0000000000016254 .LASF4845
C:\Users\CYMR90~1\AppData\Local\Temp\ccScBURM.s:21328  .debug_str:0000000000008f6d .LASF4846
C:\Users\CYMR90~1\AppData\Local\Temp\ccScBURM.s:25401  .debug_str:000000000001966b .LASF4847
C:\Users\CYMR90~1\AppData\Local\Temp\ccScBURM.s:25201  .debug_str:00000000000188de .LASF4848
C:\Users\CYMR90~1\AppData\Local\Temp\ccScBURM.s:24869  .debug_str:0000000000017463 .LASF4849
C:\Users\CYMR90~1\AppData\Local\Temp\ccScBURM.s:24640  .debug_str:00000000000163c8 .LASF4850
C:\Users\CYMR90~1\AppData\Local\Temp\ccScBURM.s:20086  .debug_str:0000000000003e1e .LASF4851
C:\Users\CYMR90~1\AppData\Local\Temp\ccScBURM.s:28875  .debug_str:0000000000027404 .LASF4852
C:\Users\CYMR90~1\AppData\Local\Temp\ccScBURM.s:22622  .debug_str:000000000000e3df .LASF4853
C:\Users\CYMR90~1\AppData\Local\Temp\ccScBURM.s:20126  .debug_str:00000000000040b7 .LASF4854
C:\Users\CYMR90~1\AppData\Local\Temp\ccScBURM.s:24254  .debug_str:0000000000014bb5 .LASF4855
C:\Users\CYMR90~1\AppData\Local\Temp\ccScBURM.s:22618  .debug_str:000000000000e3a0 .LASF4856
C:\Users\CYMR90~1\AppData\Local\Temp\ccScBURM.s:19658  .debug_str:000000000000223a .LASF4857
C:\Users\CYMR90~1\AppData\Local\Temp\ccScBURM.s:29715  .debug_str:000000000002a9ec .LASF4858
C:\Users\CYMR90~1\AppData\Local\Temp\ccScBURM.s:21228  .debug_str:00000000000088c1 .LASF4859
C:\Users\CYMR90~1\AppData\Local\Temp\ccScBURM.s:19840  .debug_str:0000000000002e08 .LASF4860
C:\Users\CYMR90~1\AppData\Local\Temp\ccScBURM.s:23796  .debug_str:0000000000012e7f .LASF4861
C:\Users\CYMR90~1\AppData\Local\Temp\ccScBURM.s:29447  .debug_str:00000000000299d4 .LASF4862
C:\Users\CYMR90~1\AppData\Local\Temp\ccScBURM.s:25525  .debug_str:0000000000019e9c .LASF4863
C:\Users\CYMR90~1\AppData\Local\Temp\ccScBURM.s:25563  .debug_str:000000000001a0ca .LASF4864
C:\Users\CYMR90~1\AppData\Local\Temp\ccScBURM.s:28411  .debug_str:0000000000025689 .LASF4865
C:\Users\CYMR90~1\AppData\Local\Temp\ccScBURM.s:24352  .debug_str:0000000000015233 .LASF4866
C:\Users\CYMR90~1\AppData\Local\Temp\ccScBURM.s:30227  .debug_str:000000000002cb7d .LASF4867
C:\Users\CYMR90~1\AppData\Local\Temp\ccScBURM.s:29129  .debug_str:00000000000285c1 .LASF4868
C:\Users\CYMR90~1\AppData\Local\Temp\ccScBURM.s:27885  .debug_str:00000000000232c9 .LASF4869
C:\Users\CYMR90~1\AppData\Local\Temp\ccScBURM.s:26707  .debug_str:000000000001eb77 .LASF4870
C:\Users\CYMR90~1\AppData\Local\Temp\ccScBURM.s:23182  .debug_str:000000000001069d .LASF4871
C:\Users\CYMR90~1\AppData\Local\Temp\ccScBURM.s:30119  .debug_str:000000000002c4d2 .LASF4872
C:\Users\CYMR90~1\AppData\Local\Temp\ccScBURM.s:28285  .debug_str:0000000000024d2b .LASF4873
C:\Users\CYMR90~1\AppData\Local\Temp\ccScBURM.s:28195  .debug_str:0000000000024709 .LASF4874
C:\Users\CYMR90~1\AppData\Local\Temp\ccScBURM.s:20846  .debug_str:0000000000006ea8 .LASF4875
C:\Users\CYMR90~1\AppData\Local\Temp\ccScBURM.s:24664  .debug_str:0000000000016599 .LASF4876
C:\Users\CYMR90~1\AppData\Local\Temp\ccScBURM.s:28941  .debug_str:000000000002780f .LASF4877
C:\Users\CYMR90~1\AppData\Local\Temp\ccScBURM.s:26207  .debug_str:000000000001cb7b .LASF4878
C:\Users\CYMR90~1\AppData\Local\Temp\ccScBURM.s:28739  .debug_str:0000000000026afe .LASF4879
C:\Users\CYMR90~1\AppData\Local\Temp\ccScBURM.s:24975  .debug_str:0000000000017b45 .LASF4880
C:\Users\CYMR90~1\AppData\Local\Temp\ccScBURM.s:19826  .debug_str:0000000000002d08 .LASF4881
C:\Users\CYMR90~1\AppData\Local\Temp\ccScBURM.s:21128  .debug_str:000000000000827c .LASF4882
C:\Users\CYMR90~1\AppData\Local\Temp\ccScBURM.s:26191  .debug_str:000000000001ca79 .LASF4883
C:\Users\CYMR90~1\AppData\Local\Temp\ccScBURM.s:21742  .debug_str:000000000000a935 .LASF4884
C:\Users\CYMR90~1\AppData\Local\Temp\ccScBURM.s:20724  .debug_str:00000000000066a8 .LASF4885
C:\Users\CYMR90~1\AppData\Local\Temp\ccScBURM.s:24658  .debug_str:000000000001654c .LASF4886
C:\Users\CYMR90~1\AppData\Local\Temp\ccScBURM.s:25815  .debug_str:000000000001b2e9 .LASF4887
C:\Users\CYMR90~1\AppData\Local\Temp\ccScBURM.s:20118  .debug_str:0000000000004051 .LASF4888
C:\Users\CYMR90~1\AppData\Local\Temp\ccScBURM.s:28485  .debug_str:0000000000025b8c .LASF4889
C:\Users\CYMR90~1\AppData\Local\Temp\ccScBURM.s:22700  .debug_str:000000000000e8d4 .LASF4890
C:\Users\CYMR90~1\AppData\Local\Temp\ccScBURM.s:27415  .debug_str:000000000002171b .LASF4891
C:\Users\CYMR90~1\AppData\Local\Temp\ccScBURM.s:24158  .debug_str:000000000001458e .LASF4892
C:\Users\CYMR90~1\AppData\Local\Temp\ccScBURM.s:21842  .debug_str:000000000000b055 .LASF4893
C:\Users\CYMR90~1\AppData\Local\Temp\ccScBURM.s:27233  .debug_str:0000000000020bfd .LASF4894
C:\Users\CYMR90~1\AppData\Local\Temp\ccScBURM.s:28599  .debug_str:0000000000026264 .LASF4895
C:\Users\CYMR90~1\AppData\Local\Temp\ccScBURM.s:26921  .debug_str:000000000001f868 .LASF4896
C:\Users\CYMR90~1\AppData\Local\Temp\ccScBURM.s:27519  .debug_str:0000000000021d84 .LASF4897
C:\Users\CYMR90~1\AppData\Local\Temp\ccScBURM.s:25787  .debug_str:000000000001b0df .LASF4898
C:\Users\CYMR90~1\AppData\Local\Temp\ccScBURM.s:27073  .debug_str:0000000000020190 .LASF4899
C:\Users\CYMR90~1\AppData\Local\Temp\ccScBURM.s:28547  .debug_str:0000000000025f6b .LASF4900
C:\Users\CYMR90~1\AppData\Local\Temp\ccScBURM.s:28037  .debug_str:0000000000023c20 .LASF4901
C:\Users\CYMR90~1\AppData\Local\Temp\ccScBURM.s:27863  .debug_str:0000000000023172 .LASF4902
C:\Users\CYMR90~1\AppData\Local\Temp\ccScBURM.s:30281  .debug_str:000000000002cf62 .LASF4903
C:\Users\CYMR90~1\AppData\Local\Temp\ccScBURM.s:20718  .debug_str:0000000000006649 .LASF4904
C:\Users\CYMR90~1\AppData\Local\Temp\ccScBURM.s:20364  .debug_str:00000000000050d1 .LASF4905
C:\Users\CYMR90~1\AppData\Local\Temp\ccScBURM.s:27761  .debug_str:0000000000022bf0 .LASF4906
C:\Users\CYMR90~1\AppData\Local\Temp\ccScBURM.s:27713  .debug_str:00000000000228d7 .LASF4907
C:\Users\CYMR90~1\AppData\Local\Temp\ccScBURM.s:24174  .debug_str:00000000000146fb .LASF4908
C:\Users\CYMR90~1\AppData\Local\Temp\ccScBURM.s:19264  .debug_str:0000000000000a01 .LASF4909
C:\Users\CYMR90~1\AppData\Local\Temp\ccScBURM.s:23952  .debug_str:0000000000013912 .LASF4910
C:\Users\CYMR90~1\AppData\Local\Temp\ccScBURM.s:25061  .debug_str:000000000001802c .LASF4911
C:\Users\CYMR90~1\AppData\Local\Temp\ccScBURM.s:22686  .debug_str:000000000000e7f4 .LASF4912
C:\Users\CYMR90~1\AppData\Local\Temp\ccScBURM.s:26253  .debug_str:000000000001cf21 .LASF4913
C:\Users\CYMR90~1\AppData\Local\Temp\ccScBURM.s:24290  .debug_str:0000000000014e52 .LASF4914
C:\Users\CYMR90~1\AppData\Local\Temp\ccScBURM.s:19642  .debug_str:0000000000002129 .LASF4915
C:\Users\CYMR90~1\AppData\Local\Temp\ccScBURM.s:21082  .debug_str:0000000000007ee0 .LASF4916
C:\Users\CYMR90~1\AppData\Local\Temp\ccScBURM.s:22122  .debug_str:000000000000c38f .LASF4917
C:\Users\CYMR90~1\AppData\Local\Temp\ccScBURM.s:24432  .debug_str:00000000000156a0 .LASF4918
C:\Users\CYMR90~1\AppData\Local\Temp\ccScBURM.s:25937  .debug_str:000000000001b9f2 .LASF4919
C:\Users\CYMR90~1\AppData\Local\Temp\ccScBURM.s:20202  .debug_str:0000000000004602 .LASF4920
C:\Users\CYMR90~1\AppData\Local\Temp\ccScBURM.s:21204  .debug_str:000000000000873f .LASF4921
C:\Users\CYMR90~1\AppData\Local\Temp\ccScBURM.s:20252  .debug_str:0000000000004a05 .LASF4922
C:\Users\CYMR90~1\AppData\Local\Temp\ccScBURM.s:26517  .debug_str:000000000001e056 .LASF4923
C:\Users\CYMR90~1\AppData\Local\Temp\ccScBURM.s:28131  .debug_str:0000000000024313 .LASF4924
C:\Users\CYMR90~1\AppData\Local\Temp\ccScBURM.s:29621  .debug_str:000000000002a465 .LASF4925
C:\Users\CYMR90~1\AppData\Local\Temp\ccScBURM.s:23034  .debug_str:000000000000fd67 .LASF4926
C:\Users\CYMR90~1\AppData\Local\Temp\ccScBURM.s:27543  .debug_str:0000000000021ee8 .LASF4927
C:\Users\CYMR90~1\AppData\Local\Temp\ccScBURM.s:29069  .debug_str:00000000000281aa .LASF4928
C:\Users\CYMR90~1\AppData\Local\Temp\ccScBURM.s:27925  .debug_str:0000000000023573 .LASF4929
C:\Users\CYMR90~1\AppData\Local\Temp\ccScBURM.s:24310  .debug_str:0000000000014fa2 .LASF4930
C:\Users\CYMR90~1\AppData\Local\Temp\ccScBURM.s:29821  .debug_str:000000000002b01f .LASF4931
C:\Users\CYMR90~1\AppData\Local\Temp\ccScBURM.s:21878  .debug_str:000000000000b26f .LASF4932
C:\Users\CYMR90~1\AppData\Local\Temp\ccScBURM.s:29327  .debug_str:0000000000029276 .LASF4933
C:\Users\CYMR90~1\AppData\Local\Temp\ccScBURM.s:24384  .debug_str:00000000000153f4 .LASF4934
C:\Users\CYMR90~1\AppData\Local\Temp\ccScBURM.s:27425  .debug_str:00000000000217a5 .LASF4935
C:\Users\CYMR90~1\AppData\Local\Temp\ccScBURM.s:29725  .debug_str:000000000002aa8a .LASF4936
C:\Users\CYMR90~1\AppData\Local\Temp\ccScBURM.s:19236  .debug_str:000000000000083d .LASF4937
C:\Users\CYMR90~1\AppData\Local\Temp\ccScBURM.s:19184  .debug_str:000000000000050e .LASF4938
C:\Users\CYMR90~1\AppData\Local\Temp\ccScBURM.s:26721  .debug_str:000000000001ec4c .LASF4939
C:\Users\CYMR90~1\AppData\Local\Temp\ccScBURM.s:21624  .debug_str:000000000000a1ba .LASF4940
C:\Users\CYMR90~1\AppData\Local\Temp\ccScBURM.s:20468  .debug_str:0000000000005727 .LASF4941
C:\Users\CYMR90~1\AppData\Local\Temp\ccScBURM.s:22962  .debug_str:000000000000f934 .LASF4942
C:\Users\CYMR90~1\AppData\Local\Temp\ccScBURM.s:25195  .debug_str:000000000001886c .LASF4943
C:\Users\CYMR90~1\AppData\Local\Temp\ccScBURM.s:19740  .debug_str:000000000000277a .LASF4944
C:\Users\CYMR90~1\AppData\Local\Temp\ccScBURM.s:25437  .debug_str:0000000000019970 .LASF4945
C:\Users\CYMR90~1\AppData\Local\Temp\ccScBURM.s:26777  .debug_str:000000000001efc7 .LASF4946
C:\Users\CYMR90~1\AppData\Local\Temp\ccScBURM.s:19272  .debug_str:0000000000000ac7 .LASF4947
C:\Users\CYMR90~1\AppData\Local\Temp\ccScBURM.s:20700  .debug_str:0000000000006556 .LASF4948
C:\Users\CYMR90~1\AppData\Local\Temp\ccScBURM.s:23708  .debug_str:00000000000128ae .LASF4949
C:\Users\CYMR90~1\AppData\Local\Temp\ccScBURM.s:26053  .debug_str:000000000001c1a3 .LASF4950
C:\Users\CYMR90~1\AppData\Local\Temp\ccScBURM.s:26269  .debug_str:000000000001d090 .LASF4951
C:\Users\CYMR90~1\AppData\Local\Temp\ccScBURM.s:29773  .debug_str:000000000002ad63 .LASF4952
C:\Users\CYMR90~1\AppData\Local\Temp\ccScBURM.s:22040  .debug_str:000000000000be60 .LASF4953
C:\Users\CYMR90~1\AppData\Local\Temp\ccScBURM.s:25031  .debug_str:0000000000017ea7 .LASF4954
C:\Users\CYMR90~1\AppData\Local\Temp\ccScBURM.s:24050  .debug_str:0000000000013ef1 .LASF4955
C:\Users\CYMR90~1\AppData\Local\Temp\ccScBURM.s:25015  .debug_str:0000000000017d86 .LASF4956
C:\Users\CYMR90~1\AppData\Local\Temp\ccScBURM.s:27219  .debug_str:0000000000020b22 .LASF4957
C:\Users\CYMR90~1\AppData\Local\Temp\ccScBURM.s:27223  .debug_str:0000000000020b5b .LASF4958
C:\Users\CYMR90~1\AppData\Local\Temp\ccScBURM.s:19862  .debug_str:0000000000002f47 .LASF4959
C:\Users\CYMR90~1\AppData\Local\Temp\ccScBURM.s:23130  .debug_str:0000000000010390 .LASF4960
C:\Users\CYMR90~1\AppData\Local\Temp\ccScBURM.s:29519  .debug_str:0000000000029e12 .LASF4961
C:\Users\CYMR90~1\AppData\Local\Temp\ccScBURM.s:21238  .debug_str:0000000000008982 .LASF4962
C:\Users\CYMR90~1\AppData\Local\Temp\ccScBURM.s:22998  .debug_str:000000000000fb2f .LASF4963
C:\Users\CYMR90~1\AppData\Local\Temp\ccScBURM.s:19800  .debug_str:0000000000002b59 .LASF4964
C:\Users\CYMR90~1\AppData\Local\Temp\ccScBURM.s:23024  .debug_str:000000000000fcdc .LASF4965
C:\Users\CYMR90~1\AppData\Local\Temp\ccScBURM.s:24821  .debug_str:0000000000017193 .LASF4966
C:\Users\CYMR90~1\AppData\Local\Temp\ccScBURM.s:22480  .debug_str:000000000000db4e .LASF4967
C:\Users\CYMR90~1\AppData\Local\Temp\ccScBURM.s:24903  .debug_str:0000000000017695 .LASF4968
C:\Users\CYMR90~1\AppData\Local\Temp\ccScBURM.s:21510  .debug_str:0000000000009ab9 .LASF4969
C:\Users\CYMR90~1\AppData\Local\Temp\ccScBURM.s:24304  .debug_str:0000000000014f44 .LASF4970
C:\Users\CYMR90~1\AppData\Local\Temp\ccScBURM.s:21260  .debug_str:0000000000008aea .LASF4971
C:\Users\CYMR90~1\AppData\Local\Temp\ccScBURM.s:21194  .debug_str:00000000000086b1 .LASF4972
C:\Users\CYMR90~1\AppData\Local\Temp\ccScBURM.s:29771  .debug_str:000000000002ad3e .LASF4973
C:\Users\CYMR90~1\AppData\Local\Temp\ccScBURM.s:28087  .debug_str:0000000000023fca .LASF4974
C:\Users\CYMR90~1\AppData\Local\Temp\ccScBURM.s:29757  .debug_str:000000000002ac73 .LASF4975
C:\Users\CYMR90~1\AppData\Local\Temp\ccScBURM.s:25093  .debug_str:0000000000018236 .LASF4976
C:\Users\CYMR90~1\AppData\Local\Temp\ccScBURM.s:29257  .debug_str:0000000000028da5 .LASF4977
C:\Users\CYMR90~1\AppData\Local\Temp\ccScBURM.s:24843  .debug_str:00000000000172f1 .LASF4978
C:\Users\CYMR90~1\AppData\Local\Temp\ccScBURM.s:21486  .debug_str:0000000000009912 .LASF4979
C:\Users\CYMR90~1\AppData\Local\Temp\ccScBURM.s:28685  .debug_str:00000000000267dd .LASF4980
C:\Users\CYMR90~1\AppData\Local\Temp\ccScBURM.s:25077  .debug_str:000000000001814b .LASF4981
C:\Users\CYMR90~1\AppData\Local\Temp\ccScBURM.s:24983  .debug_str:0000000000017ba6 .LASF4982
C:\Users\CYMR90~1\AppData\Local\Temp\ccScBURM.s:28813  .debug_str:0000000000026f7a .LASF4983
C:\Users\CYMR90~1\AppData\Local\Temp\ccScBURM.s:22884  .debug_str:000000000000f3d7 .LASF4984
C:\Users\CYMR90~1\AppData\Local\Temp\ccScBURM.s:26229  .debug_str:000000000001cd04 .LASF4985
C:\Users\CYMR90~1\AppData\Local\Temp\ccScBURM.s:25267  .debug_str:0000000000018db9 .LASF4986
C:\Users\CYMR90~1\AppData\Local\Temp\ccScBURM.s:22200  .debug_str:000000000000c8c4 .LASF4987
C:\Users\CYMR90~1\AppData\Local\Temp\ccScBURM.s:28339  .debug_str:0000000000025185 .LASF4988
C:\Users\CYMR90~1\AppData\Local\Temp\ccScBURM.s:21616  .debug_str:000000000000a144 .LASF4989
C:\Users\CYMR90~1\AppData\Local\Temp\ccScBURM.s:28167  .debug_str:0000000000024552 .LASF4990
C:\Users\CYMR90~1\AppData\Local\Temp\ccScBURM.s:25993  .debug_str:000000000001bdb7 .LASF4991
C:\Users\CYMR90~1\AppData\Local\Temp\ccScBURM.s:22340  .debug_str:000000000000d227 .LASF4992
C:\Users\CYMR90~1\AppData\Local\Temp\ccScBURM.s:23198  .debug_str:0000000000010798 .LASF4993
C:\Users\CYMR90~1\AppData\Local\Temp\ccScBURM.s:19582  .debug_str:0000000000001e12 .LASF4994
C:\Users\CYMR90~1\AppData\Local\Temp\ccScBURM.s:24773  .debug_str:0000000000016ed7 .LASF4995
C:\Users\CYMR90~1\AppData\Local\Temp\ccScBURM.s:26073  .debug_str:000000000001c2b3 .LASF4996
C:\Users\CYMR90~1\AppData\Local\Temp\ccScBURM.s:24202  .debug_str:00000000000148aa .LASF4997
C:\Users\CYMR90~1\AppData\Local\Temp\ccScBURM.s:20194  .debug_str:0000000000004581 .LASF4998
C:\Users\CYMR90~1\AppData\Local\Temp\ccScBURM.s:25719  .debug_str:000000000001ac37 .LASF4999
C:\Users\CYMR90~1\AppData\Local\Temp\ccScBURM.s:28435  .debug_str:000000000002587d .LASF5000
C:\Users\CYMR90~1\AppData\Local\Temp\ccScBURM.s:22938  .debug_str:000000000000f71d .LASF5001
C:\Users\CYMR90~1\AppData\Local\Temp\ccScBURM.s:29967  .debug_str:000000000002ba2a .LASF5002
C:\Users\CYMR90~1\AppData\Local\Temp\ccScBURM.s:19104  .debug_str:000000000000006a .LASF5003
C:\Users\CYMR90~1\AppData\Local\Temp\ccScBURM.s:22112  .debug_str:000000000000c30c .LASF5004
C:\Users\CYMR90~1\AppData\Local\Temp\ccScBURM.s:20720  .debug_str:000000000000666c .LASF5005
C:\Users\CYMR90~1\AppData\Local\Temp\ccScBURM.s:20926  .debug_str:000000000000743e .LASF5006
C:\Users\CYMR90~1\AppData\Local\Temp\ccScBURM.s:24438  .debug_str:00000000000156f1 .LASF5007
C:\Users\CYMR90~1\AppData\Local\Temp\ccScBURM.s:21988  .debug_str:000000000000ba0c .LASF5008
C:\Users\CYMR90~1\AppData\Local\Temp\ccScBURM.s:24294  .debug_str:0000000000014e99 .LASF5009
C:\Users\CYMR90~1\AppData\Local\Temp\ccScBURM.s:21944  .debug_str:000000000000b71e .LASF5010
C:\Users\CYMR90~1\AppData\Local\Temp\ccScBURM.s:24484  .debug_str:00000000000159bb .LASF5011
C:\Users\CYMR90~1\AppData\Local\Temp\ccScBURM.s:23396  .debug_str:00000000000113a6 .LASF5012
C:\Users\CYMR90~1\AppData\Local\Temp\ccScBURM.s:23324  .debug_str:0000000000010f7f .LASF5013
C:\Users\CYMR90~1\AppData\Local\Temp\ccScBURM.s:23632  .debug_str:00000000000123c2 .LASF5014
C:\Users\CYMR90~1\AppData\Local\Temp\ccScBURM.s:24360  .debug_str:00000000000152bc .LASF5015
C:\Users\CYMR90~1\AppData\Local\Temp\ccScBURM.s:23304  .debug_str:0000000000010e6f .LASF5016
C:\Users\CYMR90~1\AppData\Local\Temp\ccScBURM.s:29131  .debug_str:00000000000285e3 .LASF5017
C:\Users\CYMR90~1\AppData\Local\Temp\ccScBURM.s:20974  .debug_str:0000000000007739 .LASF5018
C:\Users\CYMR90~1\AppData\Local\Temp\ccScBURM.s:30015  .debug_str:000000000002bd4a .LASF5019
C:\Users\CYMR90~1\AppData\Local\Temp\ccScBURM.s:30031  .debug_str:000000000002beda .LASF5020
C:\Users\CYMR90~1\AppData\Local\Temp\ccScBURM.s:27247  .debug_str:0000000000020ce4 .LASF5021
C:\Users\CYMR90~1\AppData\Local\Temp\ccScBURM.s:19298  .debug_str:0000000000000c54 .LASF5022
C:\Users\CYMR90~1\AppData\Local\Temp\ccScBURM.s:21984  .debug_str:000000000000b9dd .LASF5023
C:\Users\CYMR90~1\AppData\Local\Temp\ccScBURM.s:26703  .debug_str:000000000001eb3b .LASF5024
C:\Users\CYMR90~1\AppData\Local\Temp\ccScBURM.s:20708  .debug_str:00000000000065c1 .LASF5025
C:\Users\CYMR90~1\AppData\Local\Temp\ccScBURM.s:22420  .debug_str:000000000000d7fe .LASF5026
C:\Users\CYMR90~1\AppData\Local\Temp\ccScBURM.s:23818  .debug_str:0000000000012ff6 .LASF5027
C:\Users\CYMR90~1\AppData\Local\Temp\ccScBURM.s:23240  .debug_str:00000000000109fd .LASF5028
C:\Users\CYMR90~1\AppData\Local\Temp\ccScBURM.s:27531  .debug_str:0000000000021e51 .LASF5029
C:\Users\CYMR90~1\AppData\Local\Temp\ccScBURM.s:26581  .debug_str:000000000001e3f3 .LASF5030
C:\Users\CYMR90~1\AppData\Local\Temp\ccScBURM.s:20390  .debug_str:0000000000005279 .LASF5031
C:\Users\CYMR90~1\AppData\Local\Temp\ccScBURM.s:27369  .debug_str:000000000002143f .LASF5032
C:\Users\CYMR90~1\AppData\Local\Temp\ccScBURM.s:24538  .debug_str:0000000000015d50 .LASF5033
C:\Users\CYMR90~1\AppData\Local\Temp\ccScBURM.s:20622  .debug_str:0000000000006080 .LASF5034
C:\Users\CYMR90~1\AppData\Local\Temp\ccScBURM.s:25523  .debug_str:0000000000019e80 .LASF5035
C:\Users\CYMR90~1\AppData\Local\Temp\ccScBURM.s:24370  .debug_str:0000000000015325 .LASF5036
C:\Users\CYMR90~1\AppData\Local\Temp\ccScBURM.s:27021  .debug_str:000000000001fece .LASF5037
C:\Users\CYMR90~1\AppData\Local\Temp\ccScBURM.s:29161  .debug_str:00000000000287ce .LASF5038
C:\Users\CYMR90~1\AppData\Local\Temp\ccScBURM.s:24028  .debug_str:0000000000013d92 .LASF5039
C:\Users\CYMR90~1\AppData\Local\Temp\ccScBURM.s:23964  .debug_str:00000000000139cc .LASF5040
C:\Users\CYMR90~1\AppData\Local\Temp\ccScBURM.s:19692  .debug_str:000000000000244c .LASF5041
C:\Users\CYMR90~1\AppData\Local\Temp\ccScBURM.s:26633  .debug_str:000000000001e724 .LASF5042
C:\Users\CYMR90~1\AppData\Local\Temp\ccScBURM.s:26093  .debug_str:000000000001c3d0 .LASF5043
C:\Users\CYMR90~1\AppData\Local\Temp\ccScBURM.s:28391  .debug_str:000000000002552e .LASF5044
C:\Users\CYMR90~1\AppData\Local\Temp\ccScBURM.s:20762  .debug_str:0000000000006944 .LASF5045
C:\Users\CYMR90~1\AppData\Local\Temp\ccScBURM.s:19548  .debug_str:0000000000001c13 .LASF5046
C:\Users\CYMR90~1\AppData\Local\Temp\ccScBURM.s:21348  .debug_str:000000000000907b .LASF5047
C:\Users\CYMR90~1\AppData\Local\Temp\ccScBURM.s:21512  .debug_str:0000000000009adc .LASF5048
C:\Users\CYMR90~1\AppData\Local\Temp\ccScBURM.s:19560  .debug_str:0000000000001cb4 .LASF5049
C:\Users\CYMR90~1\AppData\Local\Temp\ccScBURM.s:30057  .debug_str:000000000002c070 .LASF5050
C:\Users\CYMR90~1\AppData\Local\Temp\ccScBURM.s:24246  .debug_str:0000000000014b3d .LASF5051
C:\Users\CYMR90~1\AppData\Local\Temp\ccScBURM.s:24644  .debug_str:000000000001640b .LASF5052
C:\Users\CYMR90~1\AppData\Local\Temp\ccScBURM.s:23754  .debug_str:0000000000012bc9 .LASF5053
C:\Users\CYMR90~1\AppData\Local\Temp\ccScBURM.s:21828  .debug_str:000000000000af6f .LASF5054
C:\Users\CYMR90~1\AppData\Local\Temp\ccScBURM.s:24308  .debug_str:0000000000014f89 .LASF5055
C:\Users\CYMR90~1\AppData\Local\Temp\ccScBURM.s:20896  .debug_str:0000000000007218 .LASF5056
C:\Users\CYMR90~1\AppData\Local\Temp\ccScBURM.s:25073  .debug_str:000000000001810e .LASF5057
C:\Users\CYMR90~1\AppData\Local\Temp\ccScBURM.s:22984  .debug_str:000000000000fa6e .LASF5058
C:\Users\CYMR90~1\AppData\Local\Temp\ccScBURM.s:24468  .debug_str:00000000000158cd .LASF5059
C:\Users\CYMR90~1\AppData\Local\Temp\ccScBURM.s:21036  .debug_str:0000000000007b64 .LASF5060
C:\Users\CYMR90~1\AppData\Local\Temp\ccScBURM.s:25739  .debug_str:000000000001ad87 .LASF5061
C:\Users\CYMR90~1\AppData\Local\Temp\ccScBURM.s:30297  .debug_str:000000000002d060 .LASF5062
C:\Users\CYMR90~1\AppData\Local\Temp\ccScBURM.s:19988  .debug_str:00000000000037dc .LASF5063
C:\Users\CYMR90~1\AppData\Local\Temp\ccScBURM.s:23616  .debug_str:00000000000122ac .LASF5064
C:\Users\CYMR90~1\AppData\Local\Temp\ccScBURM.s:20950  .debug_str:00000000000075ad .LASF5065
C:\Users\CYMR90~1\AppData\Local\Temp\ccScBURM.s:20348  .debug_str:0000000000004feb .LASF5066
C:\Users\CYMR90~1\AppData\Local\Temp\ccScBURM.s:21560  .debug_str:0000000000009dc6 .LASF5067
C:\Users\CYMR90~1\AppData\Local\Temp\ccScBURM.s:21508  .debug_str:0000000000009a98 .LASF5068
C:\Users\CYMR90~1\AppData\Local\Temp\ccScBURM.s:22398  .debug_str:000000000000d66a .LASF5069
C:\Users\CYMR90~1\AppData\Local\Temp\ccScBURM.s:19640  .debug_str:000000000000210c .LASF5070
C:\Users\CYMR90~1\AppData\Local\Temp\ccScBURM.s:27499  .debug_str:0000000000021c3a .LASF5071
C:\Users\CYMR90~1\AppData\Local\Temp\ccScBURM.s:27139  .debug_str:000000000002063b .LASF5072
C:\Users\CYMR90~1\AppData\Local\Temp\ccScBURM.s:28823  .debug_str:0000000000027058 .LASF5073
C:\Users\CYMR90~1\AppData\Local\Temp\ccScBURM.s:19506  .debug_str:000000000000197e .LASF5074
C:\Users\CYMR90~1\AppData\Local\Temp\ccScBURM.s:23006  .debug_str:000000000000fbb6 .LASF5075
C:\Users\CYMR90~1\AppData\Local\Temp\ccScBURM.s:21396  .debug_str:000000000000933f .LASF5076
C:\Users\CYMR90~1\AppData\Local\Temp\ccScBURM.s:28279  .debug_str:0000000000024cdc .LASF5077
C:\Users\CYMR90~1\AppData\Local\Temp\ccScBURM.s:29739  .debug_str:000000000002ab41 .LASF5078
C:\Users\CYMR90~1\AppData\Local\Temp\ccScBURM.s:24795  .debug_str:0000000000017036 .LASF5079
C:\Users\CYMR90~1\AppData\Local\Temp\ccScBURM.s:24907  .debug_str:00000000000176dc .LASF5080
C:\Users\CYMR90~1\AppData\Local\Temp\ccScBURM.s:26449  .debug_str:000000000001db8b .LASF5081
C:\Users\CYMR90~1\AppData\Local\Temp\ccScBURM.s:21634  .debug_str:000000000000a26b .LASF5082
C:\Users\CYMR90~1\AppData\Local\Temp\ccScBURM.s:26887  .debug_str:000000000001f661 .LASF5083
C:\Users\CYMR90~1\AppData\Local\Temp\ccScBURM.s:28051  .debug_str:0000000000023d05 .LASF5084
C:\Users\CYMR90~1\AppData\Local\Temp\ccScBURM.s:23746  .debug_str:0000000000012b5c .LASF5085
C:\Users\CYMR90~1\AppData\Local\Temp\ccScBURM.s:26201  .debug_str:000000000001cb11 .LASF5086
C:\Users\CYMR90~1\AppData\Local\Temp\ccScBURM.s:20174  .debug_str:000000000000442c .LASF5087
C:\Users\CYMR90~1\AppData\Local\Temp\ccScBURM.s:28975  .debug_str:0000000000027a8f .LASF5088
C:\Users\CYMR90~1\AppData\Local\Temp\ccScBURM.s:23412  .debug_str:0000000000011499 .LASF5089
C:\Users\CYMR90~1\AppData\Local\Temp\ccScBURM.s:21996  .debug_str:000000000000ba73 .LASF5090
C:\Users\CYMR90~1\AppData\Local\Temp\ccScBURM.s:28043  .debug_str:0000000000023c74 .LASF5091
C:\Users\CYMR90~1\AppData\Local\Temp\ccScBURM.s:28145  .debug_str:0000000000024415 .LASF5092
C:\Users\CYMR90~1\AppData\Local\Temp\ccScBURM.s:24440  .debug_str:0000000000015707 .LASF5093
C:\Users\CYMR90~1\AppData\Local\Temp\ccScBURM.s:20016  .debug_str:00000000000039af .LASF5094
C:\Users\CYMR90~1\AppData\Local\Temp\ccScBURM.s:24775  .debug_str:0000000000016f01 .LASF5095
C:\Users\CYMR90~1\AppData\Local\Temp\ccScBURM.s:19958  .debug_str:00000000000035eb .LASF5096
C:\Users\CYMR90~1\AppData\Local\Temp\ccScBURM.s:20286  .debug_str:0000000000004c21 .LASF5097
C:\Users\CYMR90~1\AppData\Local\Temp\ccScBURM.s:20674  .debug_str:00000000000063b3 .LASF5098
C:\Users\CYMR90~1\AppData\Local\Temp\ccScBURM.s:28621  .debug_str:00000000000263e2 .LASF5099
C:\Users\CYMR90~1\AppData\Local\Temp\ccScBURM.s:28867  .debug_str:00000000000273a1 .LASF5100
C:\Users\CYMR90~1\AppData\Local\Temp\ccScBURM.s:19210  .debug_str:00000000000006a1 .LASF5101
C:\Users\CYMR90~1\AppData\Local\Temp\ccScBURM.s:25655  .debug_str:000000000001a865 .LASF5102
C:\Users\CYMR90~1\AppData\Local\Temp\ccScBURM.s:29995  .debug_str:000000000002bc10 .LASF5103
C:\Users\CYMR90~1\AppData\Local\Temp\ccScBURM.s:21814  .debug_str:000000000000aded .LASF5104
C:\Users\CYMR90~1\AppData\Local\Temp\ccScBURM.s:20756  .debug_str:00000000000068ec .LASF5105
C:\Users\CYMR90~1\AppData\Local\Temp\ccScBURM.s:28923  .debug_str:00000000000276ac .LASF5106
C:\Users\CYMR90~1\AppData\Local\Temp\ccScBURM.s:25679  .debug_str:000000000001a9cc .LASF5107
C:\Users\CYMR90~1\AppData\Local\Temp\ccScBURM.s:26793  .debug_str:000000000001f0d0 .LASF5108
C:\Users\CYMR90~1\AppData\Local\Temp\ccScBURM.s:25929  .debug_str:000000000001b98d .LASF5109
C:\Users\CYMR90~1\AppData\Local\Temp\ccScBURM.s:20466  .debug_str:000000000000570e .LASF5110
C:\Users\CYMR90~1\AppData\Local\Temp\ccScBURM.s:27817  .debug_str:0000000000022f24 .LASF5111
C:\Users\CYMR90~1\AppData\Local\Temp\ccScBURM.s:27837  .debug_str:0000000000023008 .LASF5112
C:\Users\CYMR90~1\AppData\Local\Temp\ccScBURM.s:28311  .debug_str:0000000000024eb4 .LASF5113
C:\Users\CYMR90~1\AppData\Local\Temp\ccScBURM.s:29233  .debug_str:0000000000028c02 .LASF5114
C:\Users\CYMR90~1\AppData\Local\Temp\ccScBURM.s:27877  .debug_str:000000000002325c .LASF5115
C:\Users\CYMR90~1\AppData\Local\Temp\ccScBURM.s:29353  .debug_str:000000000002942b .LASF5116
C:\Users\CYMR90~1\AppData\Local\Temp\ccScBURM.s:23824  .debug_str:0000000000013054 .LASF5117
C:\Users\CYMR90~1\AppData\Local\Temp\ccScBURM.s:23654  .debug_str:000000000001251e .LASF5118
C:\Users\CYMR90~1\AppData\Local\Temp\ccScBURM.s:27409  .debug_str:000000000002169d .LASF5119
C:\Users\CYMR90~1\AppData\Local\Temp\ccScBURM.s:30269  .debug_str:000000000002ce93 .LASF5120
C:\Users\CYMR90~1\AppData\Local\Temp\ccScBURM.s:23828  .debug_str:0000000000013098 .LASF5121
C:\Users\CYMR90~1\AppData\Local\Temp\ccScBURM.s:24987  .debug_str:0000000000017be3 .LASF5122
C:\Users\CYMR90~1\AppData\Local\Temp\ccScBURM.s:20342  .debug_str:0000000000004f93 .LASF5123
C:\Users\CYMR90~1\AppData\Local\Temp\ccScBURM.s:27393  .debug_str:00000000000215a6 .LASF5124
C:\Users\CYMR90~1\AppData\Local\Temp\ccScBURM.s:24712  .debug_str:00000000000168cc .LASF5125
C:\Users\CYMR90~1\AppData\Local\Temp\ccScBURM.s:19860  .debug_str:0000000000002f2e .LASF5126
C:\Users\CYMR90~1\AppData\Local\Temp\ccScBURM.s:26697  .debug_str:000000000001eaed .LASF5127
C:\Users\CYMR90~1\AppData\Local\Temp\ccScBURM.s:27631  .debug_str:00000000000223ec .LASF5128
C:\Users\CYMR90~1\AppData\Local\Temp\ccScBURM.s:20628  .debug_str:00000000000060f2 .LASF5129
C:\Users\CYMR90~1\AppData\Local\Temp\ccScBURM.s:28081  .debug_str:0000000000023ea3 .LASF5130
C:\Users\CYMR90~1\AppData\Local\Temp\ccScBURM.s:26333  .debug_str:000000000001d448 .LASF5131
C:\Users\CYMR90~1\AppData\Local\Temp\ccScBURM.s:26313  .debug_str:000000000001d315 .LASF5132
C:\Users\CYMR90~1\AppData\Local\Temp\ccScBURM.s:27417  .debug_str:0000000000021746 .LASF5133
C:\Users\CYMR90~1\AppData\Local\Temp\ccScBURM.s:23702  .debug_str:0000000000012840 .LASF5134
C:\Users\CYMR90~1\AppData\Local\Temp\ccScBURM.s:25089  .debug_str:00000000000181fa .LASF5135
C:\Users\CYMR90~1\AppData\Local\Temp\ccScBURM.s:20922  .debug_str:00000000000073f3 .LASF5136
C:\Users\CYMR90~1\AppData\Local\Temp\ccScBURM.s:25661  .debug_str:000000000001a8af .LASF5137
C:\Users\CYMR90~1\AppData\Local\Temp\ccScBURM.s:29467  .debug_str:0000000000029b23 .LASF5138
C:\Users\CYMR90~1\AppData\Local\Temp\ccScBURM.s:22180  .debug_str:000000000000c733 .LASF5139
C:\Users\CYMR90~1\AppData\Local\Temp\ccScBURM.s:21798  .debug_str:000000000000acb0 .LASF5140
C:\Users\CYMR90~1\AppData\Local\Temp\ccScBURM.s:22814  .debug_str:000000000000ef8e .LASF5141
C:\Users\CYMR90~1\AppData\Local\Temp\ccScBURM.s:20796  .debug_str:0000000000006b62 .LASF5142
C:\Users\CYMR90~1\AppData\Local\Temp\ccScBURM.s:27063  .debug_str:0000000000020105 .LASF5143
C:\Users\CYMR90~1\AppData\Local\Temp\ccScBURM.s:19696  .debug_str:0000000000002482 .LASF5144
C:\Users\CYMR90~1\AppData\Local\Temp\ccScBURM.s:27865  .debug_str:0000000000023194 .LASF5145
C:\Users\CYMR90~1\AppData\Local\Temp\ccScBURM.s:24698  .debug_str:00000000000167a2 .LASF5146
C:\Users\CYMR90~1\AppData\Local\Temp\ccScBURM.s:29695  .debug_str:000000000002a8bb .LASF5147
C:\Users\CYMR90~1\AppData\Local\Temp\ccScBURM.s:23004  .debug_str:000000000000fb96 .LASF5148
C:\Users\CYMR90~1\AppData\Local\Temp\ccScBURM.s:29019  .debug_str:0000000000027d84 .LASF5149
C:\Users\CYMR90~1\AppData\Local\Temp\ccScBURM.s:20996  .debug_str:00000000000078b7 .LASF5150
C:\Users\CYMR90~1\AppData\Local\Temp\ccScBURM.s:22416  .debug_str:000000000000d7bf .LASF5151
C:\Users\CYMR90~1\AppData\Local\Temp\ccScBURM.s:30183  .debug_str:000000000002c8dd .LASF5152
C:\Users\CYMR90~1\AppData\Local\Temp\ccScBURM.s:22046  .debug_str:000000000000bed9 .LASF5153
C:\Users\CYMR90~1\AppData\Local\Temp\ccScBURM.s:21608  .debug_str:000000000000a0d7 .LASF5154
C:\Users\CYMR90~1\AppData\Local\Temp\ccScBURM.s:28927  .debug_str:0000000000027704 .LASF5155
C:\Users\CYMR90~1\AppData\Local\Temp\ccScBURM.s:23450  .debug_str:000000000001171c .LASF5156
C:\Users\CYMR90~1\AppData\Local\Temp\ccScBURM.s:20262  .debug_str:0000000000004a9e .LASF5157
C:\Users\CYMR90~1\AppData\Local\Temp\ccScBURM.s:21552  .debug_str:0000000000009d40 .LASF5158
C:\Users\CYMR90~1\AppData\Local\Temp\ccScBURM.s:25311  .debug_str:000000000001910c .LASF5159
C:\Users\CYMR90~1\AppData\Local\Temp\ccScBURM.s:26275  .debug_str:000000000001d0e8 .LASF5160
C:\Users\CYMR90~1\AppData\Local\Temp\ccScBURM.s:26491  .debug_str:000000000001ded8 .LASF5161
C:\Users\CYMR90~1\AppData\Local\Temp\ccScBURM.s:22262  .debug_str:000000000000cd5b .LASF5162
C:\Users\CYMR90~1\AppData\Local\Temp\ccScBURM.s:24496  .debug_str:0000000000015a60 .LASF5163
C:\Users\CYMR90~1\AppData\Local\Temp\ccScBURM.s:22652  .debug_str:000000000000e594 .LASF5164
C:\Users\CYMR90~1\AppData\Local\Temp\ccScBURM.s:25481  .debug_str:0000000000019c1d .LASF5165
C:\Users\CYMR90~1\AppData\Local\Temp\ccScBURM.s:25229  .debug_str:0000000000018aaf .LASF5166
C:\Users\CYMR90~1\AppData\Local\Temp\ccScBURM.s:27937  .debug_str:000000000002364e .LASF5167
C:\Users\CYMR90~1\AppData\Local\Temp\ccScBURM.s:20222  .debug_str:000000000000476c .LASF5168
C:\Users\CYMR90~1\AppData\Local\Temp\ccScBURM.s:19278  .debug_str:0000000000000b2a .LASF5169
C:\Users\CYMR90~1\AppData\Local\Temp\ccScBURM.s:23540  .debug_str:0000000000011db0 .LASF5170
C:\Users\CYMR90~1\AppData\Local\Temp\ccScBURM.s:24268  .debug_str:0000000000014c9f .LASF5171
C:\Users\CYMR90~1\AppData\Local\Temp\ccScBURM.s:30059  .debug_str:000000000002c088 .LASF5172
C:\Users\CYMR90~1\AppData\Local\Temp\ccScBURM.s:21142  .debug_str:0000000000008359 .LASF5173
C:\Users\CYMR90~1\AppData\Local\Temp\ccScBURM.s:21692  .debug_str:000000000000a61a .LASF5174
C:\Users\CYMR90~1\AppData\Local\Temp\ccScBURM.s:25317  .debug_str:000000000001916e .LASF5175
C:\Users\CYMR90~1\AppData\Local\Temp\ccScBURM.s:22592  .debug_str:000000000000e20f .LASF5176
C:\Users\CYMR90~1\AppData\Local\Temp\ccScBURM.s:30107  .debug_str:000000000002c416 .LASF5177
C:\Users\CYMR90~1\AppData\Local\Temp\ccScBURM.s:19510  .debug_str:00000000000019bc .LASF5178
C:\Users\CYMR90~1\AppData\Local\Temp\ccScBURM.s:29009  .debug_str:0000000000027cd3 .LASF5179
C:\Users\CYMR90~1\AppData\Local\Temp\ccScBURM.s:26393  .debug_str:000000000001d864 .LASF5180
C:\Users\CYMR90~1\AppData\Local\Temp\ccScBURM.s:24755  .debug_str:0000000000016d9e .LASF5181
C:\Users\CYMR90~1\AppData\Local\Temp\ccScBURM.s:21656  .debug_str:000000000000a3ea .LASF5182
C:\Users\CYMR90~1\AppData\Local\Temp\ccScBURM.s:27457  .debug_str:0000000000021967 .LASF5183
C:\Users\CYMR90~1\AppData\Local\Temp\ccScBURM.s:23830  .debug_str:00000000000130b8 .LASF5184
C:\Users\CYMR90~1\AppData\Local\Temp\ccScBURM.s:25215  .debug_str:00000000000189bd .LASF5185
C:\Users\CYMR90~1\AppData\Local\Temp\ccScBURM.s:23928  .debug_str:000000000001379d .LASF5186
C:\Users\CYMR90~1\AppData\Local\Temp\ccScBURM.s:28117  .debug_str:0000000000024215 .LASF5187
C:\Users\CYMR90~1\AppData\Local\Temp\ccScBURM.s:28623  .debug_str:00000000000263fd .LASF5188
C:\Users\CYMR90~1\AppData\Local\Temp\ccScBURM.s:19758  .debug_str:00000000000028ac .LASF5189
C:\Users\CYMR90~1\AppData\Local\Temp\ccScBURM.s:23510  .debug_str:0000000000011c0e .LASF5190
C:\Users\CYMR90~1\AppData\Local\Temp\ccScBURM.s:27019  .debug_str:000000000001fea3 .LASF5191
C:\Users\CYMR90~1\AppData\Local\Temp\ccScBURM.s:19906  .debug_str:0000000000003271 .LASF5192
C:\Users\CYMR90~1\AppData\Local\Temp\ccScBURM.s:26949  .debug_str:000000000001fa16 .LASF5193
C:\Users\CYMR90~1\AppData\Local\Temp\ccScBURM.s:23914  .debug_str:00000000000136cd .LASF5194
C:\Users\CYMR90~1\AppData\Local\Temp\ccScBURM.s:29347  .debug_str:00000000000293af .LASF5195
C:\Users\CYMR90~1\AppData\Local\Temp\ccScBURM.s:21640  .debug_str:000000000000a2c2 .LASF5196
C:\Users\CYMR90~1\AppData\Local\Temp\ccScBURM.s:24570  .debug_str:0000000000015fa9 .LASF5197
C:\Users\CYMR90~1\AppData\Local\Temp\ccScBURM.s:19584  .debug_str:0000000000001e3c .LASF5198
C:\Users\CYMR90~1\AppData\Local\Temp\ccScBURM.s:20710  .debug_str:00000000000065d8 .LASF5199
C:\Users\CYMR90~1\AppData\Local\Temp\ccScBURM.s:29589  .debug_str:000000000002a20c .LASF5200
C:\Users\CYMR90~1\AppData\Local\Temp\ccScBURM.s:19838  .debug_str:0000000000002ddb .LASF5201
C:\Users\CYMR90~1\AppData\Local\Temp\ccScBURM.s:25741  .debug_str:000000000001ad9f .LASF5202
C:\Users\CYMR90~1\AppData\Local\Temp\ccScBURM.s:22914  .debug_str:000000000000f5ab .LASF5203
C:\Users\CYMR90~1\AppData\Local\Temp\ccScBURM.s:24086  .debug_str:0000000000014156 .LASF5204
C:\Users\CYMR90~1\AppData\Local\Temp\ccScBURM.s:29239  .debug_str:0000000000028c68 .LASF5205
C:\Users\CYMR90~1\AppData\Local\Temp\ccScBURM.s:21368  .debug_str:0000000000009186 .LASF5206
C:\Users\CYMR90~1\AppData\Local\Temp\ccScBURM.s:26249  .debug_str:000000000001cec5 .LASF5207
C:\Users\CYMR90~1\AppData\Local\Temp\ccScBURM.s:29637  .debug_str:000000000002a55a .LASF5208
C:\Users\CYMR90~1\AppData\Local\Temp\ccScBURM.s:20216  .debug_str:00000000000046f4 .LASF5209
C:\Users\CYMR90~1\AppData\Local\Temp\ccScBURM.s:28395  .debug_str:0000000000025575 .LASF5210
C:\Users\CYMR90~1\AppData\Local\Temp\ccScBURM.s:26909  .debug_str:000000000001f77e .LASF5211
C:\Users\CYMR90~1\AppData\Local\Temp\ccScBURM.s:26071  .debug_str:000000000001c28b .LASF5212
C:\Users\CYMR90~1\AppData\Local\Temp\ccScBURM.s:27043  .debug_str:0000000000020000 .LASF5213
C:\Users\CYMR90~1\AppData\Local\Temp\ccScBURM.s:30247  .debug_str:000000000002cd5c .LASF5214
C:\Users\CYMR90~1\AppData\Local\Temp\ccScBURM.s:19962  .debug_str:000000000000361a .LASF5215
C:\Users\CYMR90~1\AppData\Local\Temp\ccScBURM.s:26655  .debug_str:000000000001e896 .LASF5216
C:\Users\CYMR90~1\AppData\Local\Temp\ccScBURM.s:27427  .debug_str:00000000000217d1 .LASF5217
C:\Users\CYMR90~1\AppData\Local\Temp\ccScBURM.s:19530  .debug_str:0000000000001aec .LASF5218
C:\Users\CYMR90~1\AppData\Local\Temp\ccScBURM.s:23742  .debug_str:0000000000012b0f .LASF5219
C:\Users\CYMR90~1\AppData\Local\Temp\ccScBURM.s:25019  .debug_str:0000000000017dcb .LASF5220
C:\Users\CYMR90~1\AppData\Local\Temp\ccScBURM.s:23248  .debug_str:0000000000010aab .LASF5221
C:\Users\CYMR90~1\AppData\Local\Temp\ccScBURM.s:25123  .debug_str:00000000000183fb .LASF5222
C:\Users\CYMR90~1\AppData\Local\Temp\ccScBURM.s:25701  .debug_str:000000000001ab4c .LASF5223
C:\Users\CYMR90~1\AppData\Local\Temp\ccScBURM.s:27049  .debug_str:0000000000020061 .LASF5224
C:\Users\CYMR90~1\AppData\Local\Temp\ccScBURM.s:30283  .debug_str:000000000002cf84 .LASF5225
C:\Users\CYMR90~1\AppData\Local\Temp\ccScBURM.s:24196  .debug_str:0000000000014828 .LASF5226
C:\Users\CYMR90~1\AppData\Local\Temp\ccScBURM.s:25555  .debug_str:000000000001a058 .LASF5227
C:\Users\CYMR90~1\AppData\Local\Temp\ccScBURM.s:20428  .debug_str:00000000000054b7 .LASF5228
C:\Users\CYMR90~1\AppData\Local\Temp\ccScBURM.s:28139  .debug_str:000000000002438e .LASF5229
C:\Users\CYMR90~1\AppData\Local\Temp\ccScBURM.s:29013  .debug_str:0000000000027d16 .LASF5230
C:\Users\CYMR90~1\AppData\Local\Temp\ccScBURM.s:21016  .debug_str:00000000000079f9 .LASF5231
C:\Users\CYMR90~1\AppData\Local\Temp\ccScBURM.s:30067  .debug_str:000000000002c12f .LASF5232
C:\Users\CYMR90~1\AppData\Local\Temp\ccScBURM.s:22768  .debug_str:000000000000ed38 .LASF5233
C:\Users\CYMR90~1\AppData\Local\Temp\ccScBURM.s:24939  .debug_str:0000000000017905 .LASF5234
C:\Users\CYMR90~1\AppData\Local\Temp\ccScBURM.s:21122  .debug_str:000000000000821d .LASF5235
C:\Users\CYMR90~1\AppData\Local\Temp\ccScBURM.s:20726  .debug_str:00000000000066ca .LASF5236
C:\Users\CYMR90~1\AppData\Local\Temp\ccScBURM.s:20334  .debug_str:0000000000004f08 .LASF5237
C:\Users\CYMR90~1\AppData\Local\Temp\ccScBURM.s:28833  .debug_str:0000000000027191 .LASF5238
C:\Users\CYMR90~1\AppData\Local\Temp\ccScBURM.s:25065  .debug_str:0000000000018076 .LASF5239
C:\Users\CYMR90~1\AppData\Local\Temp\ccScBURM.s:23682  .debug_str:00000000000126f2 .LASF5240
C:\Users\CYMR90~1\AppData\Local\Temp\ccScBURM.s:22208  .debug_str:000000000000c956 .LASF5241
C:\Users\CYMR90~1\AppData\Local\Temp\ccScBURM.s:26637  .debug_str:000000000001e76c .LASF5242
C:\Users\CYMR90~1\AppData\Local\Temp\ccScBURM.s:21366  .debug_str:0000000000009155 .LASF5243
C:\Users\CYMR90~1\AppData\Local\Temp\ccScBURM.s:29797  .debug_str:000000000002aeae .LASF5244
C:\Users\CYMR90~1\AppData\Local\Temp\ccScBURM.s:26627  .debug_str:000000000001e690 .LASF5245
C:\Users\CYMR90~1\AppData\Local\Temp\ccScBURM.s:21214  .debug_str:00000000000087da .LASF5246
C:\Users\CYMR90~1\AppData\Local\Temp\ccScBURM.s:28919  .debug_str:000000000002767a .LASF5247
C:\Users\CYMR90~1\AppData\Local\Temp\ccScBURM.s:30289  .debug_str:000000000002cfde .LASF5248
C:\Users\CYMR90~1\AppData\Local\Temp\ccScBURM.s:26959  .debug_str:000000000001fabc .LASF5249
C:\Users\CYMR90~1\AppData\Local\Temp\ccScBURM.s:29207  .debug_str:0000000000028a8d .LASF5250
C:\Users\CYMR90~1\AppData\Local\Temp\ccScBURM.s:20316  .debug_str:0000000000004df7 .LASF5251
C:\Users\CYMR90~1\AppData\Local\Temp\ccScBURM.s:20648  .debug_str:000000000000623b .LASF5252
C:\Users\CYMR90~1\AppData\Local\Temp\ccScBURM.s:25575  .debug_str:000000000001a16f .LASF5253
C:\Users\CYMR90~1\AppData\Local\Temp\ccScBURM.s:24276  .debug_str:0000000000014d59 .LASF5254
C:\Users\CYMR90~1\AppData\Local\Temp\ccScBURM.s:23054  .debug_str:000000000000feb3 .LASF5255
C:\Users\CYMR90~1\AppData\Local\Temp\ccScBURM.s:29655  .debug_str:000000000002a673 .LASF5256
C:\Users\CYMR90~1\AppData\Local\Temp\ccScBURM.s:26009  .debug_str:000000000001beb7 .LASF5257
C:\Users\CYMR90~1\AppData\Local\Temp\ccScBURM.s:27491  .debug_str:0000000000021bb8 .LASF5258
C:\Users\CYMR90~1\AppData\Local\Temp\ccScBURM.s:25777  .debug_str:000000000001b03a .LASF5259
C:\Users\CYMR90~1\AppData\Local\Temp\ccScBURM.s:21414  .debug_str:0000000000009438 .LASF5260
C:\Users\CYMR90~1\AppData\Local\Temp\ccScBURM.s:19156  .debug_str:0000000000000398 .LASF5261
C:\Users\CYMR90~1\AppData\Local\Temp\ccScBURM.s:23470  .debug_str:000000000001192a .LASF5262
C:\Users\CYMR90~1\AppData\Local\Temp\ccScBURM.s:19742  .debug_str:00000000000027a2 .LASF5263
C:\Users\CYMR90~1\AppData\Local\Temp\ccScBURM.s:26685  .debug_str:000000000001ea46 .LASF5264
C:\Users\CYMR90~1\AppData\Local\Temp\ccScBURM.s:24298  .debug_str:0000000000014eee .LASF5265
C:\Users\CYMR90~1\AppData\Local\Temp\ccScBURM.s:19100  .debug_str:0000000000000000 .LASF5266
C:\Users\CYMR90~1\AppData\Local\Temp\ccScBURM.s:19540  .debug_str:0000000000001b91 .LASF5267
C:\Users\CYMR90~1\AppData\Local\Temp\ccScBURM.s:29349  .debug_str:00000000000293dc .LASF5268
C:\Users\CYMR90~1\AppData\Local\Temp\ccScBURM.s:28215  .debug_str:00000000000248a0 .LASF5269
C:\Users\CYMR90~1\AppData\Local\Temp\ccScBURM.s:28983  .debug_str:0000000000027b06 .LASF5270
C:\Users\CYMR90~1\AppData\Local\Temp\ccScBURM.s:20432  .debug_str:0000000000005501 .LASF5271
C:\Users\CYMR90~1\AppData\Local\Temp\ccScBURM.s:24724  .debug_str:0000000000016992 .LASF5272
C:\Users\CYMR90~1\AppData\Local\Temp\ccScBURM.s:26995  .debug_str:000000000001fd03 .LASF5273
C:\Users\CYMR90~1\AppData\Local\Temp\ccScBURM.s:25667  .debug_str:000000000001a918 .LASF5274
C:\Users\CYMR90~1\AppData\Local\Temp\ccScBURM.s:30273  .debug_str:000000000002ced5 .LASF5275
C:\Users\CYMR90~1\AppData\Local\Temp\ccScBURM.s:24853  .debug_str:0000000000017382 .LASF5276
C:\Users\CYMR90~1\AppData\Local\Temp\ccScBURM.s:20616  .debug_str:0000000000006019 .LASF5277
C:\Users\CYMR90~1\AppData\Local\Temp\ccScBURM.s:22874  .debug_str:000000000000f33b .LASF5278
C:\Users\CYMR90~1\AppData\Local\Temp\ccScBURM.s:23578  .debug_str:000000000001203c .LASF5279
C:\Users\CYMR90~1\AppData\Local\Temp\ccScBURM.s:25177  .debug_str:000000000001871b .LASF5280
C:\Users\CYMR90~1\AppData\Local\Temp\ccScBURM.s:27503  .debug_str:0000000000021c67 .LASF5281
C:\Users\CYMR90~1\AppData\Local\Temp\ccScBURM.s:28381  .debug_str:0000000000025450 .LASF5282
C:\Users\CYMR90~1\AppData\Local\Temp\ccScBURM.s:29165  .debug_str:0000000000028803 .LASF5283
C:\Users\CYMR90~1\AppData\Local\Temp\ccScBURM.s:28625  .debug_str:0000000000026427 .LASF5284
C:\Users\CYMR90~1\AppData\Local\Temp\ccScBURM.s:23384  .debug_str:0000000000011306 .LASF5285
C:\Users\CYMR90~1\AppData\Local\Temp\ccScBURM.s:22302  .debug_str:000000000000cf81 .LASF5286
C:\Users\CYMR90~1\AppData\Local\Temp\ccScBURM.s:27159  .debug_str:0000000000020745 .LASF5287
C:\Users\CYMR90~1\AppData\Local\Temp\ccScBURM.s:22952  .debug_str:000000000000f877 .LASF5288
C:\Users\CYMR90~1\AppData\Local\Temp\ccScBURM.s:22268  .debug_str:000000000000cdbc .LASF5289
C:\Users\CYMR90~1\AppData\Local\Temp\ccScBURM.s:28601  .debug_str:000000000002628e .LASF5290
C:\Users\CYMR90~1\AppData\Local\Temp\ccScBURM.s:23842  .debug_str:0000000000013195 .LASF5291
C:\Users\CYMR90~1\AppData\Local\Temp\ccScBURM.s:22076  .debug_str:000000000000c0c9 .LASF5292
C:\Users\CYMR90~1\AppData\Local\Temp\ccScBURM.s:20004  .debug_str:0000000000003900 .LASF5293
C:\Users\CYMR90~1\AppData\Local\Temp\ccScBURM.s:20912  .debug_str:0000000000007358 .LASF5294
C:\Users\CYMR90~1\AppData\Local\Temp\ccScBURM.s:22956  .debug_str:000000000000f8c6 .LASF5295
C:\Users\CYMR90~1\AppData\Local\Temp\ccScBURM.s:20494  .debug_str:00000000000058a8 .LASF5296
C:\Users\CYMR90~1\AppData\Local\Temp\ccScBURM.s:29045  .debug_str:0000000000027f7f .LASF5297
C:\Users\CYMR90~1\AppData\Local\Temp\ccScBURM.s:23630  .debug_str:00000000000123a0 .LASF5298
C:\Users\CYMR90~1\AppData\Local\Temp\ccScBURM.s:19830  .debug_str:0000000000002d3c .LASF5299
C:\Users\CYMR90~1\AppData\Local\Temp\ccScBURM.s:28457  .debug_str:00000000000259de .LASF5300
C:\Users\CYMR90~1\AppData\Local\Temp\ccScBURM.s:28845  .debug_str:0000000000027266 .LASF5301
C:\Users\CYMR90~1\AppData\Local\Temp\ccScBURM.s:23400  .debug_str:00000000000113e6 .LASF5302
C:\Users\CYMR90~1\AppData\Local\Temp\ccScBURM.s:24560  .debug_str:0000000000015ef3 .LASF5303
C:\Users\CYMR90~1\AppData\Local\Temp\ccScBURM.s:27869  .debug_str:00000000000231cd .LASF5304
C:\Users\CYMR90~1\AppData\Local\Temp\ccScBURM.s:26619  .debug_str:000000000001e610 .LASF5305
C:\Users\CYMR90~1\AppData\Local\Temp\ccScBURM.s:27521  .debug_str:0000000000021dac .LASF5306
C:\Users\CYMR90~1\AppData\Local\Temp\ccScBURM.s:30295  .debug_str:000000000002d03a .LASF5307
C:\Users\CYMR90~1\AppData\Local\Temp\ccScBURM.s:27699  .debug_str:00000000000227e9 .LASF5308
C:\Users\CYMR90~1\AppData\Local\Temp\ccScBURM.s:28289  .debug_str:0000000000024d6c .LASF5309
C:\Users\CYMR90~1\AppData\Local\Temp\ccScBURM.s:21000  .debug_str:00000000000078ed .LASF5310
C:\Users\CYMR90~1\AppData\Local\Temp\ccScBURM.s:20368  .debug_str:0000000000005118 .LASF5311
C:\Users\CYMR90~1\AppData\Local\Temp\ccScBURM.s:27729  .debug_str:000000000002299b .LASF5312
C:\Users\CYMR90~1\AppData\Local\Temp\ccScBURM.s:23692  .debug_str:0000000000012795 .LASF5313
C:\Users\CYMR90~1\AppData\Local\Temp\ccScBURM.s:28189  .debug_str:00000000000246aa .LASF5314
C:\Users\CYMR90~1\AppData\Local\Temp\ccScBURM.s:29487  .debug_str:0000000000029c5a .LASF5315
C:\Users\CYMR90~1\AppData\Local\Temp\ccScBURM.s:27783  .debug_str:0000000000022d31 .LASF5316
C:\Users\CYMR90~1\AppData\Local\Temp\ccScBURM.s:28423  .debug_str:00000000000257c7 .LASF5317
C:\Users\CYMR90~1\AppData\Local\Temp\ccScBURM.s:28473  .debug_str:0000000000025aec .LASF5318
C:\Users\CYMR90~1\AppData\Local\Temp\ccScBURM.s:27271  .debug_str:0000000000020e28 .LASF5319
C:\Users\CYMR90~1\AppData\Local\Temp\ccScBURM.s:23050  .debug_str:000000000000fe6d .LASF5320
C:\Users\CYMR90~1\AppData\Local\Temp\ccScBURM.s:23216  .debug_str:0000000000010890 .LASF5321
C:\Users\CYMR90~1\AppData\Local\Temp\ccScBURM.s:28307  .debug_str:0000000000024e75 .LASF5322
C:\Users\CYMR90~1\AppData\Local\Temp\ccScBURM.s:21750  .debug_str:000000000000a9a9 .LASF5323
C:\Users\CYMR90~1\AppData\Local\Temp\ccScBURM.s:23250  .debug_str:0000000000010aca .LASF5324
C:\Users\CYMR90~1\AppData\Local\Temp\ccScBURM.s:29745  .debug_str:000000000002aba1 .LASF5325
C:\Users\CYMR90~1\AppData\Local\Temp\ccScBURM.s:21286  .debug_str:0000000000008c76 .LASF5326
C:\Users\CYMR90~1\AppData\Local\Temp\ccScBURM.s:21858  .debug_str:000000000000b15b .LASF5327
C:\Users\CYMR90~1\AppData\Local\Temp\ccScBURM.s:28481  .debug_str:0000000000025b5d .LASF5328
C:\Users\CYMR90~1\AppData\Local\Temp\ccScBURM.s:19372  .debug_str:0000000000001123 .LASF5329
C:\Users\CYMR90~1\AppData\Local\Temp\ccScBURM.s:24636  .debug_str:0000000000016390 .LASF5330
C:\Users\CYMR90~1\AppData\Local\Temp\ccScBURM.s:26699  .debug_str:000000000001eb05 .LASF5331
C:\Users\CYMR90~1\AppData\Local\Temp\ccScBURM.s:28969  .debug_str:0000000000027a19 .LASF5332
C:\Users\CYMR90~1\AppData\Local\Temp\ccScBURM.s:22716  .debug_str:000000000000e9e2 .LASF5333
C:\Users\CYMR90~1\AppData\Local\Temp\ccScBURM.s:28999  .debug_str:0000000000027c3c .LASF5334
C:\Users\CYMR90~1\AppData\Local\Temp\ccScBURM.s:26641  .debug_str:000000000001e7c0 .LASF5335
C:\Users\CYMR90~1\AppData\Local\Temp\ccScBURM.s:23454  .debug_str:0000000000011767 .LASF5336
C:\Users\CYMR90~1\AppData\Local\Temp\ccScBURM.s:26947  .debug_str:000000000001f9e5 .LASF5337
C:\Users\CYMR90~1\AppData\Local\Temp\ccScBURM.s:20350  .debug_str:0000000000005009 .LASF5338
C:\Users\CYMR90~1\AppData\Local\Temp\ccScBURM.s:23980  .debug_str:0000000000013aad .LASF5339
C:\Users\CYMR90~1\AppData\Local\Temp\ccScBURM.s:26989  .debug_str:000000000001fc6c .LASF5340
C:\Users\CYMR90~1\AppData\Local\Temp\ccScBURM.s:22576  .debug_str:000000000000e128 .LASF5341
C:\Users\CYMR90~1\AppData\Local\Temp\ccScBURM.s:26209  .debug_str:000000000001cba1 .LASF5342
C:\Users\CYMR90~1\AppData\Local\Temp\ccScBURM.s:22694  .debug_str:000000000000e870 .LASF5343
C:\Users\CYMR90~1\AppData\Local\Temp\ccScBURM.s:29383  .debug_str:000000000002962b .LASF5344
C:\Users\CYMR90~1\AppData\Local\Temp\ccScBURM.s:30145  .debug_str:000000000002c62c .LASF5345
C:\Users\CYMR90~1\AppData\Local\Temp\ccScBURM.s:22726  .debug_str:000000000000ea56 .LASF5346
C:\Users\CYMR90~1\AppData\Local\Temp\ccScBURM.s:19450  .debug_str:000000000000156e .LASF5347
C:\Users\CYMR90~1\AppData\Local\Temp\ccScBURM.s:25821  .debug_str:000000000001b34c .LASF5348
C:\Users\CYMR90~1\AppData\Local\Temp\ccScBURM.s:28799  .debug_str:0000000000026ec1 .LASF5349
C:\Users\CYMR90~1\AppData\Local\Temp\ccScBURM.s:25709  .debug_str:000000000001abaf .LASF5350
C:\Users\CYMR90~1\AppData\Local\Temp\ccScBURM.s:26693  .debug_str:000000000001eabe .LASF5351
C:\Users\CYMR90~1\AppData\Local\Temp\ccScBURM.s:19302  .debug_str:0000000000000c90 .LASF5352
C:\Users\CYMR90~1\AppData\Local\Temp\ccScBURM.s:27289  .debug_str:0000000000020f0f .LASF5353
C:\Users\CYMR90~1\AppData\Local\Temp\ccScBURM.s:22212  .debug_str:000000000000c9ca .LASF5354
C:\Users\CYMR90~1\AppData\Local\Temp\ccScBURM.s:24502  .debug_str:0000000000015aca .LASF5355
C:\Users\CYMR90~1\AppData\Local\Temp\ccScBURM.s:22978  .debug_str:000000000000fa1d .LASF5356
C:\Users\CYMR90~1\AppData\Local\Temp\ccScBURM.s:25119  .debug_str:00000000000183cb .LASF5357
C:\Users\CYMR90~1\AppData\Local\Temp\ccScBURM.s:29645  .debug_str:000000000002a5dd .LASF5358
C:\Users\CYMR90~1\AppData\Local\Temp\ccScBURM.s:23910  .debug_str:0000000000013690 .LASF5359
C:\Users\CYMR90~1\AppData\Local\Temp\ccScBURM.s:26877  .debug_str:000000000001f5c7 .LASF5360
C:\Users\CYMR90~1\AppData\Local\Temp\ccScBURM.s:20978  .debug_str:0000000000007792 .LASF5361
C:\Users\CYMR90~1\AppData\Local\Temp\ccScBURM.s:28341  .debug_str:00000000000251b0 .LASF5362
C:\Users\CYMR90~1\AppData\Local\Temp\ccScBURM.s:20854  .debug_str:0000000000006f20 .LASF5363
C:\Users\CYMR90~1\AppData\Local\Temp\ccScBURM.s:28877  .debug_str:0000000000027429 .LASF5364
C:\Users\CYMR90~1\AppData\Local\Temp\ccScBURM.s:29361  .debug_str:0000000000029497 .LASF5365
C:\Users\CYMR90~1\AppData\Local\Temp\ccScBURM.s:27617  .debug_str:000000000002234b .LASF5366
C:\Users\CYMR90~1\AppData\Local\Temp\ccScBURM.s:24414  .debug_str:000000000001558e .LASF5367
C:\Users\CYMR90~1\AppData\Local\Temp\ccScBURM.s:21292  .debug_str:0000000000008cbd .LASF5368
C:\Users\CYMR90~1\AppData\Local\Temp\ccScBURM.s:19914  .debug_str:00000000000032fb .LASF5369
C:\Users\CYMR90~1\AppData\Local\Temp\ccScBURM.s:30055  .debug_str:000000000002c058 .LASF5370
C:\Users\CYMR90~1\AppData\Local\Temp\ccScBURM.s:21474  .debug_str:000000000000981b .LASF5371
C:\Users\CYMR90~1\AppData\Local\Temp\ccScBURM.s:21296  .debug_str:0000000000008ce4 .LASF5372
C:\Users\CYMR90~1\AppData\Local\Temp\ccScBURM.s:29553  .debug_str:000000000002a026 .LASF5373
C:\Users\CYMR90~1\AppData\Local\Temp\ccScBURM.s:22816  .debug_str:000000000000efb1 .LASF5374
C:\Users\CYMR90~1\AppData\Local\Temp\ccScBURM.s:29251  .debug_str:0000000000028d57 .LASF5375
C:\Users\CYMR90~1\AppData\Local\Temp\ccScBURM.s:21412  .debug_str:0000000000009420 .LASF5376
C:\Users\CYMR90~1\AppData\Local\Temp\ccScBURM.s:29947  .debug_str:000000000002b8ee .LASF5377
C:\Users\CYMR90~1\AppData\Local\Temp\ccScBURM.s:28545  .debug_str:0000000000025f53 .LASF5378
C:\Users\CYMR90~1\AppData\Local\Temp\ccScBURM.s:22960  .debug_str:000000000000f91c .LASF5379
C:\Users\CYMR90~1\AppData\Local\Temp\ccScBURM.s:20200  .debug_str:00000000000045ea .LASF5380
C:\Users\CYMR90~1\AppData\Local\Temp\ccScBURM.s:25669  .debug_str:000000000001a93f .LASF5381
C:\Users\CYMR90~1\AppData\Local\Temp\ccScBURM.s:28301  .debug_str:0000000000024e2a .LASF5382
C:\Users\CYMR90~1\AppData\Local\Temp\ccScBURM.s:22898  .debug_str:000000000000f4d5 .LASF5383
C:\Users\CYMR90~1\AppData\Local\Temp\ccScBURM.s:19208  .debug_str:0000000000000689 .LASF5384
C:\Users\CYMR90~1\AppData\Local\Temp\ccScBURM.s:19158  .debug_str:00000000000003c2 .LASF5385
C:\Users\CYMR90~1\AppData\Local\Temp\ccScBURM.s:19502  .debug_str:0000000000001945 .LASF5386
C:\Users\CYMR90~1\AppData\Local\Temp\ccScBURM.s:27951  .debug_str:0000000000023754 .LASF5387
C:\Users\CYMR90~1\AppData\Local\Temp\ccScBURM.s:28597  .debug_str:000000000002624d .LASF5388
C:\Users\CYMR90~1\AppData\Local\Temp\ccScBURM.s:23792  .debug_str:0000000000012e31 .LASF5389
C:\Users\CYMR90~1\AppData\Local\Temp\ccScBURM.s:25703  .debug_str:000000000001ab70 .LASF5390
C:\Users\CYMR90~1\AppData\Local\Temp\ccScBURM.s:27017  .debug_str:000000000001fe8c .LASF5391
C:\Users\CYMR90~1\AppData\Local\Temp\ccScBURM.s:24510  .debug_str:0000000000015b98 .LASF5392
C:\Users\CYMR90~1\AppData\Local\Temp\ccScBURM.s:27075  .debug_str:00000000000201bd .LASF5393
C:\Users\CYMR90~1\AppData\Local\Temp\ccScBURM.s:26395  .debug_str:000000000001d88e .LASF5394
C:\Users\CYMR90~1\AppData\Local\Temp\ccScBURM.s:21202  .debug_str:0000000000008728 .LASF5395
C:\Users\CYMR90~1\AppData\Local\Temp\ccScBURM.s:27755  .debug_str:0000000000022b90 .LASF5396
C:\Users\CYMR90~1\AppData\Local\Temp\ccScBURM.s:27055  .debug_str:00000000000200ad .LASF5397
C:\Users\CYMR90~1\AppData\Local\Temp\ccScBURM.s:20254  .debug_str:0000000000004a27 .LASF5398
C:\Users\CYMR90~1\AppData\Local\Temp\ccScBURM.s:20672  .debug_str:000000000000639c .LASF5399
C:\Users\CYMR90~1\AppData\Local\Temp\ccScBURM.s:27711  .debug_str:00000000000228b8 .LASF5400
C:\Users\CYMR90~1\AppData\Local\Temp\ccScBURM.s:29433  .debug_str:0000000000029918 .LASF5401
C:\Users\CYMR90~1\AppData\Local\Temp\ccScBURM.s:25295  .debug_str:0000000000018f5b .LASF5402
C:\Users\CYMR90~1\AppData\Local\Temp\ccScBURM.s:22114  .debug_str:000000000000c336 .LASF5403
C:\Users\CYMR90~1\AppData\Local\Temp\ccScBURM.s:26775  .debug_str:000000000001efaa .LASF5404
C:\Users\CYMR90~1\AppData\Local\Temp\ccScBURM.s:23664  .debug_str:00000000000125d7 .LASF5405
C:\Users\CYMR90~1\AppData\Local\Temp\ccScBURM.s:27165  .debug_str:00000000000207db .LASF5406
C:\Users\CYMR90~1\AppData\Local\Temp\ccScBURM.s:23984  .debug_str:0000000000013b00 .LASF5407
C:\Users\CYMR90~1\AppData\Local\Temp\ccScBURM.s:29385  .debug_str:000000000002965d .LASF5408
C:\Users\CYMR90~1\AppData\Local\Temp\ccScBURM.s:23138  .debug_str:000000000001040b .LASF5409
C:\Users\CYMR90~1\AppData\Local\Temp\ccScBURM.s:22368  .debug_str:000000000000d431 .LASF5410
C:\Users\CYMR90~1\AppData\Local\Temp\ccScBURM.s:26785  .debug_str:000000000001f063 .LASF5411
C:\Users\CYMR90~1\AppData\Local\Temp\ccScBURM.s:29971  .debug_str:000000000002ba7b .LASF5412
C:\Users\CYMR90~1\AppData\Local\Temp\ccScBURM.s:27735  .debug_str:0000000000022a92 .LASF5413
C:\Users\CYMR90~1\AppData\Local\Temp\ccScBURM.s:27881  .debug_str:000000000002329b .LASF5414
C:\Users\CYMR90~1\AppData\Local\Temp\ccScBURM.s:21902  .debug_str:000000000000b3b2 .LASF5415
C:\Users\CYMR90~1\AppData\Local\Temp\ccScBURM.s:28003  .debug_str:0000000000023a29 .LASF5416
C:\Users\CYMR90~1\AppData\Local\Temp\ccScBURM.s:27621  .debug_str:000000000002237c .LASF5417
C:\Users\CYMR90~1\AppData\Local\Temp\ccScBURM.s:25543  .debug_str:0000000000019fb6 .LASF5418
C:\Users\CYMR90~1\AppData\Local\Temp\ccScBURM.s:25079  .debug_str:000000000001816d .LASF5419
C:\Users\CYMR90~1\AppData\Local\Temp\ccScBURM.s:27493  .debug_str:0000000000021bde .LASF5420
C:\Users\CYMR90~1\AppData\Local\Temp\ccScBURM.s:29943  .debug_str:000000000002b894 .LASF5421
C:\Users\CYMR90~1\AppData\Local\Temp\ccScBURM.s:21048  .debug_str:0000000000007c24 .LASF5422
C:\Users\CYMR90~1\AppData\Local\Temp\ccScBURM.s:20504  .debug_str:0000000000005967 .LASF5423
C:\Users\CYMR90~1\AppData\Local\Temp\ccScBURM.s:20806  .debug_str:0000000000006bf5 .LASF5424
C:\Users\CYMR90~1\AppData\Local\Temp\ccScBURM.s:22256  .debug_str:000000000000cd05 .LASF5425
C:\Users\CYMR90~1\AppData\Local\Temp\ccScBURM.s:23598  .debug_str:00000000000121b0 .LASF5426
C:\Users\CYMR90~1\AppData\Local\Temp\ccScBURM.s:21998  .debug_str:000000000000ba94 .LASF5427
C:\Users\CYMR90~1\AppData\Local\Temp\ccScBURM.s:20566  .debug_str:0000000000005d4a .LASF5428
C:\Users\CYMR90~1\AppData\Local\Temp\ccScBURM.s:28581  .debug_str:0000000000026173 .LASF5429
C:\Users\CYMR90~1\AppData\Local\Temp\ccScBURM.s:23036  .debug_str:000000000000fd8b .LASF5430
C:\Users\CYMR90~1\AppData\Local\Temp\ccScBURM.s:26943  .debug_str:000000000001f9bd .LASF5431
C:\Users\CYMR90~1\AppData\Local\Temp\ccScBURM.s:23900  .debug_str:00000000000135f5 .LASF5432
C:\Users\CYMR90~1\AppData\Local\Temp\ccScBURM.s:30123  .debug_str:000000000002c502 .LASF5433
C:\Users\CYMR90~1\AppData\Local\Temp\ccScBURM.s:26437  .debug_str:000000000001dad5 .LASF5434
C:\Users\CYMR90~1\AppData\Local\Temp\ccScBURM.s:26235  .debug_str:000000000001ce02 .LASF5435
C:\Users\CYMR90~1\AppData\Local\Temp\ccScBURM.s:27339  .debug_str:00000000000211cb .LASF5436
C:\Users\CYMR90~1\AppData\Local\Temp\ccScBURM.s:22332  .debug_str:000000000000d19b .LASF5437
C:\Users\CYMR90~1\AppData\Local\Temp\ccScBURM.s:26385  .debug_str:000000000001d7c7 .LASF5438
C:\Users\CYMR90~1\AppData\Local\Temp\ccScBURM.s:24963  .debug_str:0000000000017a8b .LASF5439
C:\Users\CYMR90~1\AppData\Local\Temp\ccScBURM.s:24138  .debug_str:000000000001444c .LASF5440
C:\Users\CYMR90~1\AppData\Local\Temp\ccScBURM.s:19856  .debug_str:0000000000002ef0 .LASF5441
C:\Users\CYMR90~1\AppData\Local\Temp\ccScBURM.s:24336  .debug_str:0000000000015129 .LASF5442
C:\Users\CYMR90~1\AppData\Local\Temp\ccScBURM.s:22394  .debug_str:000000000000d643 .LASF5443
C:\Users\CYMR90~1\AppData\Local\Temp\ccScBURM.s:24012  .debug_str:0000000000013cc0 .LASF5444
C:\Users\CYMR90~1\AppData\Local\Temp\ccScBURM.s:19784  .debug_str:0000000000002a43 .LASF5445
C:\Users\CYMR90~1\AppData\Local\Temp\ccScBURM.s:21590  .debug_str:0000000000009fb7 .LASF5446
C:\Users\CYMR90~1\AppData\Local\Temp\ccScBURM.s:28321  .debug_str:0000000000024fd0 .LASF5447
C:\Users\CYMR90~1\AppData\Local\Temp\ccScBURM.s:26299  .debug_str:000000000001d260 .LASF5448
C:\Users\CYMR90~1\AppData\Local\Temp\ccScBURM.s:30203  .debug_str:000000000002ca4b .LASF5449
C:\Users\CYMR90~1\AppData\Local\Temp\ccScBURM.s:24514  .debug_str:0000000000015bbe .LASF5450
C:\Users\CYMR90~1\AppData\Local\Temp\ccScBURM.s:21622  .debug_str:000000000000a1a2 .LASF5451
C:\Users\CYMR90~1\AppData\Local\Temp\ccScBURM.s:22430  .debug_str:000000000000d86a .LASF5452
C:\Users\CYMR90~1\AppData\Local\Temp\ccScBURM.s:27065  .debug_str:0000000000020123 .LASF5453
C:\Users\CYMR90~1\AppData\Local\Temp\ccScBURM.s:28417  .debug_str:0000000000025756 .LASF5454
C:\Users\CYMR90~1\AppData\Local\Temp\ccScBURM.s:22230  .debug_str:000000000000caeb .LASF5455
C:\Users\CYMR90~1\AppData\Local\Temp\ccScBURM.s:21652  .debug_str:000000000000a387 .LASF5456
C:\Users\CYMR90~1\AppData\Local\Temp\ccScBURM.s:25757  .debug_str:000000000001aecf .LASF5457
C:\Users\CYMR90~1\AppData\Local\Temp\ccScBURM.s:28935  .debug_str:000000000002779b .LASF5458
C:\Users\CYMR90~1\AppData\Local\Temp\ccScBURM.s:25237  .debug_str:0000000000018b2c .LASF5459
C:\Users\CYMR90~1\AppData\Local\Temp\ccScBURM.s:22198  .debug_str:000000000000c877 .LASF5460
C:\Users\CYMR90~1\AppData\Local\Temp\ccScBURM.s:22334  .debug_str:000000000000d1b3 .LASF5461
C:\Users\CYMR90~1\AppData\Local\Temp\ccScBURM.s:23404  .debug_str:000000000001142a .LASF5462
C:\Users\CYMR90~1\AppData\Local\Temp\ccScBURM.s:26431  .debug_str:000000000001da74 .LASF5463
C:\Users\CYMR90~1\AppData\Local\Temp\ccScBURM.s:21382  .debug_str:000000000000926d .LASF5464
C:\Users\CYMR90~1\AppData\Local\Temp\ccScBURM.s:21446  .debug_str:000000000000967c .LASF5465
C:\Users\CYMR90~1\AppData\Local\Temp\ccScBURM.s:26323  .debug_str:000000000001d3cd .LASF5466
C:\Users\CYMR90~1\AppData\Local\Temp\ccScBURM.s:24897  .debug_str:000000000001761b .LASF5467
C:\Users\CYMR90~1\AppData\Local\Temp\ccScBURM.s:27093  .debug_str:00000000000202ad .LASF5468
C:\Users\CYMR90~1\AppData\Local\Temp\ccScBURM.s:19108  .debug_str:00000000000000a6 .LASF5469
C:\Users\CYMR90~1\AppData\Local\Temp\ccScBURM.s:27029  .debug_str:000000000001ff31 .LASF5470
C:\Users\CYMR90~1\AppData\Local\Temp\ccScBURM.s:30249  .debug_str:000000000002cd85 .LASF5471
C:\Users\CYMR90~1\AppData\Local\Temp\ccScBURM.s:26461  .debug_str:000000000001dcc0 .LASF5472
C:\Users\CYMR90~1\AppData\Local\Temp\ccScBURM.s:20554  .debug_str:0000000000005c7b .LASF5473
C:\Users\CYMR90~1\AppData\Local\Temp\ccScBURM.s:19722  .debug_str:000000000000261f .LASF5474
C:\Users\CYMR90~1\AppData\Local\Temp\ccScBURM.s:27261  .debug_str:0000000000020d8b .LASF5475
C:\Users\CYMR90~1\AppData\Local\Temp\ccScBURM.s:29115  .debug_str:00000000000284a1 .LASF5476
C:\Users\CYMR90~1\AppData\Local\Temp\ccScBURM.s:19200  .debug_str:00000000000005f5 .LASF5477
C:\Users\CYMR90~1\AppData\Local\Temp\ccScBURM.s:23624  .debug_str:0000000000012322 .LASF5478
C:\Users\CYMR90~1\AppData\Local\Temp\ccScBURM.s:24038  .debug_str:0000000000013e37 .LASF5479
C:\Users\CYMR90~1\AppData\Local\Temp\ccScBURM.s:23596  .debug_str:0000000000012197 .LASF5480
C:\Users\CYMR90~1\AppData\Local\Temp\ccScBURM.s:20678  .debug_str:00000000000063fe .LASF5481
C:\Users\CYMR90~1\AppData\Local\Temp\ccScBURM.s:26763  .debug_str:000000000001eed6 .LASF5482
C:\Users\CYMR90~1\AppData\Local\Temp\ccScBURM.s:24911  .debug_str:0000000000017720 .LASF5483
C:\Users\CYMR90~1\AppData\Local\Temp\ccScBURM.s:19454  .debug_str:00000000000015b4 .LASF5484
C:\Users\CYMR90~1\AppData\Local\Temp\ccScBURM.s:26981  .debug_str:000000000001fc0b .LASF5485
C:\Users\CYMR90~1\AppData\Local\Temp\ccScBURM.s:19798  .debug_str:0000000000002b3a .LASF5486
C:\Users\CYMR90~1\AppData\Local\Temp\ccScBURM.s:27901  .debug_str:00000000000233c4 .LASF5487
C:\Users\CYMR90~1\AppData\Local\Temp\ccScBURM.s:19412  .debug_str:000000000000133b .LASF5488
C:\Users\CYMR90~1\AppData\Local\Temp\ccScBURM.s:28741  .debug_str:0000000000026b23 .LASF5489
C:\Users\CYMR90~1\AppData\Local\Temp\ccScBURM.s:27681  .debug_str:00000000000226ec .LASF5490
C:\Users\CYMR90~1\AppData\Local\Temp\ccScBURM.s:20024  .debug_str:0000000000003a40 .LASF5491
C:\Users\CYMR90~1\AppData\Local\Temp\ccScBURM.s:21866  .debug_str:000000000000b1c7 .LASF5492
C:\Users\CYMR90~1\AppData\Local\Temp\ccScBURM.s:28049  .debug_str:0000000000023cce .LASF5493
C:\Users\CYMR90~1\AppData\Local\Temp\ccScBURM.s:20582  .debug_str:0000000000005e33 .LASF5494
C:\Users\CYMR90~1\AppData\Local\Temp\ccScBURM.s:28887  .debug_str:00000000000274ba .LASF5495
C:\Users\CYMR90~1\AppData\Local\Temp\ccScBURM.s:21144  .debug_str:0000000000008381 .LASF5496
C:\Users\CYMR90~1\AppData\Local\Temp\ccScBURM.s:29845  .debug_str:000000000002b1fc .LASF5497
C:\Users\CYMR90~1\AppData\Local\Temp\ccScBURM.s:27059  .debug_str:00000000000200d8 .LASF5498
C:\Users\CYMR90~1\AppData\Local\Temp\ccScBURM.s:25387  .debug_str:0000000000019582 .LASF5499
C:\Users\CYMR90~1\AppData\Local\Temp\ccScBURM.s:19338  .debug_str:0000000000000f2f .LASF5500
C:\Users\CYMR90~1\AppData\Local\Temp\ccScBURM.s:26891  .debug_str:000000000001f69c .LASF5501
C:\Users\CYMR90~1\AppData\Local\Temp\ccScBURM.s:20530  .debug_str:0000000000005afa .LASF5502
C:\Users\CYMR90~1\AppData\Local\Temp\ccScBURM.s:29813  .debug_str:000000000002afa4 .LASF5503
C:\Users\CYMR90~1\AppData\Local\Temp\ccScBURM.s:24634  .debug_str:0000000000016373 .LASF5504
C:\Users\CYMR90~1\AppData\Local\Temp\ccScBURM.s:24434  .debug_str:00000000000156bc .LASF5505
C:\Users\CYMR90~1\AppData\Local\Temp\ccScBURM.s:25457  .debug_str:0000000000019a9d .LASF5506
C:\Users\CYMR90~1\AppData\Local\Temp\ccScBURM.s:21928  .debug_str:000000000000b5e0 .LASF5507
C:\Users\CYMR90~1\AppData\Local\Temp\ccScBURM.s:28207  .debug_str:000000000002483f .LASF5508
C:\Users\CYMR90~1\AppData\Local\Temp\ccScBURM.s:29791  .debug_str:000000000002ae64 .LASF5509
C:\Users\CYMR90~1\AppData\Local\Temp\ccScBURM.s:20076  .debug_str:0000000000003d60 .LASF5510
C:\Users\CYMR90~1\AppData\Local\Temp\ccScBURM.s:26687  .debug_str:000000000001ea72 .LASF5511
C:\Users\CYMR90~1\AppData\Local\Temp\ccScBURM.s:25961  .debug_str:000000000001bb9f .LASF5512
C:\Users\CYMR90~1\AppData\Local\Temp\ccScBURM.s:23816  .debug_str:0000000000012fbf .LASF5513
C:\Users\CYMR90~1\AppData\Local\Temp\ccScBURM.s:29545  .debug_str:0000000000029fb9 .LASF5514
C:\Users\CYMR90~1\AppData\Local\Temp\ccScBURM.s:27467  .debug_str:0000000000021a2c .LASF5515
C:\Users\CYMR90~1\AppData\Local\Temp\ccScBURM.s:21468  .debug_str:00000000000097b0 .LASF5516
C:\Users\CYMR90~1\AppData\Local\Temp\ccScBURM.s:30187  .debug_str:000000000002c92e .LASF5517
C:\Users\CYMR90~1\AppData\Local\Temp\ccScBURM.s:29259  .debug_str:0000000000028db8 .LASF5518
C:\Users\CYMR90~1\AppData\Local\Temp\ccScBURM.s:19902  .debug_str:0000000000003221 .LASF5519
C:\Users\CYMR90~1\AppData\Local\Temp\ccScBURM.s:27419  .debug_str:000000000002175e .LASF5520
C:\Users\CYMR90~1\AppData\Local\Temp\ccScBURM.s:30155  .debug_str:000000000002c6db .LASF5521
C:\Users\CYMR90~1\AppData\Local\Temp\ccScBURM.s:26665  .debug_str:000000000001e923 .LASF5522
C:\Users\CYMR90~1\AppData\Local\Temp\ccScBURM.s:29505  .debug_str:0000000000029d50 .LASF5523
C:\Users\CYMR90~1\AppData\Local\Temp\ccScBURM.s:24508  .debug_str:0000000000015b78 .LASF5524
C:\Users\CYMR90~1\AppData\Local\Temp\ccScBURM.s:26597  .debug_str:000000000001e4e1 .LASF5525
C:\Users\CYMR90~1\AppData\Local\Temp\ccScBURM.s:22930  .debug_str:000000000000f6a0 .LASF5526
C:\Users\CYMR90~1\AppData\Local\Temp\ccScBURM.s:22918  .debug_str:000000000000f5f3 .LASF5527
C:\Users\CYMR90~1\AppData\Local\Temp\ccScBURM.s:26961  .debug_str:000000000001fadb .LASF5528
C:\Users\CYMR90~1\AppData\Local\Temp\ccScBURM.s:28635  .debug_str:00000000000264cd .LASF5529
C:\Users\CYMR90~1\AppData\Local\Temp\ccScBURM.s:19486  .debug_str:0000000000001852 .LASF5530
C:\Users\CYMR90~1\AppData\Local\Temp\ccScBURM.s:25637  .debug_str:000000000001a6bf .LASF5531
C:\Users\CYMR90~1\AppData\Local\Temp\ccScBURM.s:23644  .debug_str:0000000000012474 .LASF5532
C:\Users\CYMR90~1\AppData\Local\Temp\ccScBURM.s:24949  .debug_str:00000000000179b3 .LASF5533
C:\Users\CYMR90~1\AppData\Local\Temp\ccScBURM.s:19600  .debug_str:0000000000001f22 .LASF5534
C:\Users\CYMR90~1\AppData\Local\Temp\ccScBURM.s:24504  .debug_str:0000000000015ae2 .LASF5535
C:\Users\CYMR90~1\AppData\Local\Temp\ccScBURM.s:22672  .debug_str:000000000000e6d6 .LASF5536
C:\Users\CYMR90~1\AppData\Local\Temp\ccScBURM.s:23406  .debug_str:000000000001144c .LASF5537
C:\Users\CYMR90~1\AppData\Local\Temp\ccScBURM.s:21800  .debug_str:000000000000acd3 .LASF5538
C:\Users\CYMR90~1\AppData\Local\Temp\ccScBURM.s:20122  .debug_str:0000000000004088 .LASF5539
C:\Users\CYMR90~1\AppData\Local\Temp\ccScBURM.s:29901  .debug_str:000000000002b5b3 .LASF5540
C:\Users\CYMR90~1\AppData\Local\Temp\ccScBURM.s:21630  .debug_str:000000000000a22e .LASF5541
C:\Users\CYMR90~1\AppData\Local\Temp\ccScBURM.s:27207  .debug_str:0000000000020a38 .LASF5542
C:\Users\CYMR90~1\AppData\Local\Temp\ccScBURM.s:27895  .debug_str:000000000002336e .LASF5543
C:\Users\CYMR90~1\AppData\Local\Temp\ccScBURM.s:29937  .debug_str:000000000002b843 .LASF5544
C:\Users\CYMR90~1\AppData\Local\Temp\ccScBURM.s:19394  .debug_str:0000000000001247 .LASF5545
C:\Users\CYMR90~1\AppData\Local\Temp\ccScBURM.s:24789  .debug_str:0000000000016fca .LASF5546
C:\Users\CYMR90~1\AppData\Local\Temp\ccScBURM.s:27533  .debug_str:0000000000021e69 .LASF5547
C:\Users\CYMR90~1\AppData\Local\Temp\ccScBURM.s:26463  .debug_str:000000000001dce2 .LASF5548
C:\Users\CYMR90~1\AppData\Local\Temp\ccScBURM.s:23098  .debug_str:0000000000010173 .LASF5549
C:\Users\CYMR90~1\AppData\Local\Temp\ccScBURM.s:19570  .debug_str:0000000000001d52 .LASF5550
C:\Users\CYMR90~1\AppData\Local\Temp\ccScBURM.s:25737  .debug_str:000000000001ad5d .LASF5551
C:\Users\CYMR90~1\AppData\Local\Temp\ccScBURM.s:22550  .debug_str:000000000000dfa9 .LASF5552
C:\Users\CYMR90~1\AppData\Local\Temp\ccScBURM.s:24082  .debug_str:0000000000014100 .LASF5553
C:\Users\CYMR90~1\AppData\Local\Temp\ccScBURM.s:29125  .debug_str:0000000000028559 .LASF5554
C:\Users\CYMR90~1\AppData\Local\Temp\ccScBURM.s:30053  .debug_str:000000000002c01f .LASF5555
                           .group:0000000000000000 wm4.0.10abbef32179bc1260444192115bdf5e
                           .group:0000000000000000 wm4.stddef.h.39.144cf5ddcd53cbfdac30259dc1a6c87f
                           .group:0000000000000000 wm4._newlib_version.h.4.bfdf54b0af045d4a71376ae00f63a22c
                           .group:0000000000000000 wm4.newlib.h.18.08a2ecba46890ca2aa56bbe21686e6c3
                           .group:0000000000000000 wm4.ieeefp.h.202.4f2759f5758fd82153cfbf98692f2ced
                           .group:0000000000000000 wm4.features.h.22.fad1cec3bc7ff06488171438dbdcfd02
                           .group:0000000000000000 wm4.config.h.83.13bbc8852bfac55b724c9822481355b5
                           .group:0000000000000000 wm4._ansi.h.31.de524f58584151836e90d8620a16f8e8
                           .group:0000000000000000 wm4.stdio.h.31.7c0e28c411445f3f9c5b11accf882760
                           .group:0000000000000000 wm4._default_types.h.6.959254cf5f09734ea7516c89e8bb21bd
                           .group:0000000000000000 wm4.stddef.h.155.ba788add86a0e365f264484f110c3c29
                           .group:0000000000000000 wm4.cdefs.h.49.39045112216f6a021dbdffe3bf5accce
                           .group:0000000000000000 wm4.stdarg.h.34.3a23a216c0c293b3d2ea2e89281481e6
                           .group:0000000000000000 wm4._types.h.20.dd0d04dca3800a0d2a6129b87f3adbb2
                           .group:0000000000000000 wm4.stddef.h.155.3588ebfdd1e8c7ede80509bb9c3b8009
                           .group:0000000000000000 wm4._types.h.127.34941de1b2539d59d5cac00e0dd27a45
                           .group:0000000000000000 wm4.reent.h.17.e292bf8b0bec6c96e131a54347145a30
                           .group:0000000000000000 wm4.lock.h.2.c0958401bd0ce484d507ee19aacab817
                           .group:0000000000000000 wm4.reent.h.77.dcd6129ff07fe81bd5636db29abe53b2
                           .group:0000000000000000 wm4.types.h.40.8b6acba56cefbb11746718204edc8f5e
                           .group:0000000000000000 wm4._stdint.h.10.c24fa3af3bc1706662bb5593a907e841
                           .group:0000000000000000 wm4._endian.h.18.1bf9649e8e5bbc91042012680270b9ed
                           .group:0000000000000000 wm4.endian.h.9.49f3a4695c1b61e8a0808de3c4a106cb
                           .group:0000000000000000 wm4._timeval.h.32.bec3221fa7a9bb0bdde696c9c57e47d2
                           .group:0000000000000000 wm4.timespec.h.41.d855182eb0e690443ab8651bcedca6e1
                           .group:0000000000000000 wm4.select.h.19.40cd3f2bfc456b193b790c2754690ebf
                           .group:0000000000000000 wm4.types.h.51.5571ec98f267d17d3c670b7a3ba33afa
                           .group:0000000000000000 wm4.sched.h.22.c60982713a5c428609783c78f9c78d95
                           .group:0000000000000000 wm4._pthreadtypes.h.36.fcee9961c35163dde6267ef772ad1972
                           .group:0000000000000000 wm4.stdio.h.2.4aa87247282eca6c8f36f9de33d8df1a
                           .group:0000000000000000 wm4.stdio.h.81.932d0c162786b883f622b8d05c120c78
                           .group:0000000000000000 wm4.gd32vw55x.h.47.379378190858578060a317909b2c8d8a
                           .group:0000000000000000 wm4._intsup.h.10.48bafbb683905c4daa4565a85aeeb264
                           .group:0000000000000000 wm4.stdint.h.23.d53047a68f4a85177f80b422d52785ed
                           .group:0000000000000000 wm4.nmsis_version.h.19.ffa173da8efb17b1050904994d6f500e
                           .group:0000000000000000 wm4.riscv_bits.h.19.ee94eb3d39937793d4cd0a62363e5d00
                           .group:0000000000000000 wm4.riscv_encoding.h.35.f5d37fad7abbab8278b4bb6f1e32fa65
                           .group:0000000000000000 wm4.nmsis_gcc.h.61.5d70d7598ffc79c3c991d847a574cf23
                           .group:0000000000000000 wm4.core_feature_base.h.20.e99d3e75c26a8f3341d35bf20d0e1d20
                           .group:0000000000000000 wm4.core_feature_fpu.h.19.695f2200274659b530cb97cda749ff4f
                           .group:0000000000000000 wm4.core_feature_dsp.h.19.e8f8d7aa42f197807aefedb6584486cd
                           .group:0000000000000000 wm4.core_compatiable.h.19.5b8282d61b1f6889a82895616b730084
                           .group:0000000000000000 wm4.core_feature_eclic.h.19.e0c091d0cbda79e8b3b031b979ebd5a1
                           .group:0000000000000000 wm4.core_feature_timer.h.19.21a5151282de34c37dfa6d84e262aa54
                           .group:0000000000000000 wm4.system_gd32vw55x.h.32.f1fcb1212d387c35ac955b0e96ada468
                           .group:0000000000000000 wm4.gd32vw55x.h.231.3529c650aff38c9372f7e03177fd2c8a
                           .group:0000000000000000 wm4.gd32vw55x_adc.h.42.ae73acec1704ef509ccecb41a875b50e
                           .group:0000000000000000 wm4.gd32vw55x_cau.h.36.c98428fe1eae7edb4721da5c8078c974
                           .group:0000000000000000 wm4.gd32vw55x_crc.h.37.c58f296814c2300a4b067c08bd88d54e
                           .group:0000000000000000 wm4.gd32vw55x_dbg.h.36.311650c8545549d482ceca8befc5a232
                           .group:0000000000000000 wm4.gd32vw55x_dma.h.36.f4adc751172b2a7b1533dda72e948737
                           .group:0000000000000000 wm4.gd32vw55x_eclic.h.36.0411499f2b2493c67246e32ccae096c1
                           .group:0000000000000000 wm4.gd32vw55x_efuse.h.36.091404cecbab70359dfd93faec5fdb62
                           .group:0000000000000000 wm4.gd32vw55x_exti.h.36.de7508334dd12f1a6a673521a1a835f5
                           .group:0000000000000000 wm4.gd32vw55x_fmc.h.36.a4b0b94c47ffe23a2fa09260c5ed4850
                           .group:0000000000000000 wm4.gd32vw55x_fwdgt.h.36.4846b6900fd24b5bfce4986c9a8ce677
                           .group:0000000000000000 wm4.gd32vw55x_gpio.h.36.adfee1371bb58d3d9043c47bdb25a90f
                           .group:0000000000000000 wm4.gd32vw55x_hau.h.36.f3cbcbd7b67c9e5bdc7a1100b1bf3458
                           .group:0000000000000000 wm4.gd32vw55x_i2c.h.36.3848990933925e084eb427083790c53f
                           .group:0000000000000000 wm4.gd32vw55x_pkcau.h.36.bb2235f4cf4967063a51bfa9aca5ef27
                           .group:0000000000000000 wm4.gd32vw55x_pmu.h.36.4c76091f1415551526d489ccf2c42052
                           .group:0000000000000000 wm4.gd32vw55x_qspi.h.36.2d2c181cfe19b935a9641008fc786613
                           .group:0000000000000000 wm4.gd32vw55x_rcu.h.36.780a8a45c00d563711cceb445027ef47
                           .group:0000000000000000 wm4.gd32vw55x_rtc.h.36.3172855e8715659e080e0eab46fdf175
                           .group:0000000000000000 wm4.gd32vw55x_spi.h.36.9fa1be2b09fb73e4b5886e97f0e96d58
                           .group:0000000000000000 wm4.gd32vw55x_syscfg.h.36.010551f05591f5e34051d2e15df0352b
                           .group:0000000000000000 wm4.gd32vw55x_timer.h.38.2cbee78ea60d47145be361b2d2c55070
                           .group:0000000000000000 wm4.gd32vw55x_trng.h.36.c9e7807af1b1ab68d3bbb54f4ed5cd73
                           .group:0000000000000000 wm4.gd32vw55x_usart.h.36.f5c497cca17945a34f154b0e17017d02
                           .group:0000000000000000 wm4.gd32vw55x_wwdgt.h.36.f7a443b7302efc0e5c335888582ee197

NO UNDEFINED SYMBOLS
